
PARTS_DRAWER.elf:     file format elf32-littlearm

Sections:
Idx Name          Size      VMA       LMA       File off  Algn
  0 .isr_vector   000000c0  08000000  08000000  00010000  2**0
                  CONTENTS, ALLOC, LOAD, READONLY, DATA
  1 .text         0000562c  080000c0  080000c0  000100c0  2**2
                  CONTENTS, ALLOC, LOAD, READONLY, CODE
  2 .rodata       00000ca0  080056ec  080056ec  000156ec  2**2
                  CONTENTS, ALLOC, LOAD, READONLY, DATA
  3 .ARM.extab    00000000  0800638c  0800638c  000200b0  2**0
                  CONTENTS
  4 .ARM          00000008  0800638c  0800638c  0001638c  2**2
                  CONTENTS, ALLOC, LOAD, READONLY, DATA
  5 .preinit_array 00000000  08006394  08006394  000200b0  2**0
                  CONTENTS, ALLOC, LOAD, DATA
  6 .init_array   00000004  08006394  08006394  00016394  2**2
                  CONTENTS, ALLOC, LOAD, DATA
  7 .fini_array   00000004  08006398  08006398  00016398  2**2
                  CONTENTS, ALLOC, LOAD, DATA
  8 .data         000000b0  20000000  0800639c  00020000  2**2
                  CONTENTS, ALLOC, LOAD, DATA
  9 .bss          00000c58  200000b0  0800644c  000200b0  2**2
                  ALLOC
 10 ._user_heap_stack 00000600  20000d08  0800644c  00020d08  2**0
                  ALLOC
 11 .ARM.attributes 00000028  00000000  00000000  000200b0  2**0
                  CONTENTS, READONLY
 12 .debug_info   0001ab51  00000000  00000000  000200d8  2**0
                  CONTENTS, READONLY, DEBUGGING, OCTETS
 13 .debug_abbrev 00003bd8  00000000  00000000  0003ac29  2**0
                  CONTENTS, READONLY, DEBUGGING, OCTETS
 14 .debug_loc    0001116e  00000000  00000000  0003e801  2**0
                  CONTENTS, READONLY, DEBUGGING, OCTETS
 15 .debug_aranges 00000f78  00000000  00000000  0004f970  2**3
                  CONTENTS, READONLY, DEBUGGING, OCTETS
 16 .debug_ranges 00001980  00000000  00000000  000508e8  2**3
                  CONTENTS, READONLY, DEBUGGING, OCTETS
 17 .debug_macro  00015ee6  00000000  00000000  00052268  2**0
                  CONTENTS, READONLY, DEBUGGING, OCTETS
 18 .debug_line   0001de7e  00000000  00000000  0006814e  2**0
                  CONTENTS, READONLY, DEBUGGING, OCTETS
 19 .debug_str    00080ff3  00000000  00000000  00085fcc  2**0
                  CONTENTS, READONLY, DEBUGGING, OCTETS
 20 .comment      00000050  00000000  00000000  00106fbf  2**0
                  CONTENTS, READONLY
 21 .debug_frame  000034e8  00000000  00000000  00107010  2**2
                  CONTENTS, READONLY, DEBUGGING, OCTETS

Disassembly of section .text:

080000c0 <__do_global_dtors_aux>:
 80000c0:	b510      	push	{r4, lr}
 80000c2:	4c06      	ldr	r4, [pc, #24]	; (80000dc <__do_global_dtors_aux+0x1c>)
 80000c4:	7823      	ldrb	r3, [r4, #0]
 80000c6:	2b00      	cmp	r3, #0
 80000c8:	d107      	bne.n	80000da <__do_global_dtors_aux+0x1a>
 80000ca:	4b05      	ldr	r3, [pc, #20]	; (80000e0 <__do_global_dtors_aux+0x20>)
 80000cc:	2b00      	cmp	r3, #0
 80000ce:	d002      	beq.n	80000d6 <__do_global_dtors_aux+0x16>
 80000d0:	4804      	ldr	r0, [pc, #16]	; (80000e4 <__do_global_dtors_aux+0x24>)
 80000d2:	e000      	b.n	80000d6 <__do_global_dtors_aux+0x16>
 80000d4:	bf00      	nop
 80000d6:	2301      	movs	r3, #1
 80000d8:	7023      	strb	r3, [r4, #0]
 80000da:	bd10      	pop	{r4, pc}
 80000dc:	200000b0 	.word	0x200000b0
 80000e0:	00000000 	.word	0x00000000
 80000e4:	080056d4 	.word	0x080056d4

080000e8 <frame_dummy>:
 80000e8:	4b04      	ldr	r3, [pc, #16]	; (80000fc <frame_dummy+0x14>)
 80000ea:	b510      	push	{r4, lr}
 80000ec:	2b00      	cmp	r3, #0
 80000ee:	d003      	beq.n	80000f8 <frame_dummy+0x10>
 80000f0:	4903      	ldr	r1, [pc, #12]	; (8000100 <frame_dummy+0x18>)
 80000f2:	4804      	ldr	r0, [pc, #16]	; (8000104 <frame_dummy+0x1c>)
 80000f4:	e000      	b.n	80000f8 <frame_dummy+0x10>
 80000f6:	bf00      	nop
 80000f8:	bd10      	pop	{r4, pc}
 80000fa:	46c0      	nop			; (mov r8, r8)
 80000fc:	00000000 	.word	0x00000000
 8000100:	200000b4 	.word	0x200000b4
 8000104:	080056d4 	.word	0x080056d4

08000108 <strcmp>:
 8000108:	7802      	ldrb	r2, [r0, #0]
 800010a:	780b      	ldrb	r3, [r1, #0]
 800010c:	2a00      	cmp	r2, #0
 800010e:	d003      	beq.n	8000118 <strcmp+0x10>
 8000110:	3001      	adds	r0, #1
 8000112:	3101      	adds	r1, #1
 8000114:	429a      	cmp	r2, r3
 8000116:	d0f7      	beq.n	8000108 <strcmp>
 8000118:	1ad0      	subs	r0, r2, r3
 800011a:	4770      	bx	lr

0800011c <__gnu_thumb1_case_uqi>:
 800011c:	b402      	push	{r1}
 800011e:	4671      	mov	r1, lr
 8000120:	0849      	lsrs	r1, r1, #1
 8000122:	0049      	lsls	r1, r1, #1
 8000124:	5c09      	ldrb	r1, [r1, r0]
 8000126:	0049      	lsls	r1, r1, #1
 8000128:	448e      	add	lr, r1
 800012a:	bc02      	pop	{r1}
 800012c:	4770      	bx	lr
 800012e:	46c0      	nop			; (mov r8, r8)

08000130 <__gnu_thumb1_case_shi>:
 8000130:	b403      	push	{r0, r1}
 8000132:	4671      	mov	r1, lr
 8000134:	0849      	lsrs	r1, r1, #1
 8000136:	0040      	lsls	r0, r0, #1
 8000138:	0049      	lsls	r1, r1, #1
 800013a:	5e09      	ldrsh	r1, [r1, r0]
 800013c:	0049      	lsls	r1, r1, #1
 800013e:	448e      	add	lr, r1
 8000140:	bc03      	pop	{r0, r1}
 8000142:	4770      	bx	lr

08000144 <__udivsi3>:
 8000144:	2200      	movs	r2, #0
 8000146:	0843      	lsrs	r3, r0, #1
 8000148:	428b      	cmp	r3, r1
 800014a:	d374      	bcc.n	8000236 <__udivsi3+0xf2>
 800014c:	0903      	lsrs	r3, r0, #4
 800014e:	428b      	cmp	r3, r1
 8000150:	d35f      	bcc.n	8000212 <__udivsi3+0xce>
 8000152:	0a03      	lsrs	r3, r0, #8
 8000154:	428b      	cmp	r3, r1
 8000156:	d344      	bcc.n	80001e2 <__udivsi3+0x9e>
 8000158:	0b03      	lsrs	r3, r0, #12
 800015a:	428b      	cmp	r3, r1
 800015c:	d328      	bcc.n	80001b0 <__udivsi3+0x6c>
 800015e:	0c03      	lsrs	r3, r0, #16
 8000160:	428b      	cmp	r3, r1
 8000162:	d30d      	bcc.n	8000180 <__udivsi3+0x3c>
 8000164:	22ff      	movs	r2, #255	; 0xff
 8000166:	0209      	lsls	r1, r1, #8
 8000168:	ba12      	rev	r2, r2
 800016a:	0c03      	lsrs	r3, r0, #16
 800016c:	428b      	cmp	r3, r1
 800016e:	d302      	bcc.n	8000176 <__udivsi3+0x32>
 8000170:	1212      	asrs	r2, r2, #8
 8000172:	0209      	lsls	r1, r1, #8
 8000174:	d065      	beq.n	8000242 <__udivsi3+0xfe>
 8000176:	0b03      	lsrs	r3, r0, #12
 8000178:	428b      	cmp	r3, r1
 800017a:	d319      	bcc.n	80001b0 <__udivsi3+0x6c>
 800017c:	e000      	b.n	8000180 <__udivsi3+0x3c>
 800017e:	0a09      	lsrs	r1, r1, #8
 8000180:	0bc3      	lsrs	r3, r0, #15
 8000182:	428b      	cmp	r3, r1
 8000184:	d301      	bcc.n	800018a <__udivsi3+0x46>
 8000186:	03cb      	lsls	r3, r1, #15
 8000188:	1ac0      	subs	r0, r0, r3
 800018a:	4152      	adcs	r2, r2
 800018c:	0b83      	lsrs	r3, r0, #14
 800018e:	428b      	cmp	r3, r1
 8000190:	d301      	bcc.n	8000196 <__udivsi3+0x52>
 8000192:	038b      	lsls	r3, r1, #14
 8000194:	1ac0      	subs	r0, r0, r3
 8000196:	4152      	adcs	r2, r2
 8000198:	0b43      	lsrs	r3, r0, #13
 800019a:	428b      	cmp	r3, r1
 800019c:	d301      	bcc.n	80001a2 <__udivsi3+0x5e>
 800019e:	034b      	lsls	r3, r1, #13
 80001a0:	1ac0      	subs	r0, r0, r3
 80001a2:	4152      	adcs	r2, r2
 80001a4:	0b03      	lsrs	r3, r0, #12
 80001a6:	428b      	cmp	r3, r1
 80001a8:	d301      	bcc.n	80001ae <__udivsi3+0x6a>
 80001aa:	030b      	lsls	r3, r1, #12
 80001ac:	1ac0      	subs	r0, r0, r3
 80001ae:	4152      	adcs	r2, r2
 80001b0:	0ac3      	lsrs	r3, r0, #11
 80001b2:	428b      	cmp	r3, r1
 80001b4:	d301      	bcc.n	80001ba <__udivsi3+0x76>
 80001b6:	02cb      	lsls	r3, r1, #11
 80001b8:	1ac0      	subs	r0, r0, r3
 80001ba:	4152      	adcs	r2, r2
 80001bc:	0a83      	lsrs	r3, r0, #10
 80001be:	428b      	cmp	r3, r1
 80001c0:	d301      	bcc.n	80001c6 <__udivsi3+0x82>
 80001c2:	028b      	lsls	r3, r1, #10
 80001c4:	1ac0      	subs	r0, r0, r3
 80001c6:	4152      	adcs	r2, r2
 80001c8:	0a43      	lsrs	r3, r0, #9
 80001ca:	428b      	cmp	r3, r1
 80001cc:	d301      	bcc.n	80001d2 <__udivsi3+0x8e>
 80001ce:	024b      	lsls	r3, r1, #9
 80001d0:	1ac0      	subs	r0, r0, r3
 80001d2:	4152      	adcs	r2, r2
 80001d4:	0a03      	lsrs	r3, r0, #8
 80001d6:	428b      	cmp	r3, r1
 80001d8:	d301      	bcc.n	80001de <__udivsi3+0x9a>
 80001da:	020b      	lsls	r3, r1, #8
 80001dc:	1ac0      	subs	r0, r0, r3
 80001de:	4152      	adcs	r2, r2
 80001e0:	d2cd      	bcs.n	800017e <__udivsi3+0x3a>
 80001e2:	09c3      	lsrs	r3, r0, #7
 80001e4:	428b      	cmp	r3, r1
 80001e6:	d301      	bcc.n	80001ec <__udivsi3+0xa8>
 80001e8:	01cb      	lsls	r3, r1, #7
 80001ea:	1ac0      	subs	r0, r0, r3
 80001ec:	4152      	adcs	r2, r2
 80001ee:	0983      	lsrs	r3, r0, #6
 80001f0:	428b      	cmp	r3, r1
 80001f2:	d301      	bcc.n	80001f8 <__udivsi3+0xb4>
 80001f4:	018b      	lsls	r3, r1, #6
 80001f6:	1ac0      	subs	r0, r0, r3
 80001f8:	4152      	adcs	r2, r2
 80001fa:	0943      	lsrs	r3, r0, #5
 80001fc:	428b      	cmp	r3, r1
 80001fe:	d301      	bcc.n	8000204 <__udivsi3+0xc0>
 8000200:	014b      	lsls	r3, r1, #5
 8000202:	1ac0      	subs	r0, r0, r3
 8000204:	4152      	adcs	r2, r2
 8000206:	0903      	lsrs	r3, r0, #4
 8000208:	428b      	cmp	r3, r1
 800020a:	d301      	bcc.n	8000210 <__udivsi3+0xcc>
 800020c:	010b      	lsls	r3, r1, #4
 800020e:	1ac0      	subs	r0, r0, r3
 8000210:	4152      	adcs	r2, r2
 8000212:	08c3      	lsrs	r3, r0, #3
 8000214:	428b      	cmp	r3, r1
 8000216:	d301      	bcc.n	800021c <__udivsi3+0xd8>
 8000218:	00cb      	lsls	r3, r1, #3
 800021a:	1ac0      	subs	r0, r0, r3
 800021c:	4152      	adcs	r2, r2
 800021e:	0883      	lsrs	r3, r0, #2
 8000220:	428b      	cmp	r3, r1
 8000222:	d301      	bcc.n	8000228 <__udivsi3+0xe4>
 8000224:	008b      	lsls	r3, r1, #2
 8000226:	1ac0      	subs	r0, r0, r3
 8000228:	4152      	adcs	r2, r2
 800022a:	0843      	lsrs	r3, r0, #1
 800022c:	428b      	cmp	r3, r1
 800022e:	d301      	bcc.n	8000234 <__udivsi3+0xf0>
 8000230:	004b      	lsls	r3, r1, #1
 8000232:	1ac0      	subs	r0, r0, r3
 8000234:	4152      	adcs	r2, r2
 8000236:	1a41      	subs	r1, r0, r1
 8000238:	d200      	bcs.n	800023c <__udivsi3+0xf8>
 800023a:	4601      	mov	r1, r0
 800023c:	4152      	adcs	r2, r2
 800023e:	4610      	mov	r0, r2
 8000240:	4770      	bx	lr
 8000242:	e7ff      	b.n	8000244 <__udivsi3+0x100>
 8000244:	b501      	push	{r0, lr}
 8000246:	2000      	movs	r0, #0
 8000248:	f000 f806 	bl	8000258 <__aeabi_idiv0>
 800024c:	bd02      	pop	{r1, pc}
 800024e:	46c0      	nop			; (mov r8, r8)

08000250 <__aeabi_uidivmod>:
 8000250:	2900      	cmp	r1, #0
 8000252:	d0f7      	beq.n	8000244 <__udivsi3+0x100>
 8000254:	e776      	b.n	8000144 <__udivsi3>
 8000256:	4770      	bx	lr

08000258 <__aeabi_idiv0>:
 8000258:	4770      	bx	lr
 800025a:	46c0      	nop			; (mov r8, r8)

0800025c <__aeabi_uldivmod>:
 800025c:	2b00      	cmp	r3, #0
 800025e:	d111      	bne.n	8000284 <__aeabi_uldivmod+0x28>
 8000260:	2a00      	cmp	r2, #0
 8000262:	d10f      	bne.n	8000284 <__aeabi_uldivmod+0x28>
 8000264:	2900      	cmp	r1, #0
 8000266:	d100      	bne.n	800026a <__aeabi_uldivmod+0xe>
 8000268:	2800      	cmp	r0, #0
 800026a:	d002      	beq.n	8000272 <__aeabi_uldivmod+0x16>
 800026c:	2100      	movs	r1, #0
 800026e:	43c9      	mvns	r1, r1
 8000270:	0008      	movs	r0, r1
 8000272:	b407      	push	{r0, r1, r2}
 8000274:	4802      	ldr	r0, [pc, #8]	; (8000280 <__aeabi_uldivmod+0x24>)
 8000276:	a102      	add	r1, pc, #8	; (adr r1, 8000280 <__aeabi_uldivmod+0x24>)
 8000278:	1840      	adds	r0, r0, r1
 800027a:	9002      	str	r0, [sp, #8]
 800027c:	bd03      	pop	{r0, r1, pc}
 800027e:	46c0      	nop			; (mov r8, r8)
 8000280:	ffffffd9 	.word	0xffffffd9
 8000284:	b403      	push	{r0, r1}
 8000286:	4668      	mov	r0, sp
 8000288:	b501      	push	{r0, lr}
 800028a:	9802      	ldr	r0, [sp, #8]
 800028c:	f000 f834 	bl	80002f8 <__udivmoddi4>
 8000290:	9b01      	ldr	r3, [sp, #4]
 8000292:	469e      	mov	lr, r3
 8000294:	b002      	add	sp, #8
 8000296:	bc0c      	pop	{r2, r3}
 8000298:	4770      	bx	lr
 800029a:	46c0      	nop			; (mov r8, r8)

0800029c <__aeabi_lmul>:
 800029c:	b5f0      	push	{r4, r5, r6, r7, lr}
 800029e:	46ce      	mov	lr, r9
 80002a0:	4647      	mov	r7, r8
 80002a2:	b580      	push	{r7, lr}
 80002a4:	0007      	movs	r7, r0
 80002a6:	4699      	mov	r9, r3
 80002a8:	0c3b      	lsrs	r3, r7, #16
 80002aa:	469c      	mov	ip, r3
 80002ac:	0413      	lsls	r3, r2, #16
 80002ae:	0c1b      	lsrs	r3, r3, #16
 80002b0:	001d      	movs	r5, r3
 80002b2:	000e      	movs	r6, r1
 80002b4:	4661      	mov	r1, ip
 80002b6:	0400      	lsls	r0, r0, #16
 80002b8:	0c14      	lsrs	r4, r2, #16
 80002ba:	0c00      	lsrs	r0, r0, #16
 80002bc:	4345      	muls	r5, r0
 80002be:	434b      	muls	r3, r1
 80002c0:	4360      	muls	r0, r4
 80002c2:	4361      	muls	r1, r4
 80002c4:	18c0      	adds	r0, r0, r3
 80002c6:	0c2c      	lsrs	r4, r5, #16
 80002c8:	1820      	adds	r0, r4, r0
 80002ca:	468c      	mov	ip, r1
 80002cc:	4283      	cmp	r3, r0
 80002ce:	d903      	bls.n	80002d8 <__aeabi_lmul+0x3c>
 80002d0:	2380      	movs	r3, #128	; 0x80
 80002d2:	025b      	lsls	r3, r3, #9
 80002d4:	4698      	mov	r8, r3
 80002d6:	44c4      	add	ip, r8
 80002d8:	4649      	mov	r1, r9
 80002da:	4379      	muls	r1, r7
 80002dc:	4372      	muls	r2, r6
 80002de:	0c03      	lsrs	r3, r0, #16
 80002e0:	4463      	add	r3, ip
 80002e2:	042d      	lsls	r5, r5, #16
 80002e4:	0c2d      	lsrs	r5, r5, #16
 80002e6:	18c9      	adds	r1, r1, r3
 80002e8:	0400      	lsls	r0, r0, #16
 80002ea:	1940      	adds	r0, r0, r5
 80002ec:	1889      	adds	r1, r1, r2
 80002ee:	bcc0      	pop	{r6, r7}
 80002f0:	46b9      	mov	r9, r7
 80002f2:	46b0      	mov	r8, r6
 80002f4:	bdf0      	pop	{r4, r5, r6, r7, pc}
 80002f6:	46c0      	nop			; (mov r8, r8)

080002f8 <__udivmoddi4>:
 80002f8:	b5f0      	push	{r4, r5, r6, r7, lr}
 80002fa:	4657      	mov	r7, sl
 80002fc:	464e      	mov	r6, r9
 80002fe:	4645      	mov	r5, r8
 8000300:	46de      	mov	lr, fp
 8000302:	b5e0      	push	{r5, r6, r7, lr}
 8000304:	0004      	movs	r4, r0
 8000306:	000d      	movs	r5, r1
 8000308:	4692      	mov	sl, r2
 800030a:	4699      	mov	r9, r3
 800030c:	b083      	sub	sp, #12
 800030e:	428b      	cmp	r3, r1
 8000310:	d830      	bhi.n	8000374 <__udivmoddi4+0x7c>
 8000312:	d02d      	beq.n	8000370 <__udivmoddi4+0x78>
 8000314:	4649      	mov	r1, r9
 8000316:	4650      	mov	r0, sl
 8000318:	f000 f8ba 	bl	8000490 <__clzdi2>
 800031c:	0029      	movs	r1, r5
 800031e:	0006      	movs	r6, r0
 8000320:	0020      	movs	r0, r4
 8000322:	f000 f8b5 	bl	8000490 <__clzdi2>
 8000326:	1a33      	subs	r3, r6, r0
 8000328:	4698      	mov	r8, r3
 800032a:	3b20      	subs	r3, #32
 800032c:	469b      	mov	fp, r3
 800032e:	d433      	bmi.n	8000398 <__udivmoddi4+0xa0>
 8000330:	465a      	mov	r2, fp
 8000332:	4653      	mov	r3, sl
 8000334:	4093      	lsls	r3, r2
 8000336:	4642      	mov	r2, r8
 8000338:	001f      	movs	r7, r3
 800033a:	4653      	mov	r3, sl
 800033c:	4093      	lsls	r3, r2
 800033e:	001e      	movs	r6, r3
 8000340:	42af      	cmp	r7, r5
 8000342:	d83a      	bhi.n	80003ba <__udivmoddi4+0xc2>
 8000344:	42af      	cmp	r7, r5
 8000346:	d100      	bne.n	800034a <__udivmoddi4+0x52>
 8000348:	e078      	b.n	800043c <__udivmoddi4+0x144>
 800034a:	465b      	mov	r3, fp
 800034c:	1ba4      	subs	r4, r4, r6
 800034e:	41bd      	sbcs	r5, r7
 8000350:	2b00      	cmp	r3, #0
 8000352:	da00      	bge.n	8000356 <__udivmoddi4+0x5e>
 8000354:	e075      	b.n	8000442 <__udivmoddi4+0x14a>
 8000356:	2200      	movs	r2, #0
 8000358:	2300      	movs	r3, #0
 800035a:	9200      	str	r2, [sp, #0]
 800035c:	9301      	str	r3, [sp, #4]
 800035e:	2301      	movs	r3, #1
 8000360:	465a      	mov	r2, fp
 8000362:	4093      	lsls	r3, r2
 8000364:	9301      	str	r3, [sp, #4]
 8000366:	2301      	movs	r3, #1
 8000368:	4642      	mov	r2, r8
 800036a:	4093      	lsls	r3, r2
 800036c:	9300      	str	r3, [sp, #0]
 800036e:	e028      	b.n	80003c2 <__udivmoddi4+0xca>
 8000370:	4282      	cmp	r2, r0
 8000372:	d9cf      	bls.n	8000314 <__udivmoddi4+0x1c>
 8000374:	2200      	movs	r2, #0
 8000376:	2300      	movs	r3, #0
 8000378:	9200      	str	r2, [sp, #0]
 800037a:	9301      	str	r3, [sp, #4]
 800037c:	9b0c      	ldr	r3, [sp, #48]	; 0x30
 800037e:	2b00      	cmp	r3, #0
 8000380:	d001      	beq.n	8000386 <__udivmoddi4+0x8e>
 8000382:	601c      	str	r4, [r3, #0]
 8000384:	605d      	str	r5, [r3, #4]
 8000386:	9800      	ldr	r0, [sp, #0]
 8000388:	9901      	ldr	r1, [sp, #4]
 800038a:	b003      	add	sp, #12
 800038c:	bcf0      	pop	{r4, r5, r6, r7}
 800038e:	46bb      	mov	fp, r7
 8000390:	46b2      	mov	sl, r6
 8000392:	46a9      	mov	r9, r5
 8000394:	46a0      	mov	r8, r4
 8000396:	bdf0      	pop	{r4, r5, r6, r7, pc}
 8000398:	4642      	mov	r2, r8
 800039a:	2320      	movs	r3, #32
 800039c:	1a9b      	subs	r3, r3, r2
 800039e:	4652      	mov	r2, sl
 80003a0:	40da      	lsrs	r2, r3
 80003a2:	4641      	mov	r1, r8
 80003a4:	0013      	movs	r3, r2
 80003a6:	464a      	mov	r2, r9
 80003a8:	408a      	lsls	r2, r1
 80003aa:	0017      	movs	r7, r2
 80003ac:	4642      	mov	r2, r8
 80003ae:	431f      	orrs	r7, r3
 80003b0:	4653      	mov	r3, sl
 80003b2:	4093      	lsls	r3, r2
 80003b4:	001e      	movs	r6, r3
 80003b6:	42af      	cmp	r7, r5
 80003b8:	d9c4      	bls.n	8000344 <__udivmoddi4+0x4c>
 80003ba:	2200      	movs	r2, #0
 80003bc:	2300      	movs	r3, #0
 80003be:	9200      	str	r2, [sp, #0]
 80003c0:	9301      	str	r3, [sp, #4]
 80003c2:	4643      	mov	r3, r8
 80003c4:	2b00      	cmp	r3, #0
 80003c6:	d0d9      	beq.n	800037c <__udivmoddi4+0x84>
 80003c8:	07fb      	lsls	r3, r7, #31
 80003ca:	0872      	lsrs	r2, r6, #1
 80003cc:	431a      	orrs	r2, r3
 80003ce:	4646      	mov	r6, r8
 80003d0:	087b      	lsrs	r3, r7, #1
 80003d2:	e00e      	b.n	80003f2 <__udivmoddi4+0xfa>
 80003d4:	42ab      	cmp	r3, r5
 80003d6:	d101      	bne.n	80003dc <__udivmoddi4+0xe4>
 80003d8:	42a2      	cmp	r2, r4
 80003da:	d80c      	bhi.n	80003f6 <__udivmoddi4+0xfe>
 80003dc:	1aa4      	subs	r4, r4, r2
 80003de:	419d      	sbcs	r5, r3
 80003e0:	2001      	movs	r0, #1
 80003e2:	1924      	adds	r4, r4, r4
 80003e4:	416d      	adcs	r5, r5
 80003e6:	2100      	movs	r1, #0
 80003e8:	3e01      	subs	r6, #1
 80003ea:	1824      	adds	r4, r4, r0
 80003ec:	414d      	adcs	r5, r1
 80003ee:	2e00      	cmp	r6, #0
 80003f0:	d006      	beq.n	8000400 <__udivmoddi4+0x108>
 80003f2:	42ab      	cmp	r3, r5
 80003f4:	d9ee      	bls.n	80003d4 <__udivmoddi4+0xdc>
 80003f6:	3e01      	subs	r6, #1
 80003f8:	1924      	adds	r4, r4, r4
 80003fa:	416d      	adcs	r5, r5
 80003fc:	2e00      	cmp	r6, #0
 80003fe:	d1f8      	bne.n	80003f2 <__udivmoddi4+0xfa>
 8000400:	9800      	ldr	r0, [sp, #0]
 8000402:	9901      	ldr	r1, [sp, #4]
 8000404:	465b      	mov	r3, fp
 8000406:	1900      	adds	r0, r0, r4
 8000408:	4169      	adcs	r1, r5
 800040a:	2b00      	cmp	r3, #0
 800040c:	db24      	blt.n	8000458 <__udivmoddi4+0x160>
 800040e:	002b      	movs	r3, r5
 8000410:	465a      	mov	r2, fp
 8000412:	4644      	mov	r4, r8
 8000414:	40d3      	lsrs	r3, r2
 8000416:	002a      	movs	r2, r5
 8000418:	40e2      	lsrs	r2, r4
 800041a:	001c      	movs	r4, r3
 800041c:	465b      	mov	r3, fp
 800041e:	0015      	movs	r5, r2
 8000420:	2b00      	cmp	r3, #0
 8000422:	db2a      	blt.n	800047a <__udivmoddi4+0x182>
 8000424:	0026      	movs	r6, r4
 8000426:	409e      	lsls	r6, r3
 8000428:	0033      	movs	r3, r6
 800042a:	0026      	movs	r6, r4
 800042c:	4647      	mov	r7, r8
 800042e:	40be      	lsls	r6, r7
 8000430:	0032      	movs	r2, r6
 8000432:	1a80      	subs	r0, r0, r2
 8000434:	4199      	sbcs	r1, r3
 8000436:	9000      	str	r0, [sp, #0]
 8000438:	9101      	str	r1, [sp, #4]
 800043a:	e79f      	b.n	800037c <__udivmoddi4+0x84>
 800043c:	42a3      	cmp	r3, r4
 800043e:	d8bc      	bhi.n	80003ba <__udivmoddi4+0xc2>
 8000440:	e783      	b.n	800034a <__udivmoddi4+0x52>
 8000442:	4642      	mov	r2, r8
 8000444:	2320      	movs	r3, #32
 8000446:	2100      	movs	r1, #0
 8000448:	1a9b      	subs	r3, r3, r2
 800044a:	2200      	movs	r2, #0
 800044c:	9100      	str	r1, [sp, #0]
 800044e:	9201      	str	r2, [sp, #4]
 8000450:	2201      	movs	r2, #1
 8000452:	40da      	lsrs	r2, r3
 8000454:	9201      	str	r2, [sp, #4]
 8000456:	e786      	b.n	8000366 <__udivmoddi4+0x6e>
 8000458:	4642      	mov	r2, r8
 800045a:	2320      	movs	r3, #32
 800045c:	1a9b      	subs	r3, r3, r2
 800045e:	002a      	movs	r2, r5
 8000460:	4646      	mov	r6, r8
 8000462:	409a      	lsls	r2, r3
 8000464:	0023      	movs	r3, r4
 8000466:	40f3      	lsrs	r3, r6
 8000468:	4644      	mov	r4, r8
 800046a:	4313      	orrs	r3, r2
 800046c:	002a      	movs	r2, r5
 800046e:	40e2      	lsrs	r2, r4
 8000470:	001c      	movs	r4, r3
 8000472:	465b      	mov	r3, fp
 8000474:	0015      	movs	r5, r2
 8000476:	2b00      	cmp	r3, #0
 8000478:	dad4      	bge.n	8000424 <__udivmoddi4+0x12c>
 800047a:	4642      	mov	r2, r8
 800047c:	002f      	movs	r7, r5
 800047e:	2320      	movs	r3, #32
 8000480:	0026      	movs	r6, r4
 8000482:	4097      	lsls	r7, r2
 8000484:	1a9b      	subs	r3, r3, r2
 8000486:	40de      	lsrs	r6, r3
 8000488:	003b      	movs	r3, r7
 800048a:	4333      	orrs	r3, r6
 800048c:	e7cd      	b.n	800042a <__udivmoddi4+0x132>
 800048e:	46c0      	nop			; (mov r8, r8)

08000490 <__clzdi2>:
 8000490:	b510      	push	{r4, lr}
 8000492:	2900      	cmp	r1, #0
 8000494:	d103      	bne.n	800049e <__clzdi2+0xe>
 8000496:	f000 f807 	bl	80004a8 <__clzsi2>
 800049a:	3020      	adds	r0, #32
 800049c:	e002      	b.n	80004a4 <__clzdi2+0x14>
 800049e:	0008      	movs	r0, r1
 80004a0:	f000 f802 	bl	80004a8 <__clzsi2>
 80004a4:	bd10      	pop	{r4, pc}
 80004a6:	46c0      	nop			; (mov r8, r8)

080004a8 <__clzsi2>:
 80004a8:	211c      	movs	r1, #28
 80004aa:	2301      	movs	r3, #1
 80004ac:	041b      	lsls	r3, r3, #16
 80004ae:	4298      	cmp	r0, r3
 80004b0:	d301      	bcc.n	80004b6 <__clzsi2+0xe>
 80004b2:	0c00      	lsrs	r0, r0, #16
 80004b4:	3910      	subs	r1, #16
 80004b6:	0a1b      	lsrs	r3, r3, #8
 80004b8:	4298      	cmp	r0, r3
 80004ba:	d301      	bcc.n	80004c0 <__clzsi2+0x18>
 80004bc:	0a00      	lsrs	r0, r0, #8
 80004be:	3908      	subs	r1, #8
 80004c0:	091b      	lsrs	r3, r3, #4
 80004c2:	4298      	cmp	r0, r3
 80004c4:	d301      	bcc.n	80004ca <__clzsi2+0x22>
 80004c6:	0900      	lsrs	r0, r0, #4
 80004c8:	3904      	subs	r1, #4
 80004ca:	a202      	add	r2, pc, #8	; (adr r2, 80004d4 <__clzsi2+0x2c>)
 80004cc:	5c10      	ldrb	r0, [r2, r0]
 80004ce:	1840      	adds	r0, r0, r1
 80004d0:	4770      	bx	lr
 80004d2:	46c0      	nop			; (mov r8, r8)
 80004d4:	02020304 	.word	0x02020304
 80004d8:	01010101 	.word	0x01010101
	...

080004e4 <DS3231_set_time>:

void DS3231_set_time(uint8_t sec, uint8_t minute, uint8_t hour)
{
  uint8_t buffer[4];

  buffer[0] = SECONDS_AD;
 80004e4:	2300      	movs	r3, #0
{
 80004e6:	b5f0      	push	{r4, r5, r6, r7, lr}
 80004e8:	b087      	sub	sp, #28
  buffer[0] = SECONDS_AD;
 80004ea:	ac05      	add	r4, sp, #20
{
 80004ec:	000e      	movs	r6, r1
  buffer[1] = ((sec/10)<<4) + (sec%10);
 80004ee:	210a      	movs	r1, #10
{
 80004f0:	0015      	movs	r5, r2
 80004f2:	0007      	movs	r7, r0
  buffer[0] = SECONDS_AD;
 80004f4:	7023      	strb	r3, [r4, #0]
  buffer[1] = ((sec/10)<<4) + (sec%10);
 80004f6:	f7ff fe25 	bl	8000144 <__udivsi3>
 80004fa:	210a      	movs	r1, #10
 80004fc:	0103      	lsls	r3, r0, #4
 80004fe:	0038      	movs	r0, r7
 8000500:	9303      	str	r3, [sp, #12]
 8000502:	f7ff fea5 	bl	8000250 <__aeabi_uidivmod>
 8000506:	9b03      	ldr	r3, [sp, #12]
  buffer[2] = ((minute/10)<<4) + (minute%10);
 8000508:	0030      	movs	r0, r6
  buffer[1] = ((sec/10)<<4) + (sec%10);
 800050a:	1859      	adds	r1, r3, r1
 800050c:	7061      	strb	r1, [r4, #1]
  buffer[2] = ((minute/10)<<4) + (minute%10);
 800050e:	210a      	movs	r1, #10
 8000510:	f7ff fe18 	bl	8000144 <__udivsi3>
 8000514:	210a      	movs	r1, #10
 8000516:	0107      	lsls	r7, r0, #4
 8000518:	0030      	movs	r0, r6
 800051a:	f7ff fe99 	bl	8000250 <__aeabi_uidivmod>
  buffer[3] = (((hour/10)&0x03)<<4) + (hour%10);
 800051e:	0028      	movs	r0, r5
  buffer[2] = ((minute/10)<<4) + (minute%10);
 8000520:	187f      	adds	r7, r7, r1
  buffer[3] = (((hour/10)&0x03)<<4) + (hour%10);
 8000522:	210a      	movs	r1, #10
  buffer[2] = ((minute/10)<<4) + (minute%10);
 8000524:	70a7      	strb	r7, [r4, #2]
  buffer[3] = (((hour/10)&0x03)<<4) + (hour%10);
 8000526:	f7ff fe0d 	bl	8000144 <__udivsi3>
 800052a:	0106      	lsls	r6, r0, #4
 800052c:	2030      	movs	r0, #48	; 0x30
 800052e:	210a      	movs	r1, #10
 8000530:	4006      	ands	r6, r0
 8000532:	0028      	movs	r0, r5
 8000534:	f7ff fe8c 	bl	8000250 <__aeabi_uidivmod>

  HAL_I2C_Master_Transmit(&hi2c1, DS3231_AD | 0x00, &buffer[0], 4, 100);
 8000538:	2364      	movs	r3, #100	; 0x64
  buffer[3] = (((hour/10)&0x03)<<4) + (hour%10);
 800053a:	1876      	adds	r6, r6, r1
 800053c:	70e6      	strb	r6, [r4, #3]
  HAL_I2C_Master_Transmit(&hi2c1, DS3231_AD | 0x00, &buffer[0], 4, 100);
 800053e:	0022      	movs	r2, r4
 8000540:	9300      	str	r3, [sp, #0]
 8000542:	21d0      	movs	r1, #208	; 0xd0
 8000544:	3b60      	subs	r3, #96	; 0x60
 8000546:	4802      	ldr	r0, [pc, #8]	; (8000550 <DS3231_set_time+0x6c>)
 8000548:	f003 f9e4 	bl	8003914 <HAL_I2C_Master_Transmit>
}
 800054c:	b007      	add	sp, #28
 800054e:	bdf0      	pop	{r4, r5, r6, r7, pc}
 8000550:	20000508 	.word	0x20000508

08000554 <DS3231_get_time>:

void DS3231_get_time(uint8_t *get_second, uint8_t *get_minute, uint8_t *get_hour)
{
  uint8_t buffer;

  buffer = SECONDS_AD;
 8000554:	2300      	movs	r3, #0
{
 8000556:	b5f0      	push	{r4, r5, r6, r7, lr}
 8000558:	b087      	sub	sp, #28
 800055a:	0016      	movs	r6, r2
  buffer = SECONDS_AD;
 800055c:	aa02      	add	r2, sp, #8
  HAL_I2C_Master_Transmit(&hi2c1, DS3231_AD | 0x01, &buffer, 1, 100);
 800055e:	2564      	movs	r5, #100	; 0x64
  buffer = SECONDS_AD;
 8000560:	73d3      	strb	r3, [r2, #15]
  HAL_I2C_Master_Transmit(&hi2c1, DS3231_AD | 0x01, &buffer, 1, 100);
 8000562:	220f      	movs	r2, #15
 8000564:	4c29      	ldr	r4, [pc, #164]	; (800060c <DS3231_get_time+0xb8>)
{
 8000566:	9103      	str	r1, [sp, #12]
  HAL_I2C_Master_Transmit(&hi2c1, DS3231_AD | 0x01, &buffer, 1, 100);
 8000568:	a902      	add	r1, sp, #8
{
 800056a:	9002      	str	r0, [sp, #8]
  HAL_I2C_Master_Transmit(&hi2c1, DS3231_AD | 0x01, &buffer, 1, 100);
 800056c:	1852      	adds	r2, r2, r1
 800056e:	0020      	movs	r0, r4
 8000570:	21d1      	movs	r1, #209	; 0xd1
 8000572:	9500      	str	r5, [sp, #0]
 8000574:	3301      	adds	r3, #1
 8000576:	f003 f9cd 	bl	8003914 <HAL_I2C_Master_Transmit>
  HAL_I2C_Master_Receive(&hi2c1, DS3231_AD | 0x01, get_second, 1, 100);
 800057a:	9a02      	ldr	r2, [sp, #8]
 800057c:	2301      	movs	r3, #1
 800057e:	21d1      	movs	r1, #209	; 0xd1
 8000580:	0020      	movs	r0, r4
 8000582:	9500      	str	r5, [sp, #0]
 8000584:	f003 fa58 	bl	8003a38 <HAL_I2C_Master_Receive>

  buffer = MINUTES_AD;
 8000588:	2701      	movs	r7, #1
  HAL_I2C_Master_Transmit(&hi2c1, DS3231_AD | 0x01, &buffer, 1, 100);
 800058a:	220f      	movs	r2, #15
  buffer = MINUTES_AD;
 800058c:	ab02      	add	r3, sp, #8
  HAL_I2C_Master_Transmit(&hi2c1, DS3231_AD | 0x01, &buffer, 1, 100);
 800058e:	a902      	add	r1, sp, #8
  buffer = MINUTES_AD;
 8000590:	73df      	strb	r7, [r3, #15]
  HAL_I2C_Master_Transmit(&hi2c1, DS3231_AD | 0x01, &buffer, 1, 100);
 8000592:	1852      	adds	r2, r2, r1
 8000594:	003b      	movs	r3, r7
 8000596:	21d1      	movs	r1, #209	; 0xd1
 8000598:	0020      	movs	r0, r4
 800059a:	9500      	str	r5, [sp, #0]
 800059c:	f003 f9ba 	bl	8003914 <HAL_I2C_Master_Transmit>
  HAL_I2C_Master_Receive(&hi2c1, DS3231_AD | 0x01, get_minute, 1, 100);
 80005a0:	003b      	movs	r3, r7
 80005a2:	9a03      	ldr	r2, [sp, #12]
 80005a4:	21d1      	movs	r1, #209	; 0xd1
 80005a6:	0020      	movs	r0, r4
 80005a8:	9500      	str	r5, [sp, #0]
 80005aa:	f003 fa45 	bl	8003a38 <HAL_I2C_Master_Receive>

  buffer = HOURS_AD;
 80005ae:	2302      	movs	r3, #2
 80005b0:	aa02      	add	r2, sp, #8
 80005b2:	73d3      	strb	r3, [r2, #15]
  HAL_I2C_Master_Transmit(&hi2c1, DS3231_AD | 0x01, &buffer, 1, 100);
 80005b4:	220f      	movs	r2, #15
 80005b6:	a902      	add	r1, sp, #8
 80005b8:	003b      	movs	r3, r7
 80005ba:	1852      	adds	r2, r2, r1
 80005bc:	0020      	movs	r0, r4
 80005be:	21d1      	movs	r1, #209	; 0xd1
 80005c0:	9500      	str	r5, [sp, #0]
 80005c2:	f003 f9a7 	bl	8003914 <HAL_I2C_Master_Transmit>
  HAL_I2C_Master_Receive(&hi2c1, DS3231_AD | 0x01, get_hour, 1, 100);
 80005c6:	003b      	movs	r3, r7
 80005c8:	0032      	movs	r2, r6
 80005ca:	21d1      	movs	r1, #209	; 0xd1
 80005cc:	0020      	movs	r0, r4
 80005ce:	9500      	str	r5, [sp, #0]
 80005d0:	f003 fa32 	bl	8003a38 <HAL_I2C_Master_Receive>

  *get_hour = (((*get_hour & 0x30) >> 4) * 10) + (*get_hour & 0x0f);
 80005d4:	230a      	movs	r3, #10
 80005d6:	210f      	movs	r1, #15
 80005d8:	7830      	ldrb	r0, [r6, #0]
 80005da:	0682      	lsls	r2, r0, #26
 80005dc:	0f92      	lsrs	r2, r2, #30
 80005de:	435a      	muls	r2, r3
 80005e0:	4008      	ands	r0, r1
 80005e2:	1812      	adds	r2, r2, r0
 80005e4:	7032      	strb	r2, [r6, #0]
  *get_minute = ((*get_minute >> 4) * 10) + (*get_minute & 0x0f);
 80005e6:	9a03      	ldr	r2, [sp, #12]
 80005e8:	7810      	ldrb	r0, [r2, #0]
 80005ea:	0902      	lsrs	r2, r0, #4
 80005ec:	435a      	muls	r2, r3
 80005ee:	4008      	ands	r0, r1
 80005f0:	1812      	adds	r2, r2, r0
 80005f2:	9803      	ldr	r0, [sp, #12]
 80005f4:	7002      	strb	r2, [r0, #0]
  *get_second = ((*get_second >> 4) * 10) + (*get_second & 0x0f);
 80005f6:	9a02      	ldr	r2, [sp, #8]
 80005f8:	7812      	ldrb	r2, [r2, #0]
 80005fa:	0910      	lsrs	r0, r2, #4
 80005fc:	4343      	muls	r3, r0
 80005fe:	400a      	ands	r2, r1
 8000600:	189b      	adds	r3, r3, r2
 8000602:	9a02      	ldr	r2, [sp, #8]
 8000604:	7013      	strb	r3, [r2, #0]
}
 8000606:	b007      	add	sp, #28
 8000608:	bdf0      	pop	{r4, r5, r6, r7, pc}
 800060a:	46c0      	nop			; (mov r8, r8)
 800060c:	20000508 	.word	0x20000508

08000610 <DS3231_set_date>:

void DS3231_set_date(uint8_t day, uint8_t month, uint8_t year)
{
  uint8_t buffer[4];

  buffer[0] = DATE_AD;
 8000610:	2304      	movs	r3, #4
{
 8000612:	b5f0      	push	{r4, r5, r6, r7, lr}
 8000614:	b087      	sub	sp, #28
  buffer[0] = DATE_AD;
 8000616:	ac05      	add	r4, sp, #20
{
 8000618:	000e      	movs	r6, r1
  buffer[1] = ((day/10)<<4) + (day%10);
 800061a:	210a      	movs	r1, #10
{
 800061c:	0015      	movs	r5, r2
 800061e:	0007      	movs	r7, r0
  buffer[0] = DATE_AD;
 8000620:	7023      	strb	r3, [r4, #0]
  buffer[1] = ((day/10)<<4) + (day%10);
 8000622:	f7ff fd8f 	bl	8000144 <__udivsi3>
 8000626:	210a      	movs	r1, #10
 8000628:	0103      	lsls	r3, r0, #4
 800062a:	0038      	movs	r0, r7
 800062c:	9303      	str	r3, [sp, #12]
 800062e:	f7ff fe0f 	bl	8000250 <__aeabi_uidivmod>
 8000632:	9b03      	ldr	r3, [sp, #12]
  buffer[2] = ((month/10)<<4) + (month%10);
 8000634:	0030      	movs	r0, r6
  buffer[1] = ((day/10)<<4) + (day%10);
 8000636:	1859      	adds	r1, r3, r1
 8000638:	7061      	strb	r1, [r4, #1]
  buffer[2] = ((month/10)<<4) + (month%10);
 800063a:	210a      	movs	r1, #10
 800063c:	f7ff fd82 	bl	8000144 <__udivsi3>
 8000640:	210a      	movs	r1, #10
 8000642:	0107      	lsls	r7, r0, #4
 8000644:	0030      	movs	r0, r6
 8000646:	f7ff fe03 	bl	8000250 <__aeabi_uidivmod>
  buffer[3] = (((year/10)&0x03)<<4) + (year%10);
 800064a:	0028      	movs	r0, r5
  buffer[2] = ((month/10)<<4) + (month%10);
 800064c:	187f      	adds	r7, r7, r1
  buffer[3] = (((year/10)&0x03)<<4) + (year%10);
 800064e:	210a      	movs	r1, #10
  buffer[2] = ((month/10)<<4) + (month%10);
 8000650:	70a7      	strb	r7, [r4, #2]
  buffer[3] = (((year/10)&0x03)<<4) + (year%10);
 8000652:	f7ff fd77 	bl	8000144 <__udivsi3>
 8000656:	0106      	lsls	r6, r0, #4
 8000658:	2030      	movs	r0, #48	; 0x30
 800065a:	210a      	movs	r1, #10
 800065c:	4006      	ands	r6, r0
 800065e:	0028      	movs	r0, r5
 8000660:	f7ff fdf6 	bl	8000250 <__aeabi_uidivmod>

  HAL_I2C_Master_Transmit(&hi2c1, DS3231_AD | 0x00, &buffer[0], 4, 100);
 8000664:	2364      	movs	r3, #100	; 0x64
  buffer[3] = (((year/10)&0x03)<<4) + (year%10);
 8000666:	1876      	adds	r6, r6, r1
 8000668:	70e6      	strb	r6, [r4, #3]
  HAL_I2C_Master_Transmit(&hi2c1, DS3231_AD | 0x00, &buffer[0], 4, 100);
 800066a:	0022      	movs	r2, r4
 800066c:	9300      	str	r3, [sp, #0]
 800066e:	21d0      	movs	r1, #208	; 0xd0
 8000670:	3b60      	subs	r3, #96	; 0x60
 8000672:	4802      	ldr	r0, [pc, #8]	; (800067c <DS3231_set_date+0x6c>)
 8000674:	f003 f94e 	bl	8003914 <HAL_I2C_Master_Transmit>
}
 8000678:	b007      	add	sp, #28
 800067a:	bdf0      	pop	{r4, r5, r6, r7, pc}
 800067c:	20000508 	.word	0x20000508

08000680 <DS3231_get_date>:

void DS3231_get_date(uint8_t *get_day, uint8_t *get_month, uint8_t *get_year)
{
  uint8_t buffer;

  buffer = DATE_AD;
 8000680:	2304      	movs	r3, #4
{
 8000682:	b5f0      	push	{r4, r5, r6, r7, lr}
 8000684:	b087      	sub	sp, #28
 8000686:	9203      	str	r2, [sp, #12]
  buffer = DATE_AD;
 8000688:	aa02      	add	r2, sp, #8
  HAL_I2C_Master_Transmit(&hi2c1, DS3231_AD | 0x01, &buffer, 1, 100);
 800068a:	2564      	movs	r5, #100	; 0x64
  buffer = DATE_AD;
 800068c:	73d3      	strb	r3, [r2, #15]
  HAL_I2C_Master_Transmit(&hi2c1, DS3231_AD | 0x01, &buffer, 1, 100);
 800068e:	220f      	movs	r2, #15
{
 8000690:	0007      	movs	r7, r0
  HAL_I2C_Master_Transmit(&hi2c1, DS3231_AD | 0x01, &buffer, 1, 100);
 8000692:	4c28      	ldr	r4, [pc, #160]	; (8000734 <DS3231_get_date+0xb4>)
{
 8000694:	000e      	movs	r6, r1
  HAL_I2C_Master_Transmit(&hi2c1, DS3231_AD | 0x01, &buffer, 1, 100);
 8000696:	a902      	add	r1, sp, #8
 8000698:	1852      	adds	r2, r2, r1
 800069a:	0020      	movs	r0, r4
 800069c:	21d1      	movs	r1, #209	; 0xd1
 800069e:	9500      	str	r5, [sp, #0]
 80006a0:	3b03      	subs	r3, #3
 80006a2:	f003 f937 	bl	8003914 <HAL_I2C_Master_Transmit>
  HAL_I2C_Master_Receive(&hi2c1, DS3231_AD | 0x01, get_day, 1, 100);
 80006a6:	003a      	movs	r2, r7
 80006a8:	2301      	movs	r3, #1
 80006aa:	21d1      	movs	r1, #209	; 0xd1
 80006ac:	0020      	movs	r0, r4
 80006ae:	9500      	str	r5, [sp, #0]
 80006b0:	f003 f9c2 	bl	8003a38 <HAL_I2C_Master_Receive>

  buffer = MONTH_AD;
 80006b4:	2305      	movs	r3, #5
 80006b6:	aa02      	add	r2, sp, #8
 80006b8:	73d3      	strb	r3, [r2, #15]
  HAL_I2C_Master_Transmit(&hi2c1, DS3231_AD | 0x01, &buffer, 1, 100);
 80006ba:	220f      	movs	r2, #15
 80006bc:	a902      	add	r1, sp, #8
 80006be:	1852      	adds	r2, r2, r1
 80006c0:	0020      	movs	r0, r4
 80006c2:	21d1      	movs	r1, #209	; 0xd1
 80006c4:	9500      	str	r5, [sp, #0]
 80006c6:	3b04      	subs	r3, #4
 80006c8:	f003 f924 	bl	8003914 <HAL_I2C_Master_Transmit>
  HAL_I2C_Master_Receive(&hi2c1, DS3231_AD | 0x01, get_month, 1, 100);
 80006cc:	0032      	movs	r2, r6
 80006ce:	2301      	movs	r3, #1
 80006d0:	21d1      	movs	r1, #209	; 0xd1
 80006d2:	0020      	movs	r0, r4
 80006d4:	9500      	str	r5, [sp, #0]
 80006d6:	f003 f9af 	bl	8003a38 <HAL_I2C_Master_Receive>

  buffer = YEAR_AD;
 80006da:	2306      	movs	r3, #6
 80006dc:	aa02      	add	r2, sp, #8
 80006de:	73d3      	strb	r3, [r2, #15]
  HAL_I2C_Master_Transmit(&hi2c1, DS3231_AD | 0x01, &buffer, 1, 100);
 80006e0:	220f      	movs	r2, #15
 80006e2:	a902      	add	r1, sp, #8
 80006e4:	1852      	adds	r2, r2, r1
 80006e6:	0020      	movs	r0, r4
 80006e8:	21d1      	movs	r1, #209	; 0xd1
 80006ea:	9500      	str	r5, [sp, #0]
 80006ec:	3b05      	subs	r3, #5
 80006ee:	f003 f911 	bl	8003914 <HAL_I2C_Master_Transmit>
  HAL_I2C_Master_Receive(&hi2c1, DS3231_AD | 0x01, get_year, 1, 100);
 80006f2:	9a03      	ldr	r2, [sp, #12]
 80006f4:	2301      	movs	r3, #1
 80006f6:	21d1      	movs	r1, #209	; 0xd1
 80006f8:	0020      	movs	r0, r4
 80006fa:	9500      	str	r5, [sp, #0]
 80006fc:	f003 f99c 	bl	8003a38 <HAL_I2C_Master_Receive>

  *get_day = ((*get_day >> 4) * 10) + (*get_day & 0x0f);
 8000700:	230a      	movs	r3, #10
 8000702:	210f      	movs	r1, #15
 8000704:	7838      	ldrb	r0, [r7, #0]
 8000706:	0902      	lsrs	r2, r0, #4
 8000708:	435a      	muls	r2, r3
 800070a:	4008      	ands	r0, r1
 800070c:	1812      	adds	r2, r2, r0
 800070e:	703a      	strb	r2, [r7, #0]
  *get_month = (((*get_month & 0x10) >> 4) * 10) + (*get_month & 0x0f);
 8000710:	7830      	ldrb	r0, [r6, #0]
 8000712:	06c2      	lsls	r2, r0, #27
 8000714:	0fd2      	lsrs	r2, r2, #31
 8000716:	435a      	muls	r2, r3
 8000718:	4008      	ands	r0, r1
 800071a:	1812      	adds	r2, r2, r0
 800071c:	7032      	strb	r2, [r6, #0]
  *get_year = ((*get_year >> 4) * 10) + (*get_year & 0x0f);
 800071e:	9a03      	ldr	r2, [sp, #12]
 8000720:	7812      	ldrb	r2, [r2, #0]
 8000722:	0910      	lsrs	r0, r2, #4
 8000724:	4343      	muls	r3, r0
 8000726:	400a      	ands	r2, r1
 8000728:	189b      	adds	r3, r3, r2
 800072a:	9a03      	ldr	r2, [sp, #12]
 800072c:	7013      	strb	r3, [r2, #0]
}
 800072e:	b007      	add	sp, #28
 8000730:	bdf0      	pop	{r4, r5, r6, r7, pc}
 8000732:	46c0      	nop			; (mov r8, r8)
 8000734:	20000508 	.word	0x20000508

08000738 <led_color>:
		2290665676, 2357774540, 3364407500, 3431516364, 2290927820, 2358036684, 3364669644, 3431778508,
		2294859980, 2361968844, 3368601804, 3435710668, 2295122124, 2362230988, 3368863948, 3435972812,
		2290666700, 2357775564, 3364408524, 3431517388, 2290928844, 2358037708, 3364670668, 3431779532,
		2294861004, 2361969868, 3368602828, 3435711692, 2295123148, 2362232012, 3368864972, 3435973836
};
void led_color(uint8_t id, uint8_t r, uint8_t g, uint8_t b){
 8000738:	b530      	push	{r4, r5, lr}
	ledData[id][0]=g;
 800073a:	250c      	movs	r5, #12
 800073c:	4368      	muls	r0, r5
 800073e:	4c03      	ldr	r4, [pc, #12]	; (800074c <led_color+0x14>)
 8000740:	5022      	str	r2, [r4, r0]
	ledData[id][1]=r;
 8000742:	1824      	adds	r4, r4, r0
 8000744:	6061      	str	r1, [r4, #4]
	ledData[id][2]=b;
 8000746:	60a3      	str	r3, [r4, #8]
}
 8000748:	bd30      	pop	{r4, r5, pc}
 800074a:	46c0      	nop			; (mov r8, r8)
 800074c:	200000cc 	.word	0x200000cc

08000750 <led_update>:
void led_update(){
	for(int i=0; i<36; i++){
 8000750:	4b10      	ldr	r3, [pc, #64]	; (8000794 <led_update+0x44>)
 8000752:	2000      	movs	r0, #0
 8000754:	0019      	movs	r1, r3
void led_update(){
 8000756:	b570      	push	{r4, r5, r6, lr}
 8000758:	4a0f      	ldr	r2, [pc, #60]	; (8000798 <led_update+0x48>)
		spiBf[(i*3)]=colLUT[ledData[i][0]];
 800075a:	4c10      	ldr	r4, [pc, #64]	; (800079c <led_update+0x4c>)
 800075c:	6815      	ldr	r5, [r2, #0]
	for(int i=0; i<36; i++){
 800075e:	3001      	adds	r0, #1
		spiBf[(i*3)]=colLUT[ledData[i][0]];
 8000760:	00ad      	lsls	r5, r5, #2
 8000762:	592d      	ldr	r5, [r5, r4]
 8000764:	601d      	str	r5, [r3, #0]
		spiBf[(i*3)+1]=colLUT[ledData[i][1]];
 8000766:	6855      	ldr	r5, [r2, #4]
 8000768:	00ad      	lsls	r5, r5, #2
 800076a:	592d      	ldr	r5, [r5, r4]
 800076c:	605d      	str	r5, [r3, #4]
		spiBf[(i*3)+2]=colLUT[ledData[i][2]];
 800076e:	6895      	ldr	r5, [r2, #8]
	for(int i=0; i<36; i++){
 8000770:	320c      	adds	r2, #12
		spiBf[(i*3)+2]=colLUT[ledData[i][2]];
 8000772:	00ad      	lsls	r5, r5, #2
 8000774:	592d      	ldr	r5, [r5, r4]
 8000776:	609d      	str	r5, [r3, #8]
	for(int i=0; i<36; i++){
 8000778:	330c      	adds	r3, #12
 800077a:	2824      	cmp	r0, #36	; 0x24
 800077c:	d1ee      	bne.n	800075c <led_update+0xc>
	}
	spiBf[108]=0;
 800077e:	23d8      	movs	r3, #216	; 0xd8
 8000780:	2200      	movs	r2, #0
 8000782:	005b      	lsls	r3, r3, #1
 8000784:	50ca      	str	r2, [r1, r3]
	HAL_SPI_Transmit_DMA(&hspi1, (uint8_t*)spiBf, 436);
 8000786:	32b5      	adds	r2, #181	; 0xb5
 8000788:	32ff      	adds	r2, #255	; 0xff
 800078a:	4805      	ldr	r0, [pc, #20]	; (80007a0 <led_update+0x50>)
 800078c:	f004 f82e 	bl	80047ec <HAL_SPI_Transmit_DMA>
}
 8000790:	bd70      	pop	{r4, r5, r6, pc}
 8000792:	46c0      	nop			; (mov r8, r8)
 8000794:	2000027c 	.word	0x2000027c
 8000798:	200000cc 	.word	0x200000cc
 800079c:	080056ec 	.word	0x080056ec
 80007a0:	20000554 	.word	0x20000554

080007a4 <led_clear>:
void led_clear(){
	memset(ledData,0,sizeof(ledData));
 80007a4:	22d8      	movs	r2, #216	; 0xd8
void led_clear(){
 80007a6:	b510      	push	{r4, lr}
	memset(ledData,0,sizeof(ledData));
 80007a8:	2100      	movs	r1, #0
 80007aa:	4802      	ldr	r0, [pc, #8]	; (80007b4 <led_clear+0x10>)
 80007ac:	0052      	lsls	r2, r2, #1
 80007ae:	f004 fb11 	bl	8004dd4 <memset>
	//	led_update();
}
 80007b2:	bd10      	pop	{r4, pc}
 80007b4:	200000cc 	.word	0x200000cc

080007b8 <led_cmp>:
uint8_t led_cmp(uint8_t id, uint8_t r, uint8_t g, uint8_t b){
 80007b8:	b5f0      	push	{r4, r5, r6, r7, lr}
	uint8_t result = 0;

	if(ledData[id][0]==g){
 80007ba:	260c      	movs	r6, #12
 80007bc:	0037      	movs	r7, r6
 80007be:	4347      	muls	r7, r0
 80007c0:	4c08      	ldr	r4, [pc, #32]	; (80007e4 <led_cmp+0x2c>)
 80007c2:	5938      	ldr	r0, [r7, r4]
		result++;
	}
	if(ledData[id][1]==r){
 80007c4:	19e7      	adds	r7, r4, r7
	if(ledData[id][0]==g){
 80007c6:	1a80      	subs	r0, r0, r2
 80007c8:	4242      	negs	r2, r0
 80007ca:	4150      	adcs	r0, r2
	if(ledData[id][1]==r){
 80007cc:	687a      	ldr	r2, [r7, #4]
	uint8_t result = 0;
 80007ce:	b2c0      	uxtb	r0, r0
		result++;
 80007d0:	1a52      	subs	r2, r2, r1
 80007d2:	4251      	negs	r1, r2
 80007d4:	414a      	adcs	r2, r1
 80007d6:	1880      	adds	r0, r0, r2
	}
	if(ledData[id][2]==b){
 80007d8:	68ba      	ldr	r2, [r7, #8]
 80007da:	429a      	cmp	r2, r3
 80007dc:	d101      	bne.n	80007e2 <led_cmp+0x2a>
		result++;
 80007de:	3001      	adds	r0, #1
 80007e0:	b2c0      	uxtb	r0, r0
	}

	return result;
}
 80007e2:	bdf0      	pop	{r4, r5, r6, r7, pc}
 80007e4:	200000cc 	.word	0x200000cc

080007e8 <SSD1306_PutsXY>:

/* USER CODE END PFP */

/* Private user code ---------------------------------------------------------*/
/* USER CODE BEGIN 0 */
void SSD1306_PutsXY(uint8_t x, uint8_t y, String str, uint8_t color) {
 80007e8:	b570      	push	{r4, r5, r6, lr}
 80007ea:	001d      	movs	r5, r3
	SSD1306_GotoXY(x * 6, y * 8);
 80007ec:	2306      	movs	r3, #6
void SSD1306_PutsXY(uint8_t x, uint8_t y, String str, uint8_t color) {
 80007ee:	0014      	movs	r4, r2
	SSD1306_GotoXY(x * 6, y * 8);
 80007f0:	4358      	muls	r0, r3
 80007f2:	00c9      	lsls	r1, r1, #3
 80007f4:	f001 fe92 	bl	800251c <SSD1306_GotoXY>
	SSD1306_Puts(str, &Font_6x8, color);
 80007f8:	002a      	movs	r2, r5
 80007fa:	0020      	movs	r0, r4
 80007fc:	4901      	ldr	r1, [pc, #4]	; (8000804 <SSD1306_PutsXY+0x1c>)
 80007fe:	f001 fec9 	bl	8002594 <SSD1306_Puts>
}
 8000802:	bd70      	pop	{r4, r5, r6, pc}
 8000804:	20000000 	.word	0x20000000

08000808 <basicScreen>:

void basicScreen(){
 8000808:	b507      	push	{r0, r1, r2, lr}
	SSD1306_Fill(0);
 800080a:	2000      	movs	r0, #0
 800080c:	f001 fe50 	bl	80024b0 <SSD1306_Fill>
	SSD1306_DrawFilledRectangle(0, 0, 127, 7, 1);
 8000810:	2301      	movs	r3, #1
 8000812:	2100      	movs	r1, #0
 8000814:	9300      	str	r3, [sp, #0]
 8000816:	227f      	movs	r2, #127	; 0x7f
 8000818:	0008      	movs	r0, r1
 800081a:	3306      	adds	r3, #6
 800081c:	f001 ff67 	bl	80026ee <SSD1306_DrawFilledRectangle>
}
 8000820:	bd07      	pop	{r0, r1, r2, pc}
	...

08000824 <swS>:

void swS(){
	oldsw = JOY_P ? true : false;
 8000824:	20a0      	movs	r0, #160	; 0xa0
void swS(){
 8000826:	b510      	push	{r4, lr}
	oldsw = JOY_P ? true : false;
 8000828:	2104      	movs	r1, #4
 800082a:	05c0      	lsls	r0, r0, #23
 800082c:	f002 fef0 	bl	8003610 <HAL_GPIO_ReadPin>
 8000830:	4243      	negs	r3, r0
 8000832:	4158      	adcs	r0, r3
 8000834:	4b01      	ldr	r3, [pc, #4]	; (800083c <swS+0x18>)
 8000836:	7018      	strb	r0, [r3, #0]
}
 8000838:	bd10      	pop	{r4, pc}
 800083a:	46c0      	nop			; (mov r8, r8)
 800083c:	20000028 	.word	0x20000028

08000840 <HAL_TIM_PeriodElapsedCallback>:

void HAL_TIM_PeriodElapsedCallback(TIM_HandleTypeDef *htim) {
	static uint16_t buzC;
	if (htim->Instance == TIM2) {
 8000840:	2380      	movs	r3, #128	; 0x80
 8000842:	6802      	ldr	r2, [r0, #0]
void HAL_TIM_PeriodElapsedCallback(TIM_HandleTypeDef *htim) {
 8000844:	b570      	push	{r4, r5, r6, lr}
	if (htim->Instance == TIM2) {
 8000846:	05db      	lsls	r3, r3, #23
 8000848:	429a      	cmp	r2, r3
 800084a:	d152      	bne.n	80008f2 <HAL_TIM_PeriodElapsedCallback+0xb2>
		reC++;
 800084c:	4a2d      	ldr	r2, [pc, #180]	; (8000904 <HAL_TIM_PeriodElapsedCallback+0xc4>)
 800084e:	492e      	ldr	r1, [pc, #184]	; (8000908 <HAL_TIM_PeriodElapsedCallback+0xc8>)
 8000850:	7813      	ldrb	r3, [r2, #0]
 8000852:	3301      	adds	r3, #1
 8000854:	7013      	strb	r3, [r2, #0]

		if(modeFlag == FINDR || modeFlag == PARTITION) ledC++;
 8000856:	4b2d      	ldr	r3, [pc, #180]	; (800090c <HAL_TIM_PeriodElapsedCallback+0xcc>)
 8000858:	781a      	ldrb	r2, [r3, #0]
		else ledC = 0;
 800085a:	2300      	movs	r3, #0
		if(modeFlag == FINDR || modeFlag == PARTITION) ledC++;
 800085c:	3a06      	subs	r2, #6
 800085e:	2a01      	cmp	r2, #1
 8000860:	d802      	bhi.n	8000868 <HAL_TIM_PeriodElapsedCallback+0x28>
 8000862:	880b      	ldrh	r3, [r1, #0]
 8000864:	3301      	adds	r3, #1
 8000866:	b29b      	uxth	r3, r3

		HAL_ADC_Start(&hadc);
 8000868:	4c29      	ldr	r4, [pc, #164]	; (8000910 <HAL_TIM_PeriodElapsedCallback+0xd0>)
 800086a:	800b      	strh	r3, [r1, #0]
 800086c:	0020      	movs	r0, r4
 800086e:	f002 fb2b 	bl	8002ec8 <HAL_ADC_Start>
		HAL_ADC_PollForConversion(&hadc, 10);
 8000872:	210a      	movs	r1, #10
 8000874:	0020      	movs	r0, r4
 8000876:	f002 fb53 	bl	8002f20 <HAL_ADC_PollForConversion>
		adc[0] = HAL_ADC_GetValue(&hadc);
 800087a:	0020      	movs	r0, r4
 800087c:	f002 fbb4 	bl	8002fe8 <HAL_ADC_GetValue>
 8000880:	4d24      	ldr	r5, [pc, #144]	; (8000914 <HAL_TIM_PeriodElapsedCallback+0xd4>)
		HAL_ADC_PollForConversion(&hadc, 10);
 8000882:	210a      	movs	r1, #10
		adc[0] = HAL_ADC_GetValue(&hadc);
 8000884:	8028      	strh	r0, [r5, #0]
		HAL_ADC_PollForConversion(&hadc, 10);
 8000886:	0020      	movs	r0, r4
 8000888:	f002 fb4a 	bl	8002f20 <HAL_ADC_PollForConversion>
		adc[1] = HAL_ADC_GetValue(&hadc);
 800088c:	0020      	movs	r0, r4
 800088e:	f002 fbab 	bl	8002fe8 <HAL_ADC_GetValue>
 8000892:	8068      	strh	r0, [r5, #2]

		swS();
 8000894:	f7ff ffc6 	bl	8000824 <swS>

		if(buzFlag)buzC++;
 8000898:	4c1f      	ldr	r4, [pc, #124]	; (8000918 <HAL_TIM_PeriodElapsedCallback+0xd8>)
 800089a:	4d20      	ldr	r5, [pc, #128]	; (800091c <HAL_TIM_PeriodElapsedCallback+0xdc>)
 800089c:	7822      	ldrb	r2, [r4, #0]
 800089e:	2a00      	cmp	r2, #0
 80008a0:	d028      	beq.n	80008f4 <HAL_TIM_PeriodElapsedCallback+0xb4>
 80008a2:	882b      	ldrh	r3, [r5, #0]
 80008a4:	3301      	adds	r3, #1
 80008a6:	802b      	strh	r3, [r5, #0]
		else {
			buzC = 0;
			BUZ(0);
		}
		if(buzFlag==1){
 80008a8:	7823      	ldrb	r3, [r4, #0]
 80008aa:	2b01      	cmp	r3, #1
 80008ac:	d10c      	bne.n	80008c8 <HAL_TIM_PeriodElapsedCallback+0x88>
			if(buzC >= 500) buzFlag = 0;
 80008ae:	33f4      	adds	r3, #244	; 0xf4
 80008b0:	882a      	ldrh	r2, [r5, #0]
 80008b2:	33ff      	adds	r3, #255	; 0xff
 80008b4:	429a      	cmp	r2, r3
 80008b6:	d301      	bcc.n	80008bc <HAL_TIM_PeriodElapsedCallback+0x7c>
 80008b8:	2300      	movs	r3, #0
 80008ba:	7023      	strb	r3, [r4, #0]
			BUZ(1);
 80008bc:	20a0      	movs	r0, #160	; 0xa0
 80008be:	2201      	movs	r2, #1
 80008c0:	2108      	movs	r1, #8
 80008c2:	05c0      	lsls	r0, r0, #23
 80008c4:	f002 feaa 	bl	800361c <HAL_GPIO_WritePin>
		}
		if(buzFlag == 2){
 80008c8:	7823      	ldrb	r3, [r4, #0]
 80008ca:	2b02      	cmp	r3, #2
 80008cc:	d111      	bne.n	80008f2 <HAL_TIM_PeriodElapsedCallback+0xb2>
			if(buzC >= 100) buzFlag = 0;
 80008ce:	8828      	ldrh	r0, [r5, #0]
 80008d0:	2863      	cmp	r0, #99	; 0x63
 80008d2:	d901      	bls.n	80008d8 <HAL_TIM_PeriodElapsedCallback+0x98>
 80008d4:	2300      	movs	r3, #0
 80008d6:	7023      	strb	r3, [r4, #0]
			if(buzC % 50 > 25) BUZ(1);
 80008d8:	2132      	movs	r1, #50	; 0x32
 80008da:	f7ff fcb9 	bl	8000250 <__aeabi_uidivmod>
 80008de:	b289      	uxth	r1, r1
 80008e0:	2201      	movs	r2, #1
 80008e2:	2919      	cmp	r1, #25
 80008e4:	d800      	bhi.n	80008e8 <HAL_TIM_PeriodElapsedCallback+0xa8>
			else BUZ(0);
 80008e6:	2200      	movs	r2, #0
 80008e8:	20a0      	movs	r0, #160	; 0xa0
 80008ea:	2108      	movs	r1, #8
 80008ec:	05c0      	lsls	r0, r0, #23
 80008ee:	f002 fe95 	bl	800361c <HAL_GPIO_WritePin>
		}
	}
}
 80008f2:	bd70      	pop	{r4, r5, r6, pc}
			BUZ(0);
 80008f4:	20a0      	movs	r0, #160	; 0xa0
 80008f6:	2108      	movs	r1, #8
 80008f8:	05c0      	lsls	r0, r0, #23
			buzC = 0;
 80008fa:	802a      	strh	r2, [r5, #0]
			BUZ(0);
 80008fc:	f002 fe8e 	bl	800361c <HAL_GPIO_WritePin>
 8000900:	e7d2      	b.n	80008a8 <HAL_TIM_PeriodElapsedCallback+0x68>
 8000902:	46c0      	nop			; (mov r8, r8)
 8000904:	200008c9 	.word	0x200008c9
 8000908:	200005ec 	.word	0x200005ec
 800090c:	200005f0 	.word	0x200005f0
 8000910:	20000464 	.word	0x20000464
 8000914:	20000430 	.word	0x20000430
 8000918:	20000436 	.word	0x20000436
 800091c:	20000434 	.word	0x20000434

08000920 <logShift>:

void logShift(){
	logC++;
	for(uint8_t i = 0; i < 5; i++)
		pLog[5 - i] = pLog[4 - i];
 8000920:	4905      	ldr	r1, [pc, #20]	; (8000938 <logShift+0x18>)
void logShift(){
 8000922:	b510      	push	{r4, lr}
		pLog[5 - i] = pLog[4 - i];
 8000924:	0008      	movs	r0, r1
	logC++;
 8000926:	4a05      	ldr	r2, [pc, #20]	; (800093c <logShift+0x1c>)
		pLog[5 - i] = pLog[4 - i];
 8000928:	3014      	adds	r0, #20
	logC++;
 800092a:	7813      	ldrb	r3, [r2, #0]
 800092c:	3301      	adds	r3, #1
 800092e:	7013      	strb	r3, [r2, #0]
		pLog[5 - i] = pLog[4 - i];
 8000930:	2264      	movs	r2, #100	; 0x64
 8000932:	f004 fa3c 	bl	8004dae <memmove>
}
 8000936:	bd10      	pop	{r4, pc}
 8000938:	200005f4 	.word	0x200005f4
 800093c:	200005ef 	.word	0x200005ef

08000940 <textIn>:

String textIn(boolean n, uint8_t lim){
 8000940:	b5f0      	push	{r4, r5, r6, r7, lr}
 8000942:	b08b      	sub	sp, #44	; 0x2c
 8000944:	9007      	str	r0, [sp, #28]
 8000946:	9109      	str	r1, [sp, #36]	; 0x24
	String bf = (String)calloc(0, sizeof(char) * 30);
 8000948:	2000      	movs	r0, #0
 800094a:	211e      	movs	r1, #30
 800094c:	f004 f9e8 	bl	8004d20 <calloc>
	String resultArr = (String)calloc(0, sizeof(char) * 11);
 8000950:	210b      	movs	r1, #11
	String bf = (String)calloc(0, sizeof(char) * 30);
 8000952:	9006      	str	r0, [sp, #24]
	String resultArr = (String)calloc(0, sizeof(char) * 11);
 8000954:	2000      	movs	r0, #0
 8000956:	f004 f9e3 	bl	8004d20 <calloc>
	uint8_t keyX = 0, keyY = 0, limX = 0, tempColor;
	uint8_t cur = 0;
	udf = true;
 800095a:	2501      	movs	r5, #1
 800095c:	4b90      	ldr	r3, [pc, #576]	; (8000ba0 <textIn+0x260>)
	String resultArr = (String)calloc(0, sizeof(char) * 11);
 800095e:	9005      	str	r0, [sp, #20]

	SSD1306_Fill(0);
 8000960:	2000      	movs	r0, #0
	udf = true;
 8000962:	701d      	strb	r5, [r3, #0]
	SSD1306_Fill(0);
 8000964:	f001 fda4 	bl	80024b0 <SSD1306_Fill>
	uint8_t cur = 0;
 8000968:	2300      	movs	r3, #0
	uint8_t keyX = 0, keyY = 0, limX = 0, tempColor;
 800096a:	001f      	movs	r7, r3
 800096c:	001e      	movs	r6, r3
	uint8_t cur = 0;
 800096e:	9301      	str	r3, [sp, #4]
	uint8_t keyX = 0, keyY = 0, limX = 0, tempColor;
 8000970:	9302      	str	r3, [sp, #8]

	while(1){
		if(RE1){
 8000972:	4b8c      	ldr	r3, [pc, #560]	; (8000ba4 <textIn+0x264>)
 8000974:	781a      	ldrb	r2, [r3, #0]
 8000976:	2a63      	cmp	r2, #99	; 0x63
 8000978:	d922      	bls.n	80009c0 <textIn+0x80>
			reC = 0;
 800097a:	2100      	movs	r1, #0
			if(JOY_R)
 800097c:	20fa      	movs	r0, #250	; 0xfa
			reC = 0;
 800097e:	7019      	strb	r1, [r3, #0]
			if(JOY_R)
 8000980:	4b89      	ldr	r3, [pc, #548]	; (8000ba8 <textIn+0x268>)
 8000982:	0100      	lsls	r0, r0, #4
 8000984:	885a      	ldrh	r2, [r3, #2]
 8000986:	4282      	cmp	r2, r0
 8000988:	d945      	bls.n	8000a16 <textIn+0xd6>
				if(keyX < limX) keyX++;
 800098a:	9802      	ldr	r0, [sp, #8]
 800098c:	4286      	cmp	r6, r0
 800098e:	d24a      	bcs.n	8000a26 <textIn+0xe6>
 8000990:	3601      	adds	r6, #1
				else keyX = 0;
			if(JOY_L)
				if(keyX) keyX--;
 8000992:	b2f6      	uxtb	r6, r6
				else keyX = limX;
			if(JOY_U)
 8000994:	21fa      	movs	r1, #250	; 0xfa
 8000996:	881b      	ldrh	r3, [r3, #0]
 8000998:	0109      	lsls	r1, r1, #4
 800099a:	428b      	cmp	r3, r1
 800099c:	d947      	bls.n	8000a2e <textIn+0xee>
				if(keyY) keyY--;
 800099e:	2f00      	cmp	r7, #0
 80009a0:	d04d      	beq.n	8000a3e <textIn+0xfe>
 80009a2:	3f01      	subs	r7, #1
				else keyY = 3;
			if(JOY_D)
				if(keyY < 3) keyY++;
 80009a4:	b2ff      	uxtb	r7, r7
				else keyY = 0;
			if(JOY_R || JOY_L || JOY_U || JOY_D) udf = true;
 80009a6:	3a2d      	subs	r2, #45	; 0x2d
 80009a8:	3aff      	subs	r2, #255	; 0xff
 80009aa:	4980      	ldr	r1, [pc, #512]	; (8000bac <textIn+0x26c>)
 80009ac:	b292      	uxth	r2, r2
 80009ae:	428a      	cmp	r2, r1
 80009b0:	d804      	bhi.n	80009bc <textIn+0x7c>
 80009b2:	3b2d      	subs	r3, #45	; 0x2d
 80009b4:	3bff      	subs	r3, #255	; 0xff
 80009b6:	b29b      	uxth	r3, r3
 80009b8:	428b      	cmp	r3, r1
 80009ba:	d901      	bls.n	80009c0 <textIn+0x80>
 80009bc:	4b78      	ldr	r3, [pc, #480]	; (8000ba0 <textIn+0x260>)
 80009be:	701d      	strb	r5, [r3, #0]
		}
		if(JOY_P){
 80009c0:	20a0      	movs	r0, #160	; 0xa0
 80009c2:	2104      	movs	r1, #4
 80009c4:	05c0      	lsls	r0, r0, #23
 80009c6:	f002 fe23 	bl	8003610 <HAL_GPIO_ReadPin>
			if(!oldsw){
 80009ca:	4b79      	ldr	r3, [pc, #484]	; (8000bb0 <textIn+0x270>)
 80009cc:	781c      	ldrb	r4, [r3, #0]
 80009ce:	4304      	orrs	r4, r0
 80009d0:	b2e4      	uxtb	r4, r4
 80009d2:	2c00      	cmp	r4, #0
 80009d4:	d110      	bne.n	80009f8 <textIn+0xb8>
				swS();
 80009d6:	f7ff ff25 	bl	8000824 <swS>
				udf = true;
 80009da:	4b71      	ldr	r3, [pc, #452]	; (8000ba0 <textIn+0x260>)
 80009dc:	701d      	strb	r5, [r3, #0]
				if(keyX < 10) resultArr[cur++] = keyboard[keyY][keyX];
 80009de:	2e09      	cmp	r6, #9
 80009e0:	d831      	bhi.n	8000a46 <textIn+0x106>
 80009e2:	4a74      	ldr	r2, [pc, #464]	; (8000bb4 <textIn+0x274>)
 80009e4:	00b9      	lsls	r1, r7, #2
 80009e6:	588a      	ldr	r2, [r1, r2]
 80009e8:	9b01      	ldr	r3, [sp, #4]
 80009ea:	5d92      	ldrb	r2, [r2, r6]
 80009ec:	9905      	ldr	r1, [sp, #20]
 80009ee:	9801      	ldr	r0, [sp, #4]
 80009f0:	3301      	adds	r3, #1
 80009f2:	540a      	strb	r2, [r1, r0]
				else {
					if(keyY == 0) cur--;
 80009f4:	b2db      	uxtb	r3, r3
 80009f6:	9301      	str	r3, [sp, #4]
						return resultArr;
					}
				}
			}
		}
		if(lim - 1 == cur){
 80009f8:	9b09      	ldr	r3, [sp, #36]	; 0x24
 80009fa:	9a01      	ldr	r2, [sp, #4]
 80009fc:	3b01      	subs	r3, #1
 80009fe:	4293      	cmp	r3, r2
 8000a00:	d134      	bne.n	8000a6c <textIn+0x12c>
			fireF = 1;
 8000a02:	2001      	movs	r0, #1
 8000a04:	4b6c      	ldr	r3, [pc, #432]	; (8000bb8 <textIn+0x278>)
			udf = true;

			resultArr[cur]='\0';
 8000a06:	9a05      	ldr	r2, [sp, #20]
			fireF = 1;
 8000a08:	7018      	strb	r0, [r3, #0]
			udf = true;
 8000a0a:	4b65      	ldr	r3, [pc, #404]	; (8000ba0 <textIn+0x260>)
			resultArr[cur]='\0';
 8000a0c:	9901      	ldr	r1, [sp, #4]
			udf = true;
 8000a0e:	7018      	strb	r0, [r3, #0]
			resultArr[cur]='\0';
 8000a10:	2300      	movs	r3, #0
 8000a12:	5453      	strb	r3, [r2, r1]
 8000a14:	e022      	b.n	8000a5c <textIn+0x11c>
			if(JOY_L)
 8000a16:	2196      	movs	r1, #150	; 0x96
 8000a18:	0049      	lsls	r1, r1, #1
 8000a1a:	428a      	cmp	r2, r1
 8000a1c:	d2ba      	bcs.n	8000994 <textIn+0x54>
				if(keyX) keyX--;
 8000a1e:	2e00      	cmp	r6, #0
 8000a20:	d003      	beq.n	8000a2a <textIn+0xea>
 8000a22:	3e01      	subs	r6, #1
 8000a24:	e7b5      	b.n	8000992 <textIn+0x52>
				else keyX = 0;
 8000a26:	000e      	movs	r6, r1
 8000a28:	e7b4      	b.n	8000994 <textIn+0x54>
 8000a2a:	9e02      	ldr	r6, [sp, #8]
 8000a2c:	e7b2      	b.n	8000994 <textIn+0x54>
			if(JOY_D)
 8000a2e:	2196      	movs	r1, #150	; 0x96
 8000a30:	0049      	lsls	r1, r1, #1
 8000a32:	428b      	cmp	r3, r1
 8000a34:	d2b7      	bcs.n	80009a6 <textIn+0x66>
				if(keyY < 3) keyY++;
 8000a36:	2f03      	cmp	r7, #3
 8000a38:	d003      	beq.n	8000a42 <textIn+0x102>
 8000a3a:	3701      	adds	r7, #1
 8000a3c:	e7b2      	b.n	80009a4 <textIn+0x64>
				else keyY = 3;
 8000a3e:	2703      	movs	r7, #3
 8000a40:	e7b1      	b.n	80009a6 <textIn+0x66>
				else keyY = 0;
 8000a42:	2700      	movs	r7, #0
 8000a44:	e7af      	b.n	80009a6 <textIn+0x66>
					if(keyY == 0) cur--;
 8000a46:	2f00      	cmp	r7, #0
 8000a48:	d102      	bne.n	8000a50 <textIn+0x110>
 8000a4a:	9b01      	ldr	r3, [sp, #4]
 8000a4c:	3b01      	subs	r3, #1
 8000a4e:	e7d1      	b.n	80009f4 <textIn+0xb4>
					else if(keyY == 2){
 8000a50:	2f02      	cmp	r7, #2
 8000a52:	d1d1      	bne.n	80009f8 <textIn+0xb8>
						SSD1306_Fill(1);
 8000a54:	2001      	movs	r0, #1
						resultArr[cur] = '\0';
 8000a56:	9b05      	ldr	r3, [sp, #20]
 8000a58:	9a01      	ldr	r2, [sp, #4]
 8000a5a:	549c      	strb	r4, [r3, r2]
			SSD1306_Fill(1);
 8000a5c:	f001 fd28 	bl	80024b0 <SSD1306_Fill>

			free(bf);
 8000a60:	9806      	ldr	r0, [sp, #24]
 8000a62:	f004 f991 	bl	8004d88 <free>
			}

			SSD1306_UpdateScreen();
		}
	}
}
 8000a66:	9805      	ldr	r0, [sp, #20]
 8000a68:	b00b      	add	sp, #44	; 0x2c
 8000a6a:	bdf0      	pop	{r4, r5, r6, r7, pc}
		if(keyY == 0 || keyY == 2) limX = 10;
 8000a6c:	230a      	movs	r3, #10
 8000a6e:	9302      	str	r3, [sp, #8]
 8000a70:	2f00      	cmp	r7, #0
 8000a72:	d004      	beq.n	8000a7e <textIn+0x13e>
 8000a74:	1ebb      	subs	r3, r7, #2
 8000a76:	425a      	negs	r2, r3
 8000a78:	4153      	adcs	r3, r2
 8000a7a:	3309      	adds	r3, #9
 8000a7c:	9302      	str	r3, [sp, #8]
		if(keyX > limX) keyX = limX;
 8000a7e:	9a02      	ldr	r2, [sp, #8]
 8000a80:	1c33      	adds	r3, r6, #0
 8000a82:	4296      	cmp	r6, r2
 8000a84:	d901      	bls.n	8000a8a <textIn+0x14a>
 8000a86:	466b      	mov	r3, sp
 8000a88:	7a1b      	ldrb	r3, [r3, #8]
 8000a8a:	b2de      	uxtb	r6, r3
		if(udf){
 8000a8c:	4b44      	ldr	r3, [pc, #272]	; (8000ba0 <textIn+0x260>)
 8000a8e:	781a      	ldrb	r2, [r3, #0]
 8000a90:	2a00      	cmp	r2, #0
 8000a92:	d100      	bne.n	8000a96 <textIn+0x156>
 8000a94:	e76d      	b.n	8000972 <textIn+0x32>
			udf = false;
 8000a96:	2400      	movs	r4, #0
 8000a98:	701c      	strb	r4, [r3, #0]
			basicScreen();
 8000a9a:	f7ff feb5 	bl	8000808 <basicScreen>
			if(!n) SSD1306_PutsXY(0, 0, "#input Name", 0);
 8000a9e:	9b07      	ldr	r3, [sp, #28]
 8000aa0:	42a3      	cmp	r3, r4
 8000aa2:	d167      	bne.n	8000b74 <textIn+0x234>
 8000aa4:	0019      	movs	r1, r3
 8000aa6:	0018      	movs	r0, r3
 8000aa8:	4a44      	ldr	r2, [pc, #272]	; (8000bbc <textIn+0x27c>)
			else  SSD1306_PutsXY(0, 0, "#input part name", 0);
 8000aaa:	f7ff fe9d 	bl	80007e8 <SSD1306_PutsXY>
					tempColor = !(keyX == i && keyY == j);
 8000aae:	2300      	movs	r3, #0
 8000ab0:	9304      	str	r3, [sp, #16]
				for(uint8_t j = 0; j < 4; j++){
 8000ab2:	230a      	movs	r3, #10
 8000ab4:	9a04      	ldr	r2, [sp, #16]
 8000ab6:	4353      	muls	r3, r2
 8000ab8:	330e      	adds	r3, #14
 8000aba:	b29b      	uxth	r3, r3
 8000abc:	9308      	str	r3, [sp, #32]
		if(keyY == 0 || keyY == 2) limX = 10;
 8000abe:	2300      	movs	r3, #0
 8000ac0:	9303      	str	r3, [sp, #12]
					tempColor = !(keyX == i && keyY == j);
 8000ac2:	466b      	mov	r3, sp
 8000ac4:	7c1b      	ldrb	r3, [r3, #16]
 8000ac6:	002c      	movs	r4, r5
 8000ac8:	429e      	cmp	r6, r3
 8000aca:	d104      	bne.n	8000ad6 <textIn+0x196>
 8000acc:	466b      	mov	r3, sp
 8000ace:	7b1c      	ldrb	r4, [r3, #12]
 8000ad0:	1be4      	subs	r4, r4, r7
 8000ad2:	1e63      	subs	r3, r4, #1
 8000ad4:	419c      	sbcs	r4, r3
					SSD1306_GotoXY(14 + (i * 10), 31 + (j * 8));
 8000ad6:	9b03      	ldr	r3, [sp, #12]
 8000ad8:	9808      	ldr	r0, [sp, #32]
 8000ada:	00d9      	lsls	r1, r3, #3
 8000adc:	311f      	adds	r1, #31
 8000ade:	b289      	uxth	r1, r1
 8000ae0:	f001 fd1c 	bl	800251c <SSD1306_GotoXY>
					SSD1306_Putc(keyboard[j][i], &Font_6x8, tempColor);
 8000ae4:	9b03      	ldr	r3, [sp, #12]
 8000ae6:	b2e2      	uxtb	r2, r4
 8000ae8:	0099      	lsls	r1, r3, #2
 8000aea:	4b32      	ldr	r3, [pc, #200]	; (8000bb4 <textIn+0x274>)
 8000aec:	58cb      	ldr	r3, [r1, r3]
 8000aee:	9904      	ldr	r1, [sp, #16]
 8000af0:	5c58      	ldrb	r0, [r3, r1]
 8000af2:	4933      	ldr	r1, [pc, #204]	; (8000bc0 <textIn+0x280>)
 8000af4:	f001 fd18 	bl	8002528 <SSD1306_Putc>
				for(uint8_t j = 0; j < 4; j++){
 8000af8:	9b03      	ldr	r3, [sp, #12]
 8000afa:	3301      	adds	r3, #1
 8000afc:	9303      	str	r3, [sp, #12]
 8000afe:	2b04      	cmp	r3, #4
 8000b00:	d1df      	bne.n	8000ac2 <textIn+0x182>
			for(uint8_t i = 0; i < 10; i++){
 8000b02:	9b04      	ldr	r3, [sp, #16]
 8000b04:	3301      	adds	r3, #1
 8000b06:	9304      	str	r3, [sp, #16]
 8000b08:	2b0a      	cmp	r3, #10
 8000b0a:	d1d2      	bne.n	8000ab2 <textIn+0x172>
			SSD1306_GotoXY(115, 31);
 8000b0c:	211f      	movs	r1, #31
 8000b0e:	2073      	movs	r0, #115	; 0x73
 8000b10:	f001 fd04 	bl	800251c <SSD1306_GotoXY>
			SSD1306_Puts("&", &Font_6x8, !(keyX == 10 && keyY == 0));
 8000b14:	002a      	movs	r2, r5
 8000b16:	2e0a      	cmp	r6, #10
 8000b18:	d102      	bne.n	8000b20 <textIn+0x1e0>
 8000b1a:	003a      	movs	r2, r7
 8000b1c:	1e53      	subs	r3, r2, #1
 8000b1e:	419a      	sbcs	r2, r3
 8000b20:	b2d2      	uxtb	r2, r2
 8000b22:	4927      	ldr	r1, [pc, #156]	; (8000bc0 <textIn+0x280>)
 8000b24:	4827      	ldr	r0, [pc, #156]	; (8000bc4 <textIn+0x284>)
 8000b26:	f001 fd35 	bl	8002594 <SSD1306_Puts>
			SSD1306_GotoXY(115, 49);
 8000b2a:	2131      	movs	r1, #49	; 0x31
 8000b2c:	2073      	movs	r0, #115	; 0x73
 8000b2e:	f001 fcf5 	bl	800251c <SSD1306_GotoXY>
			SSD1306_Puts("*", &Font_6x8, !(keyX == 10 && keyY == 2));
 8000b32:	002a      	movs	r2, r5
 8000b34:	2e0a      	cmp	r6, #10
 8000b36:	d102      	bne.n	8000b3e <textIn+0x1fe>
 8000b38:	1eba      	subs	r2, r7, #2
 8000b3a:	1e53      	subs	r3, r2, #1
 8000b3c:	419a      	sbcs	r2, r3
 8000b3e:	4920      	ldr	r1, [pc, #128]	; (8000bc0 <textIn+0x280>)
 8000b40:	b2d2      	uxtb	r2, r2
 8000b42:	4821      	ldr	r0, [pc, #132]	; (8000bc8 <textIn+0x288>)
 8000b44:	f001 fd26 	bl	8002594 <SSD1306_Puts>
			SSD1306_PutsXY(cur, 2, " ^ ", 1);
 8000b48:	002b      	movs	r3, r5
 8000b4a:	2102      	movs	r1, #2
 8000b4c:	4a1f      	ldr	r2, [pc, #124]	; (8000bcc <textIn+0x28c>)
 8000b4e:	9801      	ldr	r0, [sp, #4]
 8000b50:	f7ff fe4a 	bl	80007e8 <SSD1306_PutsXY>
			SSD1306_PutsXY(0, 1, " > ", 1);
 8000b54:	002b      	movs	r3, r5
 8000b56:	0029      	movs	r1, r5
 8000b58:	2000      	movs	r0, #0
 8000b5a:	4a1d      	ldr	r2, [pc, #116]	; (8000bd0 <textIn+0x290>)
 8000b5c:	f7ff fe44 	bl	80007e8 <SSD1306_PutsXY>
			for(uint8_t i = 0; i < cur; i++){
 8000b60:	2300      	movs	r3, #0
 8000b62:	9303      	str	r3, [sp, #12]
 8000b64:	466b      	mov	r3, sp
 8000b66:	7b1c      	ldrb	r4, [r3, #12]
 8000b68:	9b01      	ldr	r3, [sp, #4]
 8000b6a:	42a3      	cmp	r3, r4
 8000b6c:	d807      	bhi.n	8000b7e <textIn+0x23e>
			SSD1306_UpdateScreen();
 8000b6e:	f001 fe17 	bl	80027a0 <SSD1306_UpdateScreen>
 8000b72:	e6fe      	b.n	8000972 <textIn+0x32>
			else  SSD1306_PutsXY(0, 0, "#input part name", 0);
 8000b74:	0023      	movs	r3, r4
 8000b76:	0021      	movs	r1, r4
 8000b78:	0020      	movs	r0, r4
 8000b7a:	4a16      	ldr	r2, [pc, #88]	; (8000bd4 <textIn+0x294>)
 8000b7c:	e795      	b.n	8000aaa <textIn+0x16a>
				sprintf(bf, "%c ", resultArr[i]);
 8000b7e:	9b05      	ldr	r3, [sp, #20]
 8000b80:	9a03      	ldr	r2, [sp, #12]
 8000b82:	4915      	ldr	r1, [pc, #84]	; (8000bd8 <textIn+0x298>)
 8000b84:	5c9a      	ldrb	r2, [r3, r2]
 8000b86:	9806      	ldr	r0, [sp, #24]
				SSD1306_PutsXY(1 + i, 1, bf, 1);
 8000b88:	3401      	adds	r4, #1
				sprintf(bf, "%c ", resultArr[i]);
 8000b8a:	f004 fa4b 	bl	8005024 <siprintf>
				SSD1306_PutsXY(1 + i, 1, bf, 1);
 8000b8e:	002b      	movs	r3, r5
 8000b90:	0029      	movs	r1, r5
 8000b92:	9a06      	ldr	r2, [sp, #24]
 8000b94:	b2e0      	uxtb	r0, r4
 8000b96:	f7ff fe27 	bl	80007e8 <SSD1306_PutsXY>
			for(uint8_t i = 0; i < cur; i++){
 8000b9a:	9b03      	ldr	r3, [sp, #12]
 8000b9c:	3301      	adds	r3, #1
 8000b9e:	e7e0      	b.n	8000b62 <textIn+0x222>
 8000ba0:	2000003c 	.word	0x2000003c
 8000ba4:	200008c9 	.word	0x200008c9
 8000ba8:	20000430 	.word	0x20000430
 8000bac:	00000e74 	.word	0x00000e74
 8000bb0:	20000028 	.word	0x20000028
 8000bb4:	2000000c 	.word	0x2000000c
 8000bb8:	20000008 	.word	0x20000008
 8000bbc:	080060dc 	.word	0x080060dc
 8000bc0:	20000000 	.word	0x20000000
 8000bc4:	080060f9 	.word	0x080060f9
 8000bc8:	080060fb 	.word	0x080060fb
 8000bcc:	080060fd 	.word	0x080060fd
 8000bd0:	08006101 	.word	0x08006101
 8000bd4:	080060e8 	.word	0x080060e8
 8000bd8:	08006105 	.word	0x08006105

08000bdc <timeSet>:

void timeSet(boolean firstOn){
 8000bdc:	b5f0      	push	{r4, r5, r6, r7, lr}
 8000bde:	b085      	sub	sp, #20
 8000be0:	9003      	str	r0, [sp, #12]
	DATE setDate = {.year = 2022, .month = 3, .day = 18};
	TIME setTime = {.hour = 0, .min = 0, .sec = 1};

	basicScreen();
 8000be2:	f7ff fe11 	bl	8000808 <basicScreen>
	TIME setTime = {.hour = 0, .min = 0, .sec = 1};
 8000be6:	2301      	movs	r3, #1
 8000be8:	2600      	movs	r6, #0
	DATE setDate = {.year = 2022, .month = 3, .day = 18};
 8000bea:	2703      	movs	r7, #3
 8000bec:	2412      	movs	r4, #18
	TIME setTime = {.hour = 0, .min = 0, .sec = 1};
 8000bee:	9302      	str	r3, [sp, #8]
	DATE setDate = {.year = 2022, .month = 3, .day = 18};
 8000bf0:	4b8f      	ldr	r3, [pc, #572]	; (8000e30 <timeSet+0x254>)
	TIME setTime = {.hour = 0, .min = 0, .sec = 1};
 8000bf2:	9601      	str	r6, [sp, #4]
	DATE setDate = {.year = 2022, .month = 3, .day = 18};
 8000bf4:	9300      	str	r3, [sp, #0]
	while(!firstOn){
		if(RE1){
 8000bf6:	4b8f      	ldr	r3, [pc, #572]	; (8000e34 <timeSet+0x258>)
	while(!firstOn){
 8000bf8:	9903      	ldr	r1, [sp, #12]
		if(RE1){
 8000bfa:	781a      	ldrb	r2, [r3, #0]
	while(!firstOn){
 8000bfc:	2900      	cmp	r1, #0
 8000bfe:	d15a      	bne.n	8000cb6 <timeSet+0xda>
		if(RE1){
 8000c00:	2a63      	cmp	r2, #99	; 0x63
 8000c02:	d9fd      	bls.n	8000c00 <timeSet+0x24>
			reC = 0;
 8000c04:	9a03      	ldr	r2, [sp, #12]
 8000c06:	701a      	strb	r2, [r3, #0]
			if(JOY_R)
 8000c08:	4b8b      	ldr	r3, [pc, #556]	; (8000e38 <timeSet+0x25c>)
 8000c0a:	8859      	ldrh	r1, [r3, #2]
 8000c0c:	23fa      	movs	r3, #250	; 0xfa
 8000c0e:	011b      	lsls	r3, r3, #4
 8000c10:	4299      	cmp	r1, r3
 8000c12:	d952      	bls.n	8000cba <timeSet+0xde>
				if(sel < 5) sel++;
 8000c14:	4a89      	ldr	r2, [pc, #548]	; (8000e3c <timeSet+0x260>)
 8000c16:	7813      	ldrb	r3, [r2, #0]
 8000c18:	2b04      	cmp	r3, #4
 8000c1a:	d801      	bhi.n	8000c20 <timeSet+0x44>
 8000c1c:	3301      	adds	r3, #1
			if(JOY_L)
				if(sel) sel--;
 8000c1e:	7013      	strb	r3, [r2, #0]
			if(JOY_U){
 8000c20:	22fa      	movs	r2, #250	; 0xfa
 8000c22:	4b85      	ldr	r3, [pc, #532]	; (8000e38 <timeSet+0x25c>)
 8000c24:	0112      	lsls	r2, r2, #4
 8000c26:	881b      	ldrh	r3, [r3, #0]
 8000c28:	4293      	cmp	r3, r2
 8000c2a:	d800      	bhi.n	8000c2e <timeSet+0x52>
 8000c2c:	e07b      	b.n	8000d26 <timeSet+0x14a>
				if(sel == 0) if(setDate.year < 2099) setDate.year++;
 8000c2e:	4a83      	ldr	r2, [pc, #524]	; (8000e3c <timeSet+0x260>)
 8000c30:	7812      	ldrb	r2, [r2, #0]
 8000c32:	2a00      	cmp	r2, #0
 8000c34:	d14b      	bne.n	8000cce <timeSet+0xf2>
 8000c36:	4a82      	ldr	r2, [pc, #520]	; (8000e40 <timeSet+0x264>)
 8000c38:	9800      	ldr	r0, [sp, #0]
 8000c3a:	4290      	cmp	r0, r2
 8000c3c:	d803      	bhi.n	8000c46 <timeSet+0x6a>
 8000c3e:	0002      	movs	r2, r0
 8000c40:	3201      	adds	r2, #1
 8000c42:	b292      	uxth	r2, r2
 8000c44:	9200      	str	r2, [sp, #0]
				if(sel == 1) if(setDate.month < 12) setDate.month++;
				if(sel == 2) if(setDate.day < lastDay[setDate.month - 1]) setDate.day++;
				if(sel == 3) if(setTime.hour < 23) setTime.hour++;
				if(sel == 4) if(setTime.min < 59) setTime.min++;
				if(sel == 5) if(setTime.sec < 59) setTime.sec++;
				if(setDate.day > lastDay[setDate.month - 1]) setDate.day = lastDay[setDate.month - 1];
 8000c46:	4a7f      	ldr	r2, [pc, #508]	; (8000e44 <timeSet+0x268>)
 8000c48:	19d2      	adds	r2, r2, r7
 8000c4a:	3a01      	subs	r2, #1
 8000c4c:	7810      	ldrb	r0, [r2, #0]
 8000c4e:	1c02      	adds	r2, r0, #0
 8000c50:	42a0      	cmp	r0, r4
 8000c52:	d900      	bls.n	8000c56 <timeSet+0x7a>
 8000c54:	1c22      	adds	r2, r4, #0
 8000c56:	b2d4      	uxtb	r4, r2
				if(sel == 2) if(setDate.day > 1) setDate.day--;
				if(sel == 3) if(setTime.hour) setTime.hour--;
				if(sel == 4) if(setTime.min) setTime.min--;
				if(sel == 5) if(setTime.sec) setTime.sec--;
			}
			if(JOY_R || JOY_L || JOY_U || JOY_D) udf = true;
 8000c58:	392d      	subs	r1, #45	; 0x2d
 8000c5a:	39ff      	subs	r1, #255	; 0xff
 8000c5c:	4a7a      	ldr	r2, [pc, #488]	; (8000e48 <timeSet+0x26c>)
 8000c5e:	b289      	uxth	r1, r1
 8000c60:	4291      	cmp	r1, r2
 8000c62:	d804      	bhi.n	8000c6e <timeSet+0x92>
 8000c64:	3b2d      	subs	r3, #45	; 0x2d
 8000c66:	3bff      	subs	r3, #255	; 0xff
 8000c68:	b29b      	uxth	r3, r3
 8000c6a:	4293      	cmp	r3, r2
 8000c6c:	d902      	bls.n	8000c74 <timeSet+0x98>
 8000c6e:	2201      	movs	r2, #1
 8000c70:	4b76      	ldr	r3, [pc, #472]	; (8000e4c <timeSet+0x270>)
 8000c72:	701a      	strb	r2, [r3, #0]
			if(JOY_P){
 8000c74:	20a0      	movs	r0, #160	; 0xa0
 8000c76:	2104      	movs	r1, #4
 8000c78:	05c0      	lsls	r0, r0, #23
 8000c7a:	f002 fcc9 	bl	8003610 <HAL_GPIO_ReadPin>
				if(!oldsw){
 8000c7e:	4b74      	ldr	r3, [pc, #464]	; (8000e50 <timeSet+0x274>)
 8000c80:	781d      	ldrb	r5, [r3, #0]
 8000c82:	4305      	orrs	r5, r0
 8000c84:	b2ed      	uxtb	r5, r5
 8000c86:	2d00      	cmp	r5, #0
 8000c88:	d000      	beq.n	8000c8c <timeSet+0xb0>
 8000c8a:	e08d      	b.n	8000da8 <timeSet+0x1cc>
					swS();
 8000c8c:	f7ff fdca 	bl	8000824 <swS>
					DS3231_set_date(setDate.day, setDate.month, setDate.year);
 8000c90:	466b      	mov	r3, sp
 8000c92:	0039      	movs	r1, r7
 8000c94:	781a      	ldrb	r2, [r3, #0]
 8000c96:	0020      	movs	r0, r4
 8000c98:	f7ff fcba 	bl	8000610 <DS3231_set_date>
					DS3231_set_time(setTime.sec, setTime.min, setTime.hour);
 8000c9c:	0031      	movs	r1, r6
 8000c9e:	9a01      	ldr	r2, [sp, #4]
 8000ca0:	9802      	ldr	r0, [sp, #8]
 8000ca2:	f7ff fc1f 	bl	80004e4 <DS3231_set_time>
					udf = true;
 8000ca6:	2101      	movs	r1, #1
 8000ca8:	4b68      	ldr	r3, [pc, #416]	; (8000e4c <timeSet+0x270>)
					eepWriteData(0, true);
 8000caa:	0028      	movs	r0, r5
					udf = true;
 8000cac:	7019      	strb	r1, [r3, #0]
					eepWriteData(0, true);
 8000cae:	f001 fe4f 	bl	8002950 <eepWriteData>
					SSD1306_Clear();
 8000cb2:	f001 fd97 	bl	80027e4 <SSD1306_Clear>
				SSD1306_UpdateScreen();
				free(bf);
			}
		}
	}
}
 8000cb6:	b005      	add	sp, #20
 8000cb8:	bdf0      	pop	{r4, r5, r6, r7, pc}
			if(JOY_L)
 8000cba:	2396      	movs	r3, #150	; 0x96
 8000cbc:	005b      	lsls	r3, r3, #1
 8000cbe:	4299      	cmp	r1, r3
 8000cc0:	d2ae      	bcs.n	8000c20 <timeSet+0x44>
				if(sel) sel--;
 8000cc2:	4a5e      	ldr	r2, [pc, #376]	; (8000e3c <timeSet+0x260>)
 8000cc4:	7813      	ldrb	r3, [r2, #0]
 8000cc6:	2b00      	cmp	r3, #0
 8000cc8:	d0aa      	beq.n	8000c20 <timeSet+0x44>
 8000cca:	3b01      	subs	r3, #1
 8000ccc:	e7a7      	b.n	8000c1e <timeSet+0x42>
				if(sel == 1) if(setDate.month < 12) setDate.month++;
 8000cce:	2a01      	cmp	r2, #1
 8000cd0:	d012      	beq.n	8000cf8 <timeSet+0x11c>
				if(sel == 2) if(setDate.day < lastDay[setDate.month - 1]) setDate.day++;
 8000cd2:	485c      	ldr	r0, [pc, #368]	; (8000e44 <timeSet+0x268>)
 8000cd4:	19c0      	adds	r0, r0, r7
 8000cd6:	3801      	subs	r0, #1
 8000cd8:	7800      	ldrb	r0, [r0, #0]
 8000cda:	2a02      	cmp	r2, #2
 8000cdc:	d011      	beq.n	8000d02 <timeSet+0x126>
				if(sel == 3) if(setTime.hour < 23) setTime.hour++;
 8000cde:	2a03      	cmp	r2, #3
 8000ce0:	d014      	beq.n	8000d0c <timeSet+0x130>
				if(sel == 4) if(setTime.min < 59) setTime.min++;
 8000ce2:	2a04      	cmp	r2, #4
 8000ce4:	d019      	beq.n	8000d1a <timeSet+0x13e>
				if(sel == 5) if(setTime.sec < 59) setTime.sec++;
 8000ce6:	2a05      	cmp	r2, #5
 8000ce8:	d1ad      	bne.n	8000c46 <timeSet+0x6a>
 8000cea:	9a02      	ldr	r2, [sp, #8]
 8000cec:	2a3a      	cmp	r2, #58	; 0x3a
 8000cee:	d8aa      	bhi.n	8000c46 <timeSet+0x6a>
 8000cf0:	3201      	adds	r2, #1
 8000cf2:	b2d2      	uxtb	r2, r2
 8000cf4:	9202      	str	r2, [sp, #8]
 8000cf6:	e7a6      	b.n	8000c46 <timeSet+0x6a>
				if(sel == 1) if(setDate.month < 12) setDate.month++;
 8000cf8:	2f0b      	cmp	r7, #11
 8000cfa:	d8a4      	bhi.n	8000c46 <timeSet+0x6a>
 8000cfc:	3701      	adds	r7, #1
 8000cfe:	b2ff      	uxtb	r7, r7
 8000d00:	e7a1      	b.n	8000c46 <timeSet+0x6a>
				if(sel == 2) if(setDate.day < lastDay[setDate.month - 1]) setDate.day++;
 8000d02:	4284      	cmp	r4, r0
 8000d04:	d29f      	bcs.n	8000c46 <timeSet+0x6a>
 8000d06:	3401      	adds	r4, #1
 8000d08:	b2e4      	uxtb	r4, r4
 8000d0a:	e79c      	b.n	8000c46 <timeSet+0x6a>
				if(sel == 3) if(setTime.hour < 23) setTime.hour++;
 8000d0c:	9a01      	ldr	r2, [sp, #4]
 8000d0e:	2a16      	cmp	r2, #22
 8000d10:	d899      	bhi.n	8000c46 <timeSet+0x6a>
 8000d12:	3201      	adds	r2, #1
 8000d14:	b2d2      	uxtb	r2, r2
 8000d16:	9201      	str	r2, [sp, #4]
 8000d18:	e795      	b.n	8000c46 <timeSet+0x6a>
				if(sel == 4) if(setTime.min < 59) setTime.min++;
 8000d1a:	2e3a      	cmp	r6, #58	; 0x3a
 8000d1c:	d900      	bls.n	8000d20 <timeSet+0x144>
 8000d1e:	e792      	b.n	8000c46 <timeSet+0x6a>
 8000d20:	3601      	adds	r6, #1
 8000d22:	b2f6      	uxtb	r6, r6
 8000d24:	e78f      	b.n	8000c46 <timeSet+0x6a>
			if(JOY_D){
 8000d26:	2296      	movs	r2, #150	; 0x96
 8000d28:	0052      	lsls	r2, r2, #1
 8000d2a:	4293      	cmp	r3, r2
 8000d2c:	d300      	bcc.n	8000d30 <timeSet+0x154>
 8000d2e:	e793      	b.n	8000c58 <timeSet+0x7c>
				if(sel == 0) if(setDate.year > 2000) setDate.year--;
 8000d30:	4a42      	ldr	r2, [pc, #264]	; (8000e3c <timeSet+0x260>)
 8000d32:	7812      	ldrb	r2, [r2, #0]
 8000d34:	2a00      	cmp	r2, #0
 8000d36:	d10a      	bne.n	8000d4e <timeSet+0x172>
 8000d38:	22fa      	movs	r2, #250	; 0xfa
 8000d3a:	9800      	ldr	r0, [sp, #0]
 8000d3c:	00d2      	lsls	r2, r2, #3
 8000d3e:	4290      	cmp	r0, r2
 8000d40:	d800      	bhi.n	8000d44 <timeSet+0x168>
 8000d42:	e789      	b.n	8000c58 <timeSet+0x7c>
 8000d44:	0002      	movs	r2, r0
 8000d46:	3a01      	subs	r2, #1
 8000d48:	b292      	uxth	r2, r2
 8000d4a:	9200      	str	r2, [sp, #0]
 8000d4c:	e784      	b.n	8000c58 <timeSet+0x7c>
				if(sel == 1) if(setDate.month > 1) setDate.month--;
 8000d4e:	2a01      	cmp	r2, #1
 8000d50:	d010      	beq.n	8000d74 <timeSet+0x198>
				if(sel == 2) if(setDate.day > 1) setDate.day--;
 8000d52:	2a02      	cmp	r2, #2
 8000d54:	d014      	beq.n	8000d80 <timeSet+0x1a4>
				if(sel == 3) if(setTime.hour) setTime.hour--;
 8000d56:	2a03      	cmp	r2, #3
 8000d58:	d018      	beq.n	8000d8c <timeSet+0x1b0>
				if(sel == 4) if(setTime.min) setTime.min--;
 8000d5a:	2a04      	cmp	r2, #4
 8000d5c:	d01e      	beq.n	8000d9c <timeSet+0x1c0>
				if(sel == 5) if(setTime.sec) setTime.sec--;
 8000d5e:	2a05      	cmp	r2, #5
 8000d60:	d000      	beq.n	8000d64 <timeSet+0x188>
 8000d62:	e779      	b.n	8000c58 <timeSet+0x7c>
 8000d64:	9a02      	ldr	r2, [sp, #8]
 8000d66:	2a00      	cmp	r2, #0
 8000d68:	d100      	bne.n	8000d6c <timeSet+0x190>
 8000d6a:	e775      	b.n	8000c58 <timeSet+0x7c>
 8000d6c:	3a01      	subs	r2, #1
 8000d6e:	b2d2      	uxtb	r2, r2
 8000d70:	9202      	str	r2, [sp, #8]
 8000d72:	e771      	b.n	8000c58 <timeSet+0x7c>
				if(sel == 1) if(setDate.month > 1) setDate.month--;
 8000d74:	2f01      	cmp	r7, #1
 8000d76:	d100      	bne.n	8000d7a <timeSet+0x19e>
 8000d78:	e76e      	b.n	8000c58 <timeSet+0x7c>
 8000d7a:	3f01      	subs	r7, #1
 8000d7c:	b2ff      	uxtb	r7, r7
 8000d7e:	e76b      	b.n	8000c58 <timeSet+0x7c>
				if(sel == 2) if(setDate.day > 1) setDate.day--;
 8000d80:	2c01      	cmp	r4, #1
 8000d82:	d800      	bhi.n	8000d86 <timeSet+0x1aa>
 8000d84:	e768      	b.n	8000c58 <timeSet+0x7c>
 8000d86:	3c01      	subs	r4, #1
 8000d88:	b2e4      	uxtb	r4, r4
 8000d8a:	e765      	b.n	8000c58 <timeSet+0x7c>
				if(sel == 3) if(setTime.hour) setTime.hour--;
 8000d8c:	9a01      	ldr	r2, [sp, #4]
 8000d8e:	2a00      	cmp	r2, #0
 8000d90:	d100      	bne.n	8000d94 <timeSet+0x1b8>
 8000d92:	e761      	b.n	8000c58 <timeSet+0x7c>
 8000d94:	3a01      	subs	r2, #1
 8000d96:	b2d2      	uxtb	r2, r2
 8000d98:	9201      	str	r2, [sp, #4]
 8000d9a:	e75d      	b.n	8000c58 <timeSet+0x7c>
				if(sel == 4) if(setTime.min) setTime.min--;
 8000d9c:	2e00      	cmp	r6, #0
 8000d9e:	d100      	bne.n	8000da2 <timeSet+0x1c6>
 8000da0:	e75a      	b.n	8000c58 <timeSet+0x7c>
 8000da2:	3e01      	subs	r6, #1
 8000da4:	b2f6      	uxtb	r6, r6
 8000da6:	e757      	b.n	8000c58 <timeSet+0x7c>
			if(udf){
 8000da8:	4b28      	ldr	r3, [pc, #160]	; (8000e4c <timeSet+0x270>)
 8000daa:	781b      	ldrb	r3, [r3, #0]
 8000dac:	2b00      	cmp	r3, #0
 8000dae:	d100      	bne.n	8000db2 <timeSet+0x1d6>
 8000db0:	e721      	b.n	8000bf6 <timeSet+0x1a>
				String bf = (String)calloc(0, sizeof(char) * 12);
 8000db2:	210c      	movs	r1, #12
 8000db4:	2000      	movs	r0, #0
 8000db6:	f003 ffb3 	bl	8004d20 <calloc>
				udf = false;
 8000dba:	2200      	movs	r2, #0
 8000dbc:	4b23      	ldr	r3, [pc, #140]	; (8000e4c <timeSet+0x270>)
				String bf = (String)calloc(0, sizeof(char) * 12);
 8000dbe:	0005      	movs	r5, r0
				udf = false;
 8000dc0:	701a      	strb	r2, [r3, #0]
				basicScreen();
 8000dc2:	f7ff fd21 	bl	8000808 <basicScreen>
				SSD1306_PutsXY(0, 0, "#Time Set", 0);
 8000dc6:	2300      	movs	r3, #0
 8000dc8:	4a22      	ldr	r2, [pc, #136]	; (8000e54 <timeSet+0x278>)
 8000dca:	0019      	movs	r1, r3
 8000dcc:	0018      	movs	r0, r3
 8000dce:	f7ff fd0b 	bl	80007e8 <SSD1306_PutsXY>
				SSD1306_PutsXY(0, 2, "RTC Time setting.", 1);
 8000dd2:	2301      	movs	r3, #1
 8000dd4:	2000      	movs	r0, #0
 8000dd6:	2102      	movs	r1, #2
 8000dd8:	4a1f      	ldr	r2, [pc, #124]	; (8000e58 <timeSet+0x27c>)
 8000dda:	f7ff fd05 	bl	80007e8 <SSD1306_PutsXY>
				switch(sel){
 8000dde:	4b17      	ldr	r3, [pc, #92]	; (8000e3c <timeSet+0x260>)
 8000de0:	7818      	ldrb	r0, [r3, #0]
 8000de2:	2805      	cmp	r0, #5
 8000de4:	d809      	bhi.n	8000dfa <timeSet+0x21e>
 8000de6:	f7ff f999 	bl	800011c <__gnu_thumb1_case_uqi>
 8000dea:	1403      	.short	0x1403
 8000dec:	201d1a17 	.word	0x201d1a17
				case 0: sprintf(bf, "Year=%04ld", setDate.year); break;
 8000df0:	9a00      	ldr	r2, [sp, #0]
 8000df2:	491a      	ldr	r1, [pc, #104]	; (8000e5c <timeSet+0x280>)
				case 5: sprintf(bf, "Sec=%02ld", setTime.sec); break;
 8000df4:	0028      	movs	r0, r5
 8000df6:	f004 f915 	bl	8005024 <siprintf>
				SSD1306_PutsXY(0, 4, bf, 1);
 8000dfa:	2301      	movs	r3, #1
 8000dfc:	002a      	movs	r2, r5
 8000dfe:	2104      	movs	r1, #4
 8000e00:	2000      	movs	r0, #0
 8000e02:	f7ff fcf1 	bl	80007e8 <SSD1306_PutsXY>
				SSD1306_UpdateScreen();
 8000e06:	f001 fccb 	bl	80027a0 <SSD1306_UpdateScreen>
				free(bf);
 8000e0a:	0028      	movs	r0, r5
 8000e0c:	f003 ffbc 	bl	8004d88 <free>
 8000e10:	e6f1      	b.n	8000bf6 <timeSet+0x1a>
				case 1: sprintf(bf, "Month=%02ld", setDate.month); break;
 8000e12:	003a      	movs	r2, r7
 8000e14:	4912      	ldr	r1, [pc, #72]	; (8000e60 <timeSet+0x284>)
 8000e16:	e7ed      	b.n	8000df4 <timeSet+0x218>
				case 2: sprintf(bf, "Day=%02ld", setDate.day); break;
 8000e18:	0022      	movs	r2, r4
 8000e1a:	4912      	ldr	r1, [pc, #72]	; (8000e64 <timeSet+0x288>)
 8000e1c:	e7ea      	b.n	8000df4 <timeSet+0x218>
				case 3: sprintf(bf, "Hour=%02ld", setTime.hour); break;
 8000e1e:	9a01      	ldr	r2, [sp, #4]
 8000e20:	4911      	ldr	r1, [pc, #68]	; (8000e68 <timeSet+0x28c>)
 8000e22:	e7e7      	b.n	8000df4 <timeSet+0x218>
				case 4: sprintf(bf, "Min=%02ld", setTime.min); break;
 8000e24:	0032      	movs	r2, r6
 8000e26:	4911      	ldr	r1, [pc, #68]	; (8000e6c <timeSet+0x290>)
 8000e28:	e7e4      	b.n	8000df4 <timeSet+0x218>
				case 5: sprintf(bf, "Sec=%02ld", setTime.sec); break;
 8000e2a:	9a02      	ldr	r2, [sp, #8]
 8000e2c:	4910      	ldr	r1, [pc, #64]	; (8000e70 <timeSet+0x294>)
 8000e2e:	e7e1      	b.n	8000df4 <timeSet+0x218>
 8000e30:	000007e6 	.word	0x000007e6
 8000e34:	200008c9 	.word	0x200008c9
 8000e38:	20000430 	.word	0x20000430
 8000e3c:	200008ca 	.word	0x200008ca
 8000e40:	00000832 	.word	0x00000832
 8000e44:	2000001c 	.word	0x2000001c
 8000e48:	00000e74 	.word	0x00000e74
 8000e4c:	2000003c 	.word	0x2000003c
 8000e50:	20000028 	.word	0x20000028
 8000e54:	08006109 	.word	0x08006109
 8000e58:	08006113 	.word	0x08006113
 8000e5c:	08006125 	.word	0x08006125
 8000e60:	08006130 	.word	0x08006130
 8000e64:	0800613c 	.word	0x0800613c
 8000e68:	08006146 	.word	0x08006146
 8000e6c:	08006151 	.word	0x08006151
 8000e70:	0800615b 	.word	0x0800615b

08000e74 <mainM>:

MODE mainM(){
 8000e74:	b5f0      	push	{r4, r5, r6, r7, lr}
	if(fireF){
 8000e76:	4b78      	ldr	r3, [pc, #480]	; (8001058 <mainM+0x1e4>)
MODE mainM(){
 8000e78:	b085      	sub	sp, #20
	if(fireF){
 8000e7a:	781b      	ldrb	r3, [r3, #0]
 8000e7c:	2b00      	cmp	r3, #0
 8000e7e:	d023      	beq.n	8000ec8 <mainM+0x54>
		fireF = false;
 8000e80:	2300      	movs	r3, #0
 8000e82:	4a75      	ldr	r2, [pc, #468]	; (8001058 <mainM+0x1e4>)
		basicScreen();
		for(uint8_t i = 0; i < 36; i++)
			if(pt[i].store) led_color(pt[i].pos, PTR, PTG, PTB);
 8000e84:	2504      	movs	r5, #4
		fireF = false;
 8000e86:	7013      	strb	r3, [r2, #0]
		basicScreen();
 8000e88:	f7ff fcbe 	bl	8000808 <basicScreen>
		for(uint8_t i = 0; i < 36; i++)
 8000e8c:	2390      	movs	r3, #144	; 0x90
			if(pt[i].store) led_color(pt[i].pos, PTR, PTG, PTB);
 8000e8e:	2601      	movs	r6, #1
 8000e90:	4c72      	ldr	r4, [pc, #456]	; (800105c <mainM+0x1e8>)
 8000e92:	009b      	lsls	r3, r3, #2
 8000e94:	18e7      	adds	r7, r4, r3
 8000e96:	8963      	ldrh	r3, [r4, #10]
 8000e98:	2b00      	cmp	r3, #0
 8000e9a:	d00d      	beq.n	8000eb8 <mainM+0x44>
 8000e9c:	7921      	ldrb	r1, [r4, #4]
 8000e9e:	2200      	movs	r2, #0
 8000ea0:	002b      	movs	r3, r5
 8000ea2:	79a0      	ldrb	r0, [r4, #6]
 8000ea4:	2901      	cmp	r1, #1
 8000ea6:	d005      	beq.n	8000eb4 <mainM+0x40>
 8000ea8:	2903      	cmp	r1, #3
 8000eaa:	d000      	beq.n	8000eae <mainM+0x3a>
 8000eac:	e0cc      	b.n	8001048 <mainM+0x1d4>
 8000eae:	002a      	movs	r2, r5
 8000eb0:	2100      	movs	r1, #0
 8000eb2:	2304      	movs	r3, #4
 8000eb4:	f7ff fc40 	bl	8000738 <led_color>
		for(uint8_t i = 0; i < 36; i++)
 8000eb8:	3410      	adds	r4, #16
 8000eba:	42a7      	cmp	r7, r4
 8000ebc:	d1eb      	bne.n	8000e96 <mainM+0x22>
		led_update();
 8000ebe:	f7ff fc47 	bl	8000750 <led_update>
		sel = 0;
 8000ec2:	2200      	movs	r2, #0
 8000ec4:	4b66      	ldr	r3, [pc, #408]	; (8001060 <mainM+0x1ec>)
 8000ec6:	701a      	strb	r2, [r3, #0]
	}
	if(RE1){
 8000ec8:	4b66      	ldr	r3, [pc, #408]	; (8001064 <mainM+0x1f0>)
 8000eca:	4f67      	ldr	r7, [pc, #412]	; (8001068 <mainM+0x1f4>)
 8000ecc:	781b      	ldrb	r3, [r3, #0]
 8000ece:	2b63      	cmp	r3, #99	; 0x63
 8000ed0:	d959      	bls.n	8000f86 <mainM+0x112>
		if(JOY_U && sel)sel--;
 8000ed2:	21fa      	movs	r1, #250	; 0xfa
 8000ed4:	4b65      	ldr	r3, [pc, #404]	; (800106c <mainM+0x1f8>)
 8000ed6:	0109      	lsls	r1, r1, #4
 8000ed8:	881a      	ldrh	r2, [r3, #0]
 8000eda:	428a      	cmp	r2, r1
 8000edc:	d908      	bls.n	8000ef0 <mainM+0x7c>
 8000ede:	4a60      	ldr	r2, [pc, #384]	; (8001060 <mainM+0x1ec>)
 8000ee0:	7813      	ldrb	r3, [r2, #0]
 8000ee2:	2b00      	cmp	r3, #0
 8000ee4:	d001      	beq.n	8000eea <mainM+0x76>
 8000ee6:	3b01      	subs	r3, #1
		if(JOY_D && sel < 4) sel++;
 8000ee8:	7013      	strb	r3, [r2, #0]
		if(JOY_U || JOY_D || JOY_R || JOY_L) udf = true;
 8000eea:	2301      	movs	r3, #1
 8000eec:	703b      	strb	r3, [r7, #0]
 8000eee:	e010      	b.n	8000f12 <mainM+0x9e>
		if(JOY_D && sel < 4) sel++;
 8000ef0:	2196      	movs	r1, #150	; 0x96
 8000ef2:	0049      	lsls	r1, r1, #1
 8000ef4:	428a      	cmp	r2, r1
 8000ef6:	d205      	bcs.n	8000f04 <mainM+0x90>
 8000ef8:	4a59      	ldr	r2, [pc, #356]	; (8001060 <mainM+0x1ec>)
 8000efa:	7813      	ldrb	r3, [r2, #0]
 8000efc:	2b03      	cmp	r3, #3
 8000efe:	d8f4      	bhi.n	8000eea <mainM+0x76>
 8000f00:	3301      	adds	r3, #1
 8000f02:	e7f1      	b.n	8000ee8 <mainM+0x74>
		if(JOY_U || JOY_D || JOY_R || JOY_L) udf = true;
 8000f04:	885b      	ldrh	r3, [r3, #2]
 8000f06:	4a5a      	ldr	r2, [pc, #360]	; (8001070 <mainM+0x1fc>)
 8000f08:	3b2d      	subs	r3, #45	; 0x2d
 8000f0a:	3bff      	subs	r3, #255	; 0xff
 8000f0c:	b29b      	uxth	r3, r3
 8000f0e:	4293      	cmp	r3, r2
 8000f10:	d8eb      	bhi.n	8000eea <mainM+0x76>

		date.year = 0;
 8000f12:	2500      	movs	r5, #0
 8000f14:	4c57      	ldr	r4, [pc, #348]	; (8001074 <mainM+0x200>)
		DS3231_get_date(&date.day, &date.month, (uint8_t *)&date.year);
 8000f16:	0020      	movs	r0, r4
 8000f18:	1ca2      	adds	r2, r4, #2
 8000f1a:	1c61      	adds	r1, r4, #1
		date.year = 0;
 8000f1c:	8065      	strh	r5, [r4, #2]
		DS3231_get_date(&date.day, &date.month, (uint8_t *)&date.year);
 8000f1e:	f7ff fbaf 	bl	8000680 <DS3231_get_date>
		DS3231_get_time(&time.sec, &time.min, &time.hour);
 8000f22:	4e55      	ldr	r6, [pc, #340]	; (8001078 <mainM+0x204>)
 8000f24:	0032      	movs	r2, r6
 8000f26:	1c71      	adds	r1, r6, #1
 8000f28:	1cb0      	adds	r0, r6, #2
 8000f2a:	f7ff fb13 	bl	8000554 <DS3231_get_time>
		date.year += 1992;
 8000f2e:	22f9      	movs	r2, #249	; 0xf9
 8000f30:	8863      	ldrh	r3, [r4, #2]
 8000f32:	00d2      	lsls	r2, r2, #3
 8000f34:	189b      	adds	r3, r3, r2
 8000f36:	b29b      	uxth	r3, r3

		String bf = (String)calloc(0, sizeof(char) * 16);
 8000f38:	2110      	movs	r1, #16
 8000f3a:	0028      	movs	r0, r5
		date.year += 1992;
 8000f3c:	9303      	str	r3, [sp, #12]
 8000f3e:	8063      	strh	r3, [r4, #2]
		String bf = (String)calloc(0, sizeof(char) * 16);
 8000f40:	f003 feee 	bl	8004d20 <calloc>
 8000f44:	0005      	movs	r5, r0
		sprintf(bf, "%04d.%02d.%02d", date.year, date.month, date.day);
 8000f46:	7822      	ldrb	r2, [r4, #0]
 8000f48:	7863      	ldrb	r3, [r4, #1]
 8000f4a:	494c      	ldr	r1, [pc, #304]	; (800107c <mainM+0x208>)
 8000f4c:	9200      	str	r2, [sp, #0]
 8000f4e:	9a03      	ldr	r2, [sp, #12]
 8000f50:	f004 f868 	bl	8005024 <siprintf>
		SSD1306_PutsXY(11, 3, bf, 1);
 8000f54:	2301      	movs	r3, #1
 8000f56:	002a      	movs	r2, r5
 8000f58:	2103      	movs	r1, #3
 8000f5a:	200b      	movs	r0, #11
 8000f5c:	f7ff fc44 	bl	80007e8 <SSD1306_PutsXY>
		sprintf(bf, "%02d:%02d:%02d", time.hour, time.min, time.sec);
 8000f60:	78b1      	ldrb	r1, [r6, #2]
 8000f62:	7873      	ldrb	r3, [r6, #1]
 8000f64:	7832      	ldrb	r2, [r6, #0]
 8000f66:	0028      	movs	r0, r5
 8000f68:	9100      	str	r1, [sp, #0]
 8000f6a:	4945      	ldr	r1, [pc, #276]	; (8001080 <mainM+0x20c>)
 8000f6c:	f004 f85a 	bl	8005024 <siprintf>
		SSD1306_PutsXY(13, 4, bf, 1);
 8000f70:	200d      	movs	r0, #13
 8000f72:	2301      	movs	r3, #1
 8000f74:	002a      	movs	r2, r5
 8000f76:	2104      	movs	r1, #4
 8000f78:	f7ff fc36 	bl	80007e8 <SSD1306_PutsXY>
		SSD1306_UpdateScreen();
 8000f7c:	f001 fc10 	bl	80027a0 <SSD1306_UpdateScreen>
		free(bf);
 8000f80:	0028      	movs	r0, r5
 8000f82:	f003 ff01 	bl	8004d88 <free>
	}
	if(JOY_P){
 8000f86:	20a0      	movs	r0, #160	; 0xa0
 8000f88:	2104      	movs	r1, #4
 8000f8a:	05c0      	lsls	r0, r0, #23
 8000f8c:	f002 fb40 	bl	8003610 <HAL_GPIO_ReadPin>
		if(!oldsw){
 8000f90:	4b3c      	ldr	r3, [pc, #240]	; (8001084 <mainM+0x210>)
 8000f92:	781b      	ldrb	r3, [r3, #0]
 8000f94:	4318      	orrs	r0, r3
 8000f96:	b2c0      	uxtb	r0, r0
 8000f98:	2800      	cmp	r0, #0
 8000f9a:	d11f      	bne.n	8000fdc <mainM+0x168>
			swS();
 8000f9c:	f7ff fc42 	bl	8000824 <swS>
			if(ptC || !sel){
 8000fa0:	4b39      	ldr	r3, [pc, #228]	; (8001088 <mainM+0x214>)
 8000fa2:	781a      	ldrb	r2, [r3, #0]
 8000fa4:	4b2e      	ldr	r3, [pc, #184]	; (8001060 <mainM+0x1ec>)
 8000fa6:	2a00      	cmp	r2, #0
 8000fa8:	d102      	bne.n	8000fb0 <mainM+0x13c>
 8000faa:	781a      	ldrb	r2, [r3, #0]
 8000fac:	2a00      	cmp	r2, #0
 8000fae:	d112      	bne.n	8000fd6 <mainM+0x162>
				udf = true;
 8000fb0:	2001      	movs	r0, #1
				fireF = true;
 8000fb2:	4a29      	ldr	r2, [pc, #164]	; (8001058 <mainM+0x1e4>)
				return sel == 0 ? PSAVE : sel == 1 ? PUSE : sel == 2 ? PFIND : sel == 4 ? PARTITION : PLOG;
 8000fb4:	781b      	ldrb	r3, [r3, #0]
				udf = true;
 8000fb6:	7038      	strb	r0, [r7, #0]
				fireF = true;
 8000fb8:	7010      	strb	r0, [r2, #0]
				return sel == 0 ? PSAVE : sel == 1 ? PUSE : sel == 2 ? PFIND : sel == 4 ? PARTITION : PLOG;
 8000fba:	2b00      	cmp	r3, #0
 8000fbc:	d009      	beq.n	8000fd2 <mainM+0x15e>
 8000fbe:	1800      	adds	r0, r0, r0
 8000fc0:	2b01      	cmp	r3, #1
 8000fc2:	d006      	beq.n	8000fd2 <mainM+0x15e>
 8000fc4:	3003      	adds	r0, #3
 8000fc6:	2b02      	cmp	r3, #2
 8000fc8:	d003      	beq.n	8000fd2 <mainM+0x15e>
 8000fca:	1f18      	subs	r0, r3, #4
 8000fcc:	1e43      	subs	r3, r0, #1
 8000fce:	4198      	sbcs	r0, r3
 8000fd0:	3007      	adds	r0, #7
		SSD1306_PutsXY(1, 6, "Part log", 1);

		SSD1306_PutsXY(0, sel + 2, ">", 1);
	}
	return MAIN;
}
 8000fd2:	b005      	add	sp, #20
 8000fd4:	bdf0      	pop	{r4, r5, r6, r7, pc}
			}else buzFlag = 1;
 8000fd6:	2201      	movs	r2, #1
 8000fd8:	4b2c      	ldr	r3, [pc, #176]	; (800108c <mainM+0x218>)
 8000fda:	701a      	strb	r2, [r3, #0]
	if(udf){
 8000fdc:	7838      	ldrb	r0, [r7, #0]
 8000fde:	2800      	cmp	r0, #0
 8000fe0:	d0f7      	beq.n	8000fd2 <mainM+0x15e>
		udf = false;
 8000fe2:	2400      	movs	r4, #0
 8000fe4:	703c      	strb	r4, [r7, #0]
		basicScreen();
 8000fe6:	f7ff fc0f 	bl	8000808 <basicScreen>
		SSD1306_PutsXY(0, 0, "#Menu", 0);
 8000fea:	0023      	movs	r3, r4
 8000fec:	0021      	movs	r1, r4
 8000fee:	0020      	movs	r0, r4
 8000ff0:	4a27      	ldr	r2, [pc, #156]	; (8001090 <mainM+0x21c>)
 8000ff2:	f7ff fbf9 	bl	80007e8 <SSD1306_PutsXY>
		SSD1306_PutsXY(1, 2, "Part save", 1);
 8000ff6:	2301      	movs	r3, #1
 8000ff8:	2102      	movs	r1, #2
 8000ffa:	0018      	movs	r0, r3
 8000ffc:	4a25      	ldr	r2, [pc, #148]	; (8001094 <mainM+0x220>)
 8000ffe:	f7ff fbf3 	bl	80007e8 <SSD1306_PutsXY>
		SSD1306_PutsXY(1, 3, "Part use", 1);
 8001002:	2301      	movs	r3, #1
 8001004:	2103      	movs	r1, #3
 8001006:	0018      	movs	r0, r3
 8001008:	4a23      	ldr	r2, [pc, #140]	; (8001098 <mainM+0x224>)
 800100a:	f7ff fbed 	bl	80007e8 <SSD1306_PutsXY>
		SSD1306_PutsXY(1, 4, "Part find", 1);
 800100e:	2301      	movs	r3, #1
 8001010:	2104      	movs	r1, #4
 8001012:	0018      	movs	r0, r3
 8001014:	4a21      	ldr	r2, [pc, #132]	; (800109c <mainM+0x228>)
 8001016:	f7ff fbe7 	bl	80007e8 <SSD1306_PutsXY>
		SSD1306_PutsXY(1, 5, "Partition", 1);
 800101a:	2301      	movs	r3, #1
 800101c:	2105      	movs	r1, #5
 800101e:	0018      	movs	r0, r3
 8001020:	4a1f      	ldr	r2, [pc, #124]	; (80010a0 <mainM+0x22c>)
 8001022:	f7ff fbe1 	bl	80007e8 <SSD1306_PutsXY>
		SSD1306_PutsXY(1, 6, "Part log", 1);
 8001026:	2301      	movs	r3, #1
 8001028:	2106      	movs	r1, #6
 800102a:	0018      	movs	r0, r3
 800102c:	4a1d      	ldr	r2, [pc, #116]	; (80010a4 <mainM+0x230>)
 800102e:	f7ff fbdb 	bl	80007e8 <SSD1306_PutsXY>
		SSD1306_PutsXY(0, sel + 2, ">", 1);
 8001032:	4b0b      	ldr	r3, [pc, #44]	; (8001060 <mainM+0x1ec>)
 8001034:	0020      	movs	r0, r4
 8001036:	7819      	ldrb	r1, [r3, #0]
 8001038:	4a1b      	ldr	r2, [pc, #108]	; (80010a8 <mainM+0x234>)
 800103a:	3102      	adds	r1, #2
 800103c:	2301      	movs	r3, #1
 800103e:	b2c9      	uxtb	r1, r1
 8001040:	f7ff fbd2 	bl	80007e8 <SSD1306_PutsXY>
	return MAIN;
 8001044:	0020      	movs	r0, r4
 8001046:	e7c4      	b.n	8000fd2 <mainM+0x15e>
			if(pt[i].store) led_color(pt[i].pos, PTR, PTG, PTB);
 8001048:	0032      	movs	r2, r6
 800104a:	2902      	cmp	r1, #2
 800104c:	d100      	bne.n	8001050 <mainM+0x1dc>
 800104e:	002a      	movs	r2, r5
 8001050:	0029      	movs	r1, r5
 8001052:	2300      	movs	r3, #0
 8001054:	e72e      	b.n	8000eb4 <mainM+0x40>
 8001056:	46c0      	nop			; (mov r8, r8)
 8001058:	20000008 	.word	0x20000008
 800105c:	2000066c 	.word	0x2000066c
 8001060:	200008ca 	.word	0x200008ca
 8001064:	200008c9 	.word	0x200008c9
 8001068:	2000003c 	.word	0x2000003c
 800106c:	20000430 	.word	0x20000430
 8001070:	00000e74 	.word	0x00000e74
 8001074:	20000438 	.word	0x20000438
 8001078:	200008cd 	.word	0x200008cd
 800107c:	08006165 	.word	0x08006165
 8001080:	08006174 	.word	0x08006174
 8001084:	20000028 	.word	0x20000028
 8001088:	200008ac 	.word	0x200008ac
 800108c:	20000436 	.word	0x20000436
 8001090:	08006183 	.word	0x08006183
 8001094:	08006189 	.word	0x08006189
 8001098:	08006193 	.word	0x08006193
 800109c:	0800619c 	.word	0x0800619c
 80010a0:	080061a6 	.word	0x080061a6
 80010a4:	080061b0 	.word	0x080061b0
 80010a8:	080061b9 	.word	0x080061b9

080010ac <partS>:

MODE partS(){
 80010ac:	b5f0      	push	{r4, r5, r6, r7, lr}
	if(fireF){
 80010ae:	4bb5      	ldr	r3, [pc, #724]	; (8001384 <partS+0x2d8>)
MODE partS(){
 80010b0:	b085      	sub	sp, #20
	if(fireF){
 80010b2:	781b      	ldrb	r3, [r3, #0]
 80010b4:	2b00      	cmp	r3, #0
 80010b6:	d01a      	beq.n	80010ee <partS+0x42>
		fireF = false;
 80010b8:	2200      	movs	r2, #0
 80010ba:	4bb2      	ldr	r3, [pc, #712]	; (8001384 <partS+0x2d8>)

		sel = 0;
		tempX = 1;
		tempY = 1;
		ledPos = 30;
 80010bc:	201e      	movs	r0, #30
		fireF = false;
 80010be:	701a      	strb	r2, [r3, #0]
		sel = 0;
 80010c0:	4bb1      	ldr	r3, [pc, #708]	; (8001388 <partS+0x2dc>)
		tempX = 1;
 80010c2:	49b2      	ldr	r1, [pc, #712]	; (800138c <partS+0x2e0>)
		sel = 0;
 80010c4:	701a      	strb	r2, [r3, #0]
		tempX = 1;
 80010c6:	2301      	movs	r3, #1
 80010c8:	700b      	strb	r3, [r1, #0]
		tempY = 1;
 80010ca:	49b1      	ldr	r1, [pc, #708]	; (8001390 <partS+0x2e4>)
 80010cc:	700b      	strb	r3, [r1, #0]
		ledPos = 30;
 80010ce:	49b1      	ldr	r1, [pc, #708]	; (8001394 <partS+0x2e8>)
 80010d0:	7008      	strb	r0, [r1, #0]

		ptInNum = 1;
 80010d2:	49b1      	ldr	r1, [pc, #708]	; (8001398 <partS+0x2ec>)
 80010d4:	700b      	strb	r3, [r1, #0]
		pt[ptC].cate = 0;
 80010d6:	4bb1      	ldr	r3, [pc, #708]	; (800139c <partS+0x2f0>)
 80010d8:	7819      	ldrb	r1, [r3, #0]
 80010da:	4bb1      	ldr	r3, [pc, #708]	; (80013a0 <partS+0x2f4>)
 80010dc:	0109      	lsls	r1, r1, #4
 80010de:	185b      	adds	r3, r3, r1
 80010e0:	711a      	strb	r2, [r3, #4]
		pt[ptC].max = 200;
 80010e2:	32c8      	adds	r2, #200	; 0xc8
 80010e4:	819a      	strh	r2, [r3, #12]

		led_clear();
 80010e6:	f7ff fb5d 	bl	80007a4 <led_clear>
		led_update();
 80010ea:	f7ff fb31 	bl	8000750 <led_update>
	}
	if(RE1){
 80010ee:	4bad      	ldr	r3, [pc, #692]	; (80013a4 <partS+0x2f8>)
 80010f0:	781a      	ldrb	r2, [r3, #0]
 80010f2:	2a63      	cmp	r2, #99	; 0x63
 80010f4:	d92b      	bls.n	800114e <partS+0xa2>
		uint8_t i;
		reC = 0;
 80010f6:	2200      	movs	r2, #0
 80010f8:	701a      	strb	r2, [r3, #0]
		if(ptSetPosF){
 80010fa:	4aab      	ldr	r2, [pc, #684]	; (80013a8 <partS+0x2fc>)
			if(JOY_R){
 80010fc:	4cab      	ldr	r4, [pc, #684]	; (80013ac <partS+0x300>)
		if(ptSetPosF){
 80010fe:	7811      	ldrb	r1, [r2, #0]
 8001100:	22fa      	movs	r2, #250	; 0xfa
			if(JOY_R){
 8001102:	8863      	ldrh	r3, [r4, #2]
 8001104:	0112      	lsls	r2, r2, #4
		if(ptSetPosF){
 8001106:	2900      	cmp	r1, #0
 8001108:	d100      	bne.n	800110c <partS+0x60>
 800110a:	e0b9      	b.n	8001280 <partS+0x1d4>
			if(JOY_R){
 800110c:	4293      	cmp	r3, r2
 800110e:	d956      	bls.n	80011be <partS+0x112>
				if(tempX < 6){
 8001110:	4e9e      	ldr	r6, [pc, #632]	; (800138c <partS+0x2e0>)
 8001112:	7833      	ldrb	r3, [r6, #0]
 8001114:	2b05      	cmp	r3, #5
 8001116:	d96b      	bls.n	80011f0 <partS+0x144>
							break;
						}
					}
				}
			}
			if(JOY_U){
 8001118:	23fa      	movs	r3, #250	; 0xfa
 800111a:	8822      	ldrh	r2, [r4, #0]
 800111c:	011b      	lsls	r3, r3, #4
 800111e:	429a      	cmp	r2, r3
 8001120:	d800      	bhi.n	8001124 <partS+0x78>
 8001122:	e085      	b.n	8001230 <partS+0x184>
				if(tempY < 6){
 8001124:	4e9a      	ldr	r6, [pc, #616]	; (8001390 <partS+0x2e4>)
 8001126:	7833      	ldrb	r3, [r6, #0]
 8001128:	2b05      	cmp	r3, #5
 800112a:	d800      	bhi.n	800112e <partS+0x82>
 800112c:	e09e      	b.n	800126c <partS+0x1c0>
				if(sel == 3 && pt[ptC].pos) pt[ptC].pos--;
			}
			if(JOY_U && sel) sel--;
			if(JOY_D && sel < 4) sel++;
		}
		if(JOY_R || JOY_L || JOY_U || JOY_D) udf = true;
 800112e:	8863      	ldrh	r3, [r4, #2]
 8001130:	4a9f      	ldr	r2, [pc, #636]	; (80013b0 <partS+0x304>)
 8001132:	3b2d      	subs	r3, #45	; 0x2d
 8001134:	3bff      	subs	r3, #255	; 0xff
 8001136:	b29b      	uxth	r3, r3
 8001138:	4293      	cmp	r3, r2
 800113a:	d805      	bhi.n	8001148 <partS+0x9c>
 800113c:	8823      	ldrh	r3, [r4, #0]
 800113e:	3b2d      	subs	r3, #45	; 0x2d
 8001140:	3bff      	subs	r3, #255	; 0xff
 8001142:	b29b      	uxth	r3, r3
 8001144:	4293      	cmp	r3, r2
 8001146:	d902      	bls.n	800114e <partS+0xa2>
 8001148:	2201      	movs	r2, #1
 800114a:	4b9a      	ldr	r3, [pc, #616]	; (80013b4 <partS+0x308>)
 800114c:	701a      	strb	r2, [r3, #0]
	}
	if(JOY_P){
 800114e:	20a0      	movs	r0, #160	; 0xa0
 8001150:	2104      	movs	r1, #4
 8001152:	05c0      	lsls	r0, r0, #23
 8001154:	f002 fa5c 	bl	8003610 <HAL_GPIO_ReadPin>
		if(!oldsw){
 8001158:	4b97      	ldr	r3, [pc, #604]	; (80013b8 <partS+0x30c>)
 800115a:	4f96      	ldr	r7, [pc, #600]	; (80013b4 <partS+0x308>)
 800115c:	781c      	ldrb	r4, [r3, #0]
 800115e:	4304      	orrs	r4, r0
 8001160:	b2e4      	uxtb	r4, r4
 8001162:	2c00      	cmp	r4, #0
 8001164:	d111      	bne.n	800118a <partS+0xde>
			swS();
 8001166:	f7ff fb5d 	bl	8000824 <swS>
			if(sel == 1){
 800116a:	4b87      	ldr	r3, [pc, #540]	; (8001388 <partS+0x2dc>)
 800116c:	781b      	ldrb	r3, [r3, #0]
 800116e:	9303      	str	r3, [sp, #12]
 8001170:	2b01      	cmp	r3, #1
 8001172:	d000      	beq.n	8001176 <partS+0xca>
 8001174:	e122      	b.n	80013bc <partS+0x310>
				udf = true;
 8001176:	703b      	strb	r3, [r7, #0]
				pt[ptC].name = textIn(false, 10);
 8001178:	4b88      	ldr	r3, [pc, #544]	; (800139c <partS+0x2f0>)
 800117a:	210a      	movs	r1, #10
 800117c:	0020      	movs	r0, r4
 800117e:	781d      	ldrb	r5, [r3, #0]
 8001180:	f7ff fbde 	bl	8000940 <textIn>
 8001184:	4b86      	ldr	r3, [pc, #536]	; (80013a0 <partS+0x2f4>)
 8001186:	012d      	lsls	r5, r5, #4
 8001188:	5158      	str	r0, [r3, r5]
					return MAIN;
				}
			}
		}
	}
	if(udf){
 800118a:	783b      	ldrb	r3, [r7, #0]
		for(uint8_t i = 0; i < 5; i++) SSD1306_PutsXY(0, i + 3, i == sel ? ">" : " ", 1);

		free(bf);
		SSD1306_UpdateScreen();
	}
	return PSAVE;
 800118c:	2401      	movs	r4, #1
	if(udf){
 800118e:	2b00      	cmp	r3, #0
 8001190:	d100      	bne.n	8001194 <partS+0xe8>
 8001192:	e1b2      	b.n	80014fa <partS+0x44e>
 8001194:	e11d      	b.n	80013d2 <partS+0x326>
					for(i = 1; i <= (6 - tempX); i++){
 8001196:	3501      	adds	r5, #1
 8001198:	b2ed      	uxtb	r5, r5
 800119a:	7833      	ldrb	r3, [r6, #0]
 800119c:	1afb      	subs	r3, r7, r3
 800119e:	429d      	cmp	r5, r3
 80011a0:	dc0d      	bgt.n	80011be <partS+0x112>
						if(led_cmp((ledPos + i), 0, 4, 0) == 3){
 80011a2:	4b7c      	ldr	r3, [pc, #496]	; (8001394 <partS+0x2e8>)
 80011a4:	2204      	movs	r2, #4
 80011a6:	7818      	ldrb	r0, [r3, #0]
 80011a8:	2300      	movs	r3, #0
 80011aa:	1828      	adds	r0, r5, r0
 80011ac:	0019      	movs	r1, r3
 80011ae:	b2c0      	uxtb	r0, r0
 80011b0:	f7ff fb02 	bl	80007b8 <led_cmp>
 80011b4:	2803      	cmp	r0, #3
 80011b6:	d1ee      	bne.n	8001196 <partS+0xea>
							tempX += i;
 80011b8:	7833      	ldrb	r3, [r6, #0]
 80011ba:	18ed      	adds	r5, r5, r3
 80011bc:	7035      	strb	r5, [r6, #0]
			if(JOY_L){
 80011be:	2396      	movs	r3, #150	; 0x96
 80011c0:	8862      	ldrh	r2, [r4, #2]
 80011c2:	005b      	lsls	r3, r3, #1
 80011c4:	429a      	cmp	r2, r3
 80011c6:	d2a7      	bcs.n	8001118 <partS+0x6c>
				if(tempX > 1){
 80011c8:	4e70      	ldr	r6, [pc, #448]	; (800138c <partS+0x2e0>)
 80011ca:	7833      	ldrb	r3, [r6, #0]
 80011cc:	2b01      	cmp	r3, #1
 80011ce:	d9a3      	bls.n	8001118 <partS+0x6c>
					for(i = 1; i < tempX; i++){
 80011d0:	2501      	movs	r5, #1
						if(led_cmp((ledPos - i), 0, 4, 0) == 3){
 80011d2:	4b70      	ldr	r3, [pc, #448]	; (8001394 <partS+0x2e8>)
 80011d4:	2204      	movs	r2, #4
 80011d6:	7818      	ldrb	r0, [r3, #0]
 80011d8:	2300      	movs	r3, #0
 80011da:	1b40      	subs	r0, r0, r5
 80011dc:	0019      	movs	r1, r3
 80011de:	b2c0      	uxtb	r0, r0
 80011e0:	f7ff faea 	bl	80007b8 <led_cmp>
 80011e4:	2803      	cmp	r0, #3
 80011e6:	d106      	bne.n	80011f6 <partS+0x14a>
							tempX -= i;
 80011e8:	7833      	ldrb	r3, [r6, #0]
 80011ea:	1b5d      	subs	r5, r3, r5
 80011ec:	7035      	strb	r5, [r6, #0]
							break;
 80011ee:	e793      	b.n	8001118 <partS+0x6c>
					for(i = 1; i <= (6 - tempX); i++){
 80011f0:	2501      	movs	r5, #1
 80011f2:	2706      	movs	r7, #6
 80011f4:	e7d1      	b.n	800119a <partS+0xee>
					for(i = 1; i < tempX; i++){
 80011f6:	3501      	adds	r5, #1
 80011f8:	7833      	ldrb	r3, [r6, #0]
 80011fa:	b2ed      	uxtb	r5, r5
 80011fc:	42ab      	cmp	r3, r5
 80011fe:	d8e8      	bhi.n	80011d2 <partS+0x126>
 8001200:	e78a      	b.n	8001118 <partS+0x6c>
					for(i = 1; i <= (6 - tempY); i++){
 8001202:	3501      	adds	r5, #1
 8001204:	b2ed      	uxtb	r5, r5
 8001206:	2206      	movs	r2, #6
 8001208:	7833      	ldrb	r3, [r6, #0]
 800120a:	1ad3      	subs	r3, r2, r3
 800120c:	429d      	cmp	r5, r3
 800120e:	dc0f      	bgt.n	8001230 <partS+0x184>
						if(led_cmp(ledPos - (6 * i), 0, 4, 0) == 3){
 8001210:	4b60      	ldr	r3, [pc, #384]	; (8001394 <partS+0x2e8>)
 8001212:	2204      	movs	r2, #4
 8001214:	7818      	ldrb	r0, [r3, #0]
 8001216:	003b      	movs	r3, r7
 8001218:	436b      	muls	r3, r5
 800121a:	18c0      	adds	r0, r0, r3
 800121c:	2300      	movs	r3, #0
 800121e:	b2c0      	uxtb	r0, r0
 8001220:	0019      	movs	r1, r3
 8001222:	f7ff fac9 	bl	80007b8 <led_cmp>
 8001226:	2803      	cmp	r0, #3
 8001228:	d1eb      	bne.n	8001202 <partS+0x156>
							tempY += i;
 800122a:	7833      	ldrb	r3, [r6, #0]
 800122c:	18ed      	adds	r5, r5, r3
 800122e:	7035      	strb	r5, [r6, #0]
			if(JOY_D){
 8001230:	2396      	movs	r3, #150	; 0x96
 8001232:	8822      	ldrh	r2, [r4, #0]
 8001234:	005b      	lsls	r3, r3, #1
 8001236:	429a      	cmp	r2, r3
 8001238:	d300      	bcc.n	800123c <partS+0x190>
 800123a:	e778      	b.n	800112e <partS+0x82>
				if(tempY > 1){
 800123c:	4e54      	ldr	r6, [pc, #336]	; (8001390 <partS+0x2e4>)
 800123e:	7833      	ldrb	r3, [r6, #0]
 8001240:	2b01      	cmp	r3, #1
 8001242:	d800      	bhi.n	8001246 <partS+0x19a>
 8001244:	e773      	b.n	800112e <partS+0x82>
					for(i = 1; i <=  tempY; i++){
 8001246:	2501      	movs	r5, #1
						if(led_cmp(ledPos +(6 * i), 0, 4, 0) == 3){
 8001248:	2706      	movs	r7, #6
 800124a:	4b52      	ldr	r3, [pc, #328]	; (8001394 <partS+0x2e8>)
 800124c:	2204      	movs	r2, #4
 800124e:	7818      	ldrb	r0, [r3, #0]
 8001250:	003b      	movs	r3, r7
 8001252:	436b      	muls	r3, r5
 8001254:	18c0      	adds	r0, r0, r3
 8001256:	2300      	movs	r3, #0
 8001258:	b2c0      	uxtb	r0, r0
 800125a:	0019      	movs	r1, r3
 800125c:	f7ff faac 	bl	80007b8 <led_cmp>
 8001260:	2803      	cmp	r0, #3
 8001262:	d107      	bne.n	8001274 <partS+0x1c8>
							tempY -= i;
 8001264:	7833      	ldrb	r3, [r6, #0]
 8001266:	1b5d      	subs	r5, r3, r5
 8001268:	7035      	strb	r5, [r6, #0]
							break;
 800126a:	e760      	b.n	800112e <partS+0x82>
						if(led_cmp(ledPos - (6 * i), 0, 4, 0) == 3){
 800126c:	2706      	movs	r7, #6
					for(i = 1; i <= (6 - tempY); i++){
 800126e:	2501      	movs	r5, #1
						if(led_cmp(ledPos - (6 * i), 0, 4, 0) == 3){
 8001270:	427f      	negs	r7, r7
 8001272:	e7c8      	b.n	8001206 <partS+0x15a>
					for(i = 1; i <=  tempY; i++){
 8001274:	3501      	adds	r5, #1
 8001276:	7833      	ldrb	r3, [r6, #0]
 8001278:	b2ed      	uxtb	r5, r5
 800127a:	42ab      	cmp	r3, r5
 800127c:	d2e5      	bcs.n	800124a <partS+0x19e>
 800127e:	e756      	b.n	800112e <partS+0x82>
			if(JOY_R){
 8001280:	4293      	cmp	r3, r2
 8001282:	d94c      	bls.n	800131e <partS+0x272>
				if(sel == 0){
 8001284:	4b40      	ldr	r3, [pc, #256]	; (8001388 <partS+0x2dc>)
 8001286:	781b      	ldrb	r3, [r3, #0]
 8001288:	2b00      	cmp	r3, #0
 800128a:	d11d      	bne.n	80012c8 <partS+0x21c>
					if(pt[ptC].cate < 3) pt[ptC].cate++;
 800128c:	4b43      	ldr	r3, [pc, #268]	; (800139c <partS+0x2f0>)
 800128e:	4a44      	ldr	r2, [pc, #272]	; (80013a0 <partS+0x2f4>)
 8001290:	7819      	ldrb	r1, [r3, #0]
 8001292:	0109      	lsls	r1, r1, #4
 8001294:	1850      	adds	r0, r2, r1
 8001296:	7903      	ldrb	r3, [r0, #4]
 8001298:	2b02      	cmp	r3, #2
 800129a:	d801      	bhi.n	80012a0 <partS+0x1f4>
 800129c:	3301      	adds	r3, #1
					if(pt[ptC].cate) pt[ptC].cate--;
 800129e:	7103      	strb	r3, [r0, #4]
					pt[ptC].max = PTMAX;
 80012a0:	1853      	adds	r3, r2, r1
 80012a2:	7918      	ldrb	r0, [r3, #4]
 80012a4:	23c8      	movs	r3, #200	; 0xc8
 80012a6:	2800      	cmp	r0, #0
 80012a8:	d006      	beq.n	80012b8 <partS+0x20c>
 80012aa:	3b64      	subs	r3, #100	; 0x64
 80012ac:	2801      	cmp	r0, #1
 80012ae:	d003      	beq.n	80012b8 <partS+0x20c>
 80012b0:	3b32      	subs	r3, #50	; 0x32
 80012b2:	2802      	cmp	r0, #2
 80012b4:	d000      	beq.n	80012b8 <partS+0x20c>
 80012b6:	3b28      	subs	r3, #40	; 0x28
 80012b8:	1852      	adds	r2, r2, r1
 80012ba:	8193      	strh	r3, [r2, #12]
					if(ptInNum > pt[ptC].max) ptInNum = pt[ptC].max;
 80012bc:	4a36      	ldr	r2, [pc, #216]	; (8001398 <partS+0x2ec>)
 80012be:	7811      	ldrb	r1, [r2, #0]
 80012c0:	4299      	cmp	r1, r3
 80012c2:	d905      	bls.n	80012d0 <partS+0x224>
				if(sel == 2 && ptInNum > 1) ptInNum--;
 80012c4:	7013      	strb	r3, [r2, #0]
 80012c6:	e003      	b.n	80012d0 <partS+0x224>
				if(sel == 2 && ptInNum < pt[ptC].max - pt[ptC].store) ptInNum++;
 80012c8:	2b02      	cmp	r3, #2
 80012ca:	d00e      	beq.n	80012ea <partS+0x23e>
				if(sel == 3 && pt[ptC].pos < 35) pt[ptC].pos++;
 80012cc:	2b03      	cmp	r3, #3
 80012ce:	d01b      	beq.n	8001308 <partS+0x25c>
			if(JOY_U && sel) sel--;
 80012d0:	22fa      	movs	r2, #250	; 0xfa
 80012d2:	8823      	ldrh	r3, [r4, #0]
 80012d4:	0112      	lsls	r2, r2, #4
 80012d6:	4293      	cmp	r3, r2
 80012d8:	d947      	bls.n	800136a <partS+0x2be>
 80012da:	4a2b      	ldr	r2, [pc, #172]	; (8001388 <partS+0x2dc>)
 80012dc:	7813      	ldrb	r3, [r2, #0]
 80012de:	2b00      	cmp	r3, #0
 80012e0:	d100      	bne.n	80012e4 <partS+0x238>
 80012e2:	e724      	b.n	800112e <partS+0x82>
 80012e4:	3b01      	subs	r3, #1
			if(JOY_D && sel < 4) sel++;
 80012e6:	7013      	strb	r3, [r2, #0]
 80012e8:	e721      	b.n	800112e <partS+0x82>
				if(sel == 2 && ptInNum < pt[ptC].max - pt[ptC].store) ptInNum++;
 80012ea:	4a2c      	ldr	r2, [pc, #176]	; (800139c <partS+0x2f0>)
 80012ec:	482a      	ldr	r0, [pc, #168]	; (8001398 <partS+0x2ec>)
 80012ee:	7811      	ldrb	r1, [r2, #0]
 80012f0:	4a2b      	ldr	r2, [pc, #172]	; (80013a0 <partS+0x2f4>)
 80012f2:	0109      	lsls	r1, r1, #4
 80012f4:	1852      	adds	r2, r2, r1
 80012f6:	8991      	ldrh	r1, [r2, #12]
 80012f8:	7803      	ldrb	r3, [r0, #0]
 80012fa:	8952      	ldrh	r2, [r2, #10]
 80012fc:	1a8a      	subs	r2, r1, r2
 80012fe:	4293      	cmp	r3, r2
 8001300:	dae6      	bge.n	80012d0 <partS+0x224>
 8001302:	3301      	adds	r3, #1
 8001304:	7003      	strb	r3, [r0, #0]
 8001306:	e7e3      	b.n	80012d0 <partS+0x224>
				if(sel == 3 && pt[ptC].pos < 35) pt[ptC].pos++;
 8001308:	4b24      	ldr	r3, [pc, #144]	; (800139c <partS+0x2f0>)
 800130a:	781a      	ldrb	r2, [r3, #0]
 800130c:	4b24      	ldr	r3, [pc, #144]	; (80013a0 <partS+0x2f4>)
 800130e:	0112      	lsls	r2, r2, #4
 8001310:	189b      	adds	r3, r3, r2
 8001312:	799a      	ldrb	r2, [r3, #6]
 8001314:	2a22      	cmp	r2, #34	; 0x22
 8001316:	d8db      	bhi.n	80012d0 <partS+0x224>
 8001318:	3201      	adds	r2, #1
				if(sel == 3 && pt[ptC].pos) pt[ptC].pos--;
 800131a:	719a      	strb	r2, [r3, #6]
 800131c:	e7d8      	b.n	80012d0 <partS+0x224>
			if(JOY_L){
 800131e:	2296      	movs	r2, #150	; 0x96
 8001320:	0052      	lsls	r2, r2, #1
 8001322:	4293      	cmp	r3, r2
 8001324:	d2d4      	bcs.n	80012d0 <partS+0x224>
				if(sel == 0){
 8001326:	4b18      	ldr	r3, [pc, #96]	; (8001388 <partS+0x2dc>)
 8001328:	781b      	ldrb	r3, [r3, #0]
 800132a:	2b00      	cmp	r3, #0
 800132c:	d109      	bne.n	8001342 <partS+0x296>
					if(pt[ptC].cate) pt[ptC].cate--;
 800132e:	4b1b      	ldr	r3, [pc, #108]	; (800139c <partS+0x2f0>)
 8001330:	4a1b      	ldr	r2, [pc, #108]	; (80013a0 <partS+0x2f4>)
 8001332:	7819      	ldrb	r1, [r3, #0]
 8001334:	0109      	lsls	r1, r1, #4
 8001336:	1850      	adds	r0, r2, r1
 8001338:	7903      	ldrb	r3, [r0, #4]
 800133a:	2b00      	cmp	r3, #0
 800133c:	d0b0      	beq.n	80012a0 <partS+0x1f4>
 800133e:	3b01      	subs	r3, #1
 8001340:	e7ad      	b.n	800129e <partS+0x1f2>
				if(sel == 2 && ptInNum > 1) ptInNum--;
 8001342:	2b02      	cmp	r3, #2
 8001344:	d00b      	beq.n	800135e <partS+0x2b2>
				if(sel == 3 && pt[ptC].pos) pt[ptC].pos--;
 8001346:	2b03      	cmp	r3, #3
 8001348:	d1c2      	bne.n	80012d0 <partS+0x224>
 800134a:	4b14      	ldr	r3, [pc, #80]	; (800139c <partS+0x2f0>)
 800134c:	781a      	ldrb	r2, [r3, #0]
 800134e:	4b14      	ldr	r3, [pc, #80]	; (80013a0 <partS+0x2f4>)
 8001350:	0112      	lsls	r2, r2, #4
 8001352:	189b      	adds	r3, r3, r2
 8001354:	799a      	ldrb	r2, [r3, #6]
 8001356:	2a00      	cmp	r2, #0
 8001358:	d0ba      	beq.n	80012d0 <partS+0x224>
 800135a:	3a01      	subs	r2, #1
 800135c:	e7dd      	b.n	800131a <partS+0x26e>
				if(sel == 2 && ptInNum > 1) ptInNum--;
 800135e:	4a0e      	ldr	r2, [pc, #56]	; (8001398 <partS+0x2ec>)
 8001360:	7813      	ldrb	r3, [r2, #0]
 8001362:	2b01      	cmp	r3, #1
 8001364:	d9b4      	bls.n	80012d0 <partS+0x224>
 8001366:	3b01      	subs	r3, #1
 8001368:	e7ac      	b.n	80012c4 <partS+0x218>
			if(JOY_D && sel < 4) sel++;
 800136a:	2296      	movs	r2, #150	; 0x96
 800136c:	0052      	lsls	r2, r2, #1
 800136e:	4293      	cmp	r3, r2
 8001370:	d300      	bcc.n	8001374 <partS+0x2c8>
 8001372:	e6dc      	b.n	800112e <partS+0x82>
 8001374:	4a04      	ldr	r2, [pc, #16]	; (8001388 <partS+0x2dc>)
 8001376:	7813      	ldrb	r3, [r2, #0]
 8001378:	2b03      	cmp	r3, #3
 800137a:	d900      	bls.n	800137e <partS+0x2d2>
 800137c:	e6d7      	b.n	800112e <partS+0x82>
 800137e:	3301      	adds	r3, #1
 8001380:	e7b1      	b.n	80012e6 <partS+0x23a>
 8001382:	46c0      	nop			; (mov r8, r8)
 8001384:	20000008 	.word	0x20000008
 8001388:	200008ca 	.word	0x200008ca
 800138c:	200008cb 	.word	0x200008cb
 8001390:	200008cc 	.word	0x200008cc
 8001394:	200005ee 	.word	0x200005ee
 8001398:	200008b4 	.word	0x200008b4
 800139c:	200008ac 	.word	0x200008ac
 80013a0:	2000066c 	.word	0x2000066c
 80013a4:	200008c9 	.word	0x200008c9
 80013a8:	200008c8 	.word	0x200008c8
 80013ac:	20000430 	.word	0x20000430
 80013b0:	00000e74 	.word	0x00000e74
 80013b4:	2000003c 	.word	0x2000003c
 80013b8:	20000028 	.word	0x20000028
			}else if(sel == 3){
 80013bc:	9b03      	ldr	r3, [sp, #12]
 80013be:	2b03      	cmp	r3, #3
 80013c0:	d142      	bne.n	8001448 <partS+0x39c>
				ptSetPosF ^= 1;
 80013c2:	4999      	ldr	r1, [pc, #612]	; (8001628 <partS+0x57c>)
				udf = true;
 80013c4:	3b02      	subs	r3, #2
				ptSetPosF ^= 1;
 80013c6:	780a      	ldrb	r2, [r1, #0]
				udf = true;
 80013c8:	703b      	strb	r3, [r7, #0]
				ptSetPosF ^= 1;
 80013ca:	4053      	eors	r3, r2
 80013cc:	700b      	strb	r3, [r1, #0]
				if(!ptSetPosF) led_clear();
 80013ce:	2a01      	cmp	r2, #1
 80013d0:	d037      	beq.n	8001442 <partS+0x396>
		String bf = (String)calloc(0, sizeof(char) * 11);
 80013d2:	210b      	movs	r1, #11
 80013d4:	2000      	movs	r0, #0
 80013d6:	f003 fca3 	bl	8004d20 <calloc>
		udf = false;
 80013da:	2400      	movs	r4, #0
		String bf = (String)calloc(0, sizeof(char) * 11);
 80013dc:	0005      	movs	r5, r0
		udf = false;
 80013de:	703c      	strb	r4, [r7, #0]
		basicScreen();
 80013e0:	f7ff fa12 	bl	8000808 <basicScreen>
		SSD1306_PutsXY(0, 0, "#Save", 0);
 80013e4:	0023      	movs	r3, r4
 80013e6:	0021      	movs	r1, r4
 80013e8:	0020      	movs	r0, r4
 80013ea:	4a90      	ldr	r2, [pc, #576]	; (800162c <partS+0x580>)
 80013ec:	f7ff f9fc 	bl	80007e8 <SSD1306_PutsXY>
		SSD1306_PutsXY(0, 1, "Pls input inFormation", 1);
 80013f0:	2301      	movs	r3, #1
 80013f2:	0020      	movs	r0, r4
 80013f4:	0019      	movs	r1, r3
 80013f6:	4a8e      	ldr	r2, [pc, #568]	; (8001630 <partS+0x584>)
 80013f8:	f7ff f9f6 	bl	80007e8 <SSD1306_PutsXY>
		SSD1306_PutsXY(1, 3, "Cate:", 1);
 80013fc:	2301      	movs	r3, #1
 80013fe:	2103      	movs	r1, #3
 8001400:	0018      	movs	r0, r3
 8001402:	4a8c      	ldr	r2, [pc, #560]	; (8001634 <partS+0x588>)
 8001404:	f7ff f9f0 	bl	80007e8 <SSD1306_PutsXY>
		SSD1306_Puts(ptCate[pt[ptC].cate], &Font_6x8, 1);
 8001408:	4e8b      	ldr	r6, [pc, #556]	; (8001638 <partS+0x58c>)
 800140a:	4c8c      	ldr	r4, [pc, #560]	; (800163c <partS+0x590>)
 800140c:	7833      	ldrb	r3, [r6, #0]
 800140e:	4f8c      	ldr	r7, [pc, #560]	; (8001640 <partS+0x594>)
 8001410:	011b      	lsls	r3, r3, #4
 8001412:	18e3      	adds	r3, r4, r3
 8001414:	791b      	ldrb	r3, [r3, #4]
 8001416:	488b      	ldr	r0, [pc, #556]	; (8001644 <partS+0x598>)
 8001418:	009b      	lsls	r3, r3, #2
 800141a:	2201      	movs	r2, #1
 800141c:	0039      	movs	r1, r7
 800141e:	5818      	ldr	r0, [r3, r0]
 8001420:	f001 f8b8 	bl	8002594 <SSD1306_Puts>
		SSD1306_PutsXY(1, 4, "Name:", 1);
 8001424:	2301      	movs	r3, #1
 8001426:	2104      	movs	r1, #4
 8001428:	0018      	movs	r0, r3
 800142a:	4a87      	ldr	r2, [pc, #540]	; (8001648 <partS+0x59c>)
 800142c:	f7ff f9dc 	bl	80007e8 <SSD1306_PutsXY>
		if(!pt[ptC].name[0])SSD1306_Puts("(NONE)", &Font_6x8, 1);
 8001430:	7833      	ldrb	r3, [r6, #0]
 8001432:	011b      	lsls	r3, r3, #4
 8001434:	5918      	ldr	r0, [r3, r4]
 8001436:	7803      	ldrb	r3, [r0, #0]
 8001438:	2b00      	cmp	r3, #0
 800143a:	d061      	beq.n	8001500 <partS+0x454>
		else SSD1306_Puts(pt[ptC].name, &Font_6x8, 1);
 800143c:	2201      	movs	r2, #1
 800143e:	0039      	movs	r1, r7
 8001440:	e061      	b.n	8001506 <partS+0x45a>
				if(!ptSetPosF) led_clear();
 8001442:	f7ff f9af 	bl	80007a4 <led_clear>
 8001446:	e6a0      	b.n	800118a <partS+0xde>
				if(!pt[ptC].name) buzFlag = 2;
 8001448:	4b7b      	ldr	r3, [pc, #492]	; (8001638 <partS+0x58c>)
 800144a:	4e7c      	ldr	r6, [pc, #496]	; (800163c <partS+0x590>)
 800144c:	781b      	ldrb	r3, [r3, #0]
 800144e:	011b      	lsls	r3, r3, #4
 8001450:	599a      	ldr	r2, [r3, r6]
 8001452:	2a00      	cmp	r2, #0
 8001454:	d103      	bne.n	800145e <partS+0x3b2>
 8001456:	4b7d      	ldr	r3, [pc, #500]	; (800164c <partS+0x5a0>)
 8001458:	3202      	adds	r2, #2
 800145a:	701a      	strb	r2, [r3, #0]
 800145c:	e695      	b.n	800118a <partS+0xde>
				else if(sel == 4){
 800145e:	9a03      	ldr	r2, [sp, #12]
 8001460:	2a04      	cmp	r2, #4
 8001462:	d000      	beq.n	8001466 <partS+0x3ba>
 8001464:	e691      	b.n	800118a <partS+0xde>
					fireF = 1;
 8001466:	497a      	ldr	r1, [pc, #488]	; (8001650 <partS+0x5a4>)
					udf = true;
 8001468:	3a03      	subs	r2, #3
 800146a:	703a      	strb	r2, [r7, #0]
					fireF = 1;
 800146c:	700a      	strb	r2, [r1, #0]
					pt[ptC].pos = ledPos;
 800146e:	4a79      	ldr	r2, [pc, #484]	; (8001654 <partS+0x5a8>)
 8001470:	18f3      	adds	r3, r6, r3
 8001472:	7812      	ldrb	r2, [r2, #0]
 8001474:	719a      	strb	r2, [r3, #6]
					pt[ptC].store = ptInNum;
 8001476:	4a78      	ldr	r2, [pc, #480]	; (8001658 <partS+0x5ac>)
 8001478:	7812      	ldrb	r2, [r2, #0]
 800147a:	815a      	strh	r2, [r3, #10]
					logShift();
 800147c:	f7ff fa50 	bl	8000920 <logShift>
					DS3231_get_date(&date.day, &date.month, (uint8_t *)&date.year);
 8001480:	4b76      	ldr	r3, [pc, #472]	; (800165c <partS+0x5b0>)
 8001482:	0018      	movs	r0, r3
 8001484:	1c9a      	adds	r2, r3, #2
 8001486:	1c59      	adds	r1, r3, #1
 8001488:	f7ff f8fa 	bl	8000680 <DS3231_get_date>
					DS3231_get_time(&time.sec, &time.min, &time.hour);
 800148c:	4f74      	ldr	r7, [pc, #464]	; (8001660 <partS+0x5b4>)
 800148e:	003a      	movs	r2, r7
 8001490:	1c79      	adds	r1, r7, #1
 8001492:	1cb8      	adds	r0, r7, #2
 8001494:	f7ff f85e 	bl	8000554 <DS3231_get_time>
					pLog[0].workCate = 1;
 8001498:	4d72      	ldr	r5, [pc, #456]	; (8001664 <partS+0x5b8>)
 800149a:	2201      	movs	r2, #1
					pLog[0].date = date;
 800149c:	0028      	movs	r0, r5
 800149e:	496f      	ldr	r1, [pc, #444]	; (800165c <partS+0x5b0>)
					pLog[0].workCate = 1;
 80014a0:	702a      	strb	r2, [r5, #0]
					pLog[0].date = date;
 80014a2:	3010      	adds	r0, #16
 80014a4:	9a03      	ldr	r2, [sp, #12]
 80014a6:	f003 fc79 	bl	8004d9c <memcpy>
					pLog[0].time = time;
 80014aa:	0028      	movs	r0, r5
 80014ac:	2203      	movs	r2, #3
 80014ae:	0039      	movs	r1, r7
 80014b0:	300c      	adds	r0, #12
 80014b2:	f003 fc73 	bl	8004d9c <memcpy>
					sprintf(pLog[0].content[0], "%s %s", pt[ptC].name, ptCate[pt[ptC].cate]);
 80014b6:	4b60      	ldr	r3, [pc, #384]	; (8001638 <partS+0x58c>)
 80014b8:	4962      	ldr	r1, [pc, #392]	; (8001644 <partS+0x598>)
 80014ba:	781a      	ldrb	r2, [r3, #0]
 80014bc:	6868      	ldr	r0, [r5, #4]
 80014be:	0112      	lsls	r2, r2, #4
 80014c0:	18b3      	adds	r3, r6, r2
 80014c2:	791b      	ldrb	r3, [r3, #4]
 80014c4:	5992      	ldr	r2, [r2, r6]
 80014c6:	009b      	lsls	r3, r3, #2
 80014c8:	585b      	ldr	r3, [r3, r1]
 80014ca:	4967      	ldr	r1, [pc, #412]	; (8001668 <partS+0x5bc>)
 80014cc:	f003 fdaa 	bl	8005024 <siprintf>
					sprintf(pLog[0].content[1], "%dpcs (%d %d)", pt[ptC].store, tempX, tempY);
 80014d0:	4a59      	ldr	r2, [pc, #356]	; (8001638 <partS+0x58c>)
 80014d2:	4966      	ldr	r1, [pc, #408]	; (800166c <partS+0x5c0>)
 80014d4:	7812      	ldrb	r2, [r2, #0]
 80014d6:	7809      	ldrb	r1, [r1, #0]
 80014d8:	4b65      	ldr	r3, [pc, #404]	; (8001670 <partS+0x5c4>)
 80014da:	0112      	lsls	r2, r2, #4
 80014dc:	18b2      	adds	r2, r6, r2
 80014de:	781b      	ldrb	r3, [r3, #0]
 80014e0:	8952      	ldrh	r2, [r2, #10]
 80014e2:	9100      	str	r1, [sp, #0]
 80014e4:	68a8      	ldr	r0, [r5, #8]
 80014e6:	4963      	ldr	r1, [pc, #396]	; (8001674 <partS+0x5c8>)
 80014e8:	f003 fd9c 	bl	8005024 <siprintf>
					ptC++;
 80014ec:	4b52      	ldr	r3, [pc, #328]	; (8001638 <partS+0x58c>)
 80014ee:	4a52      	ldr	r2, [pc, #328]	; (8001638 <partS+0x58c>)
 80014f0:	781b      	ldrb	r3, [r3, #0]
 80014f2:	3301      	adds	r3, #1
 80014f4:	7013      	strb	r3, [r2, #0]
					sel = 0;
 80014f6:	4b60      	ldr	r3, [pc, #384]	; (8001678 <partS+0x5cc>)
 80014f8:	701c      	strb	r4, [r3, #0]
}
 80014fa:	0020      	movs	r0, r4
 80014fc:	b005      	add	sp, #20
 80014fe:	bdf0      	pop	{r4, r5, r6, r7, pc}
		if(!pt[ptC].name[0])SSD1306_Puts("(NONE)", &Font_6x8, 1);
 8001500:	2201      	movs	r2, #1
 8001502:	0039      	movs	r1, r7
 8001504:	485d      	ldr	r0, [pc, #372]	; (800167c <partS+0x5d0>)
		else SSD1306_Puts(pt[ptC].name, &Font_6x8, 1);
 8001506:	f001 f845 	bl	8002594 <SSD1306_Puts>
		if(pt[ptC].ptionC < 1) pt[ptC].ptionC = 1;
 800150a:	7833      	ldrb	r3, [r6, #0]
 800150c:	011b      	lsls	r3, r3, #4
 800150e:	18e3      	adds	r3, r4, r3
 8001510:	7a1a      	ldrb	r2, [r3, #8]
 8001512:	2a00      	cmp	r2, #0
 8001514:	d101      	bne.n	800151a <partS+0x46e>
 8001516:	3201      	adds	r2, #1
 8001518:	721a      	strb	r2, [r3, #8]
		SSD1306_PutsXY(1, 5, "Store:", 1);
 800151a:	2301      	movs	r3, #1
 800151c:	2105      	movs	r1, #5
 800151e:	0018      	movs	r0, r3
 8001520:	4a57      	ldr	r2, [pc, #348]	; (8001680 <partS+0x5d4>)
 8001522:	f7ff f961 	bl	80007e8 <SSD1306_PutsXY>
		sprintf(bf, "%d/%d", ptInNum, pt[ptC].max * pt[ptC].ptionC);
 8001526:	7832      	ldrb	r2, [r6, #0]
 8001528:	0028      	movs	r0, r5
 800152a:	0112      	lsls	r2, r2, #4
 800152c:	18a2      	adds	r2, r4, r2
 800152e:	8991      	ldrh	r1, [r2, #12]
 8001530:	7a13      	ldrb	r3, [r2, #8]
 8001532:	4a49      	ldr	r2, [pc, #292]	; (8001658 <partS+0x5ac>)
 8001534:	434b      	muls	r3, r1
 8001536:	7812      	ldrb	r2, [r2, #0]
 8001538:	4952      	ldr	r1, [pc, #328]	; (8001684 <partS+0x5d8>)
 800153a:	f003 fd73 	bl	8005024 <siprintf>
		SSD1306_Puts(bf, &Font_6x8, 1);
 800153e:	2201      	movs	r2, #1
 8001540:	0039      	movs	r1, r7
 8001542:	0028      	movs	r0, r5
 8001544:	f001 f826 	bl	8002594 <SSD1306_Puts>
		if(ptSetPosF){
 8001548:	4b37      	ldr	r3, [pc, #220]	; (8001628 <partS+0x57c>)
 800154a:	781b      	ldrb	r3, [r3, #0]
 800154c:	2b00      	cmp	r3, #0
 800154e:	d031      	beq.n	80015b4 <partS+0x508>
			led_clear();
 8001550:	f7ff f928 	bl	80007a4 <led_clear>
			for(uint8_t i = 0; i < 36; i++){
 8001554:	2600      	movs	r6, #0
				if(pt[i].store) led_color(pt[i].pos, 4, 0, 0);
 8001556:	8963      	ldrh	r3, [r4, #10]
 8001558:	2b00      	cmp	r3, #0
 800155a:	d005      	beq.n	8001568 <partS+0x4bc>
 800155c:	2300      	movs	r3, #0
 800155e:	2104      	movs	r1, #4
 8001560:	001a      	movs	r2, r3
 8001562:	79a0      	ldrb	r0, [r4, #6]
 8001564:	f7ff f8e8 	bl	8000738 <led_color>
				if(led_cmp(i, 0, 0, 0) == 3) led_color(i, 0, 4, 0);
 8001568:	2300      	movs	r3, #0
 800156a:	0030      	movs	r0, r6
 800156c:	001a      	movs	r2, r3
 800156e:	0019      	movs	r1, r3
 8001570:	f7ff f922 	bl	80007b8 <led_cmp>
 8001574:	2803      	cmp	r0, #3
 8001576:	d105      	bne.n	8001584 <partS+0x4d8>
 8001578:	2300      	movs	r3, #0
 800157a:	2204      	movs	r2, #4
 800157c:	0019      	movs	r1, r3
 800157e:	0030      	movs	r0, r6
 8001580:	f7ff f8da 	bl	8000738 <led_color>
			for(uint8_t i = 0; i < 36; i++){
 8001584:	3601      	adds	r6, #1
 8001586:	b2f6      	uxtb	r6, r6
 8001588:	3410      	adds	r4, #16
 800158a:	2e24      	cmp	r6, #36	; 0x24
 800158c:	d1e3      	bne.n	8001556 <partS+0x4aa>
			ledPos = (6 - tempY) * 6 + tempX - 1;
 800158e:	2006      	movs	r0, #6
 8001590:	4b36      	ldr	r3, [pc, #216]	; (800166c <partS+0x5c0>)
 8001592:	781b      	ldrb	r3, [r3, #0]
 8001594:	1ac3      	subs	r3, r0, r3
 8001596:	4358      	muls	r0, r3
 8001598:	4b35      	ldr	r3, [pc, #212]	; (8001670 <partS+0x5c4>)
 800159a:	781b      	ldrb	r3, [r3, #0]
 800159c:	3b01      	subs	r3, #1
 800159e:	18c0      	adds	r0, r0, r3
 80015a0:	4b2c      	ldr	r3, [pc, #176]	; (8001654 <partS+0x5a8>)
 80015a2:	b2c0      	uxtb	r0, r0
 80015a4:	7018      	strb	r0, [r3, #0]
			led_color(ledPos, 4, 4, 4);
 80015a6:	2304      	movs	r3, #4
 80015a8:	001a      	movs	r2, r3
 80015aa:	0019      	movs	r1, r3
 80015ac:	f7ff f8c4 	bl	8000738 <led_color>
			led_update();
 80015b0:	f7ff f8ce 	bl	8000750 <led_update>
		SSD1306_PutsXY(1, 6, "Position ", !ptSetPosF);
 80015b4:	4b1c      	ldr	r3, [pc, #112]	; (8001628 <partS+0x57c>)
 80015b6:	2106      	movs	r1, #6
 80015b8:	781b      	ldrb	r3, [r3, #0]
 80015ba:	2001      	movs	r0, #1
 80015bc:	425a      	negs	r2, r3
 80015be:	4153      	adcs	r3, r2
 80015c0:	4a31      	ldr	r2, [pc, #196]	; (8001688 <partS+0x5dc>)
 80015c2:	b2db      	uxtb	r3, r3
 80015c4:	f7ff f910 	bl	80007e8 <SSD1306_PutsXY>
		sprintf(bf, "(%d, %d)", tempX, tempY);
 80015c8:	4b28      	ldr	r3, [pc, #160]	; (800166c <partS+0x5c0>)
 80015ca:	4a29      	ldr	r2, [pc, #164]	; (8001670 <partS+0x5c4>)
 80015cc:	781b      	ldrb	r3, [r3, #0]
 80015ce:	7812      	ldrb	r2, [r2, #0]
 80015d0:	492e      	ldr	r1, [pc, #184]	; (800168c <partS+0x5e0>)
 80015d2:	0028      	movs	r0, r5
 80015d4:	f003 fd26 	bl	8005024 <siprintf>
		SSD1306_Puts(bf, &Font_6x8, !ptSetPosF);
 80015d8:	4b13      	ldr	r3, [pc, #76]	; (8001628 <partS+0x57c>)
 80015da:	0039      	movs	r1, r7
 80015dc:	781a      	ldrb	r2, [r3, #0]
 80015de:	0028      	movs	r0, r5
 80015e0:	4253      	negs	r3, r2
 80015e2:	415a      	adcs	r2, r3
 80015e4:	b2d2      	uxtb	r2, r2
 80015e6:	f000 ffd5 	bl	8002594 <SSD1306_Puts>
		SSD1306_PutsXY(1, 7, "Enter", 1);
 80015ea:	2301      	movs	r3, #1
 80015ec:	2107      	movs	r1, #7
 80015ee:	0018      	movs	r0, r3
 80015f0:	4a27      	ldr	r2, [pc, #156]	; (8001690 <partS+0x5e4>)
 80015f2:	f7ff f8f9 	bl	80007e8 <SSD1306_PutsXY>
		for(uint8_t i = 0; i < 5; i++) SSD1306_PutsXY(0, i + 3, i == sel ? ">" : " ", 1);
 80015f6:	2400      	movs	r4, #0
 80015f8:	4b1f      	ldr	r3, [pc, #124]	; (8001678 <partS+0x5cc>)
 80015fa:	1ce1      	adds	r1, r4, #3
 80015fc:	781b      	ldrb	r3, [r3, #0]
 80015fe:	4a25      	ldr	r2, [pc, #148]	; (8001694 <partS+0x5e8>)
 8001600:	b2c9      	uxtb	r1, r1
 8001602:	42a3      	cmp	r3, r4
 8001604:	d000      	beq.n	8001608 <partS+0x55c>
 8001606:	4a24      	ldr	r2, [pc, #144]	; (8001698 <partS+0x5ec>)
 8001608:	3401      	adds	r4, #1
 800160a:	2301      	movs	r3, #1
 800160c:	2000      	movs	r0, #0
 800160e:	b2e4      	uxtb	r4, r4
 8001610:	f7ff f8ea 	bl	80007e8 <SSD1306_PutsXY>
 8001614:	2c05      	cmp	r4, #5
 8001616:	d1ef      	bne.n	80015f8 <partS+0x54c>
		free(bf);
 8001618:	0028      	movs	r0, r5
 800161a:	f003 fbb5 	bl	8004d88 <free>
	return PSAVE;
 800161e:	3c04      	subs	r4, #4
		SSD1306_UpdateScreen();
 8001620:	f001 f8be 	bl	80027a0 <SSD1306_UpdateScreen>
 8001624:	e769      	b.n	80014fa <partS+0x44e>
 8001626:	46c0      	nop			; (mov r8, r8)
 8001628:	200008c8 	.word	0x200008c8
 800162c:	080061bb 	.word	0x080061bb
 8001630:	080061c1 	.word	0x080061c1
 8001634:	080061d7 	.word	0x080061d7
 8001638:	200008ac 	.word	0x200008ac
 800163c:	2000066c 	.word	0x2000066c
 8001640:	20000000 	.word	0x20000000
 8001644:	2000002c 	.word	0x2000002c
 8001648:	080061dd 	.word	0x080061dd
 800164c:	20000436 	.word	0x20000436
 8001650:	20000008 	.word	0x20000008
 8001654:	200005ee 	.word	0x200005ee
 8001658:	200008b4 	.word	0x200008b4
 800165c:	20000438 	.word	0x20000438
 8001660:	200008cd 	.word	0x200008cd
 8001664:	200005f4 	.word	0x200005f4
 8001668:	080061e3 	.word	0x080061e3
 800166c:	200008cc 	.word	0x200008cc
 8001670:	200008cb 	.word	0x200008cb
 8001674:	080061e9 	.word	0x080061e9
 8001678:	200008ca 	.word	0x200008ca
 800167c:	080061f7 	.word	0x080061f7
 8001680:	080061fe 	.word	0x080061fe
 8001684:	08006205 	.word	0x08006205
 8001688:	0800620b 	.word	0x0800620b
 800168c:	08006215 	.word	0x08006215
 8001690:	0800621e 	.word	0x0800621e
 8001694:	080061b9 	.word	0x080061b9
 8001698:	0800635c 	.word	0x0800635c

0800169c <pUseM>:

MODE pUseM(){
 800169c:	b5f8      	push	{r3, r4, r5, r6, r7, lr}
	if(fireF){
 800169e:	4d89      	ldr	r5, [pc, #548]	; (80018c4 <pUseM+0x228>)
 80016a0:	782b      	ldrb	r3, [r5, #0]
 80016a2:	2b00      	cmp	r3, #0
 80016a4:	d006      	beq.n	80016b4 <pUseM+0x18>
		fireF = false;
 80016a6:	2300      	movs	r3, #0
		tempX = 1;
 80016a8:	4a87      	ldr	r2, [pc, #540]	; (80018c8 <pUseM+0x22c>)
		fireF = false;
 80016aa:	702b      	strb	r3, [r5, #0]
		tempX = 1;
 80016ac:	3301      	adds	r3, #1
 80016ae:	7013      	strb	r3, [r2, #0]
		tempY = 1;
 80016b0:	4a86      	ldr	r2, [pc, #536]	; (80018cc <pUseM+0x230>)
 80016b2:	7013      	strb	r3, [r2, #0]
	}
	if(RE1){
 80016b4:	4b86      	ldr	r3, [pc, #536]	; (80018d0 <pUseM+0x234>)
 80016b6:	4c87      	ldr	r4, [pc, #540]	; (80018d4 <pUseM+0x238>)
 80016b8:	781a      	ldrb	r2, [r3, #0]
 80016ba:	2a63      	cmp	r2, #99	; 0x63
 80016bc:	d925      	bls.n	800170a <pUseM+0x6e>
		reC = 0;
 80016be:	2200      	movs	r2, #0
 80016c0:	701a      	strb	r2, [r3, #0]
		if(JOY_R && tempX < 6) tempX++;
 80016c2:	23fa      	movs	r3, #250	; 0xfa
 80016c4:	4984      	ldr	r1, [pc, #528]	; (80018d8 <pUseM+0x23c>)
 80016c6:	011b      	lsls	r3, r3, #4
 80016c8:	884a      	ldrh	r2, [r1, #2]
 80016ca:	429a      	cmp	r2, r3
 80016cc:	d933      	bls.n	8001736 <pUseM+0x9a>
 80016ce:	487e      	ldr	r0, [pc, #504]	; (80018c8 <pUseM+0x22c>)
 80016d0:	7803      	ldrb	r3, [r0, #0]
 80016d2:	2b05      	cmp	r3, #5
 80016d4:	d801      	bhi.n	80016da <pUseM+0x3e>
 80016d6:	3301      	adds	r3, #1
		if(JOY_L && tempX > 1) tempX--;
 80016d8:	7003      	strb	r3, [r0, #0]
		if(JOY_U && tempY < 6) tempY++;
 80016da:	880b      	ldrh	r3, [r1, #0]
 80016dc:	21fa      	movs	r1, #250	; 0xfa
 80016de:	0109      	lsls	r1, r1, #4
 80016e0:	428b      	cmp	r3, r1
 80016e2:	d932      	bls.n	800174a <pUseM+0xae>
 80016e4:	4879      	ldr	r0, [pc, #484]	; (80018cc <pUseM+0x230>)
 80016e6:	7801      	ldrb	r1, [r0, #0]
 80016e8:	2905      	cmp	r1, #5
 80016ea:	d801      	bhi.n	80016f0 <pUseM+0x54>
 80016ec:	3101      	adds	r1, #1
		if(JOY_D && tempY > 1) tempY--;
 80016ee:	7001      	strb	r1, [r0, #0]
		if(JOY_R || JOY_L || JOY_U || JOY_D) udf = true;
 80016f0:	3a2d      	subs	r2, #45	; 0x2d
 80016f2:	3aff      	subs	r2, #255	; 0xff
 80016f4:	4979      	ldr	r1, [pc, #484]	; (80018dc <pUseM+0x240>)
 80016f6:	b292      	uxth	r2, r2
 80016f8:	428a      	cmp	r2, r1
 80016fa:	d804      	bhi.n	8001706 <pUseM+0x6a>
 80016fc:	3b2d      	subs	r3, #45	; 0x2d
 80016fe:	3bff      	subs	r3, #255	; 0xff
 8001700:	b29b      	uxth	r3, r3
 8001702:	428b      	cmp	r3, r1
 8001704:	d901      	bls.n	800170a <pUseM+0x6e>
 8001706:	2301      	movs	r3, #1
 8001708:	7023      	strb	r3, [r4, #0]
	}
	if(JOY_P){
 800170a:	20a0      	movs	r0, #160	; 0xa0
 800170c:	2104      	movs	r1, #4
 800170e:	05c0      	lsls	r0, r0, #23
 8001710:	f001 ff7e 	bl	8003610 <HAL_GPIO_ReadPin>
		if(!oldsw){
 8001714:	4b72      	ldr	r3, [pc, #456]	; (80018e0 <pUseM+0x244>)
 8001716:	781b      	ldrb	r3, [r3, #0]
 8001718:	4318      	orrs	r0, r3
 800171a:	b2c0      	uxtb	r0, r0
 800171c:	2800      	cmp	r0, #0
 800171e:	d121      	bne.n	8001764 <pUseM+0xc8>
			swS();
 8001720:	f7ff f880 	bl	8000824 <swS>
			if(usePos != 255){
 8001724:	4b6f      	ldr	r3, [pc, #444]	; (80018e4 <pUseM+0x248>)
 8001726:	781b      	ldrb	r3, [r3, #0]
 8001728:	2bff      	cmp	r3, #255	; 0xff
 800172a:	d018      	beq.n	800175e <pUseM+0xc2>
				fireF = true;
 800172c:	2301      	movs	r3, #1
				udf = true;
				return USE;
 800172e:	2003      	movs	r0, #3
				fireF = true;
 8001730:	702b      	strb	r3, [r5, #0]
				udf = true;
 8001732:	7023      	strb	r3, [r4, #0]
		led_update();
		SSD1306_UpdateScreen();
	}

	return PUSE;
}
 8001734:	bdf8      	pop	{r3, r4, r5, r6, r7, pc}
		if(JOY_L && tempX > 1) tempX--;
 8001736:	2396      	movs	r3, #150	; 0x96
 8001738:	005b      	lsls	r3, r3, #1
 800173a:	429a      	cmp	r2, r3
 800173c:	d2cd      	bcs.n	80016da <pUseM+0x3e>
 800173e:	4862      	ldr	r0, [pc, #392]	; (80018c8 <pUseM+0x22c>)
 8001740:	7803      	ldrb	r3, [r0, #0]
 8001742:	2b01      	cmp	r3, #1
 8001744:	d9c9      	bls.n	80016da <pUseM+0x3e>
 8001746:	3b01      	subs	r3, #1
 8001748:	e7c6      	b.n	80016d8 <pUseM+0x3c>
		if(JOY_D && tempY > 1) tempY--;
 800174a:	2196      	movs	r1, #150	; 0x96
 800174c:	0049      	lsls	r1, r1, #1
 800174e:	428b      	cmp	r3, r1
 8001750:	d2ce      	bcs.n	80016f0 <pUseM+0x54>
 8001752:	485e      	ldr	r0, [pc, #376]	; (80018cc <pUseM+0x230>)
 8001754:	7801      	ldrb	r1, [r0, #0]
 8001756:	2901      	cmp	r1, #1
 8001758:	d9ca      	bls.n	80016f0 <pUseM+0x54>
 800175a:	3901      	subs	r1, #1
 800175c:	e7c7      	b.n	80016ee <pUseM+0x52>
			}else buzFlag = 2;
 800175e:	2202      	movs	r2, #2
 8001760:	4b61      	ldr	r3, [pc, #388]	; (80018e8 <pUseM+0x24c>)
 8001762:	701a      	strb	r2, [r3, #0]
	if(udf){
 8001764:	7823      	ldrb	r3, [r4, #0]
	return PUSE;
 8001766:	2002      	movs	r0, #2
	if(udf){
 8001768:	2b00      	cmp	r3, #0
 800176a:	d0e3      	beq.n	8001734 <pUseM+0x98>
		udf = false;
 800176c:	2700      	movs	r7, #0
 800176e:	7027      	strb	r7, [r4, #0]
		basicScreen();
 8001770:	f7ff f84a 	bl	8000808 <basicScreen>
		ledPos = (6 - tempY) * 6 + tempX - 1;
 8001774:	4b55      	ldr	r3, [pc, #340]	; (80018cc <pUseM+0x230>)
 8001776:	4e5d      	ldr	r6, [pc, #372]	; (80018ec <pUseM+0x250>)
 8001778:	781a      	ldrb	r2, [r3, #0]
 800177a:	2306      	movs	r3, #6
 800177c:	1a9a      	subs	r2, r3, r2
 800177e:	4353      	muls	r3, r2
 8001780:	4a51      	ldr	r2, [pc, #324]	; (80018c8 <pUseM+0x22c>)
		SSD1306_PutsXY(0, 0, "#Use", 0);
 8001782:	0039      	movs	r1, r7
		ledPos = (6 - tempY) * 6 + tempX - 1;
 8001784:	7812      	ldrb	r2, [r2, #0]
		SSD1306_PutsXY(0, 0, "#Use", 0);
 8001786:	0038      	movs	r0, r7
		ledPos = (6 - tempY) * 6 + tempX - 1;
 8001788:	3a01      	subs	r2, #1
 800178a:	189b      	adds	r3, r3, r2
 800178c:	7033      	strb	r3, [r6, #0]
		SSD1306_PutsXY(0, 0, "#Use", 0);
 800178e:	4a58      	ldr	r2, [pc, #352]	; (80018f0 <pUseM+0x254>)
 8001790:	003b      	movs	r3, r7
 8001792:	f7ff f829 	bl	80007e8 <SSD1306_PutsXY>
		SSD1306_PutsXY(0, 1, "Select part", 1);
 8001796:	2301      	movs	r3, #1
 8001798:	0038      	movs	r0, r7
 800179a:	0019      	movs	r1, r3
 800179c:	4a55      	ldr	r2, [pc, #340]	; (80018f4 <pUseM+0x258>)
 800179e:	f7ff f823 	bl	80007e8 <SSD1306_PutsXY>
		for(uint8_t i = 0; i < 36; i++){
 80017a2:	4c55      	ldr	r4, [pc, #340]	; (80018f8 <pUseM+0x25c>)
		SSD1306_PutsXY(0, 1, "Select part", 1);
 80017a4:	0025      	movs	r5, r4
			if(pt[i].pos == ledPos && pt[i].store){
 80017a6:	79aa      	ldrb	r2, [r5, #6]
 80017a8:	7833      	ldrb	r3, [r6, #0]
 80017aa:	429a      	cmp	r2, r3
 80017ac:	d174      	bne.n	8001898 <pUseM+0x1fc>
 80017ae:	896b      	ldrh	r3, [r5, #10]
 80017b0:	2b00      	cmp	r3, #0
 80017b2:	d071      	beq.n	8001898 <pUseM+0x1fc>
				String bf = (String)calloc(0, sizeof(char) * 4);
 80017b4:	2104      	movs	r1, #4
 80017b6:	2000      	movs	r0, #0
 80017b8:	f003 fab2 	bl	8004d20 <calloc>
				SSD1306_PutsXY(1, 3, "Cate:", 1);
 80017bc:	2301      	movs	r3, #1
				usePos = i;
 80017be:	4e49      	ldr	r6, [pc, #292]	; (80018e4 <pUseM+0x248>)
				String bf = (String)calloc(0, sizeof(char) * 4);
 80017c0:	0005      	movs	r5, r0
				SSD1306_PutsXY(1, 3, "Cate:", 1);
 80017c2:	2103      	movs	r1, #3
 80017c4:	0018      	movs	r0, r3
 80017c6:	4a4d      	ldr	r2, [pc, #308]	; (80018fc <pUseM+0x260>)
				usePos = i;
 80017c8:	7037      	strb	r7, [r6, #0]
				SSD1306_PutsXY(1, 3, "Cate:", 1);
 80017ca:	f7ff f80d 	bl	80007e8 <SSD1306_PutsXY>
				SSD1306_Puts(ptCate[pt[usePos].cate], &Font_6x8, 1);
 80017ce:	7833      	ldrb	r3, [r6, #0]
 80017d0:	4a49      	ldr	r2, [pc, #292]	; (80018f8 <pUseM+0x25c>)
 80017d2:	011b      	lsls	r3, r3, #4
 80017d4:	18d3      	adds	r3, r2, r3
 80017d6:	791b      	ldrb	r3, [r3, #4]
 80017d8:	4f49      	ldr	r7, [pc, #292]	; (8001900 <pUseM+0x264>)
 80017da:	484a      	ldr	r0, [pc, #296]	; (8001904 <pUseM+0x268>)
 80017dc:	009b      	lsls	r3, r3, #2
 80017de:	2201      	movs	r2, #1
 80017e0:	0039      	movs	r1, r7
 80017e2:	5818      	ldr	r0, [r3, r0]
 80017e4:	f000 fed6 	bl	8002594 <SSD1306_Puts>
				SSD1306_PutsXY(1, 4, "Name:", 1);
 80017e8:	2301      	movs	r3, #1
 80017ea:	2104      	movs	r1, #4
 80017ec:	0018      	movs	r0, r3
 80017ee:	4a46      	ldr	r2, [pc, #280]	; (8001908 <pUseM+0x26c>)
 80017f0:	f7fe fffa 	bl	80007e8 <SSD1306_PutsXY>
				SSD1306_Puts(pt[usePos].name, &Font_6x8, 1);
 80017f4:	7833      	ldrb	r3, [r6, #0]
 80017f6:	4840      	ldr	r0, [pc, #256]	; (80018f8 <pUseM+0x25c>)
 80017f8:	011b      	lsls	r3, r3, #4
 80017fa:	2201      	movs	r2, #1
 80017fc:	0039      	movs	r1, r7
 80017fe:	5818      	ldr	r0, [r3, r0]
 8001800:	f000 fec8 	bl	8002594 <SSD1306_Puts>
				SSD1306_PutsXY(1, 5, "Store:", 1);
 8001804:	2301      	movs	r3, #1
 8001806:	2105      	movs	r1, #5
 8001808:	0018      	movs	r0, r3
 800180a:	4a40      	ldr	r2, [pc, #256]	; (800190c <pUseM+0x270>)
 800180c:	f7fe ffec 	bl	80007e8 <SSD1306_PutsXY>
				sprintf(bf, "%d ", pt[usePos].store);
 8001810:	7833      	ldrb	r3, [r6, #0]
 8001812:	4a39      	ldr	r2, [pc, #228]	; (80018f8 <pUseM+0x25c>)
 8001814:	011b      	lsls	r3, r3, #4
 8001816:	18d3      	adds	r3, r2, r3
 8001818:	895a      	ldrh	r2, [r3, #10]
 800181a:	493d      	ldr	r1, [pc, #244]	; (8001910 <pUseM+0x274>)
 800181c:	0028      	movs	r0, r5
 800181e:	f003 fc01 	bl	8005024 <siprintf>
				SSD1306_Puts(bf, &Font_6x8, 1);
 8001822:	2201      	movs	r2, #1
 8001824:	0039      	movs	r1, r7
 8001826:	0028      	movs	r0, r5
 8001828:	f000 feb4 	bl	8002594 <SSD1306_Puts>
				free(bf);
 800182c:	0028      	movs	r0, r5
 800182e:	f003 faab 	bl	8004d88 <free>
		led_clear();
 8001832:	f7fe ffb7 	bl	80007a4 <led_clear>
		for(uint8_t i = 0; i < 36; i++){
 8001836:	2500      	movs	r5, #0
			if(pt[i].store) led_color(pt[i].pos, PTR, PTG, PTB);
 8001838:	2604      	movs	r6, #4
 800183a:	8963      	ldrh	r3, [r4, #10]
 800183c:	2b00      	cmp	r3, #0
 800183e:	d00c      	beq.n	800185a <pUseM+0x1be>
 8001840:	7921      	ldrb	r1, [r4, #4]
 8001842:	2200      	movs	r2, #0
 8001844:	0033      	movs	r3, r6
 8001846:	79a0      	ldrb	r0, [r4, #6]
 8001848:	2901      	cmp	r1, #1
 800184a:	d004      	beq.n	8001856 <pUseM+0x1ba>
 800184c:	0032      	movs	r2, r6
 800184e:	2903      	cmp	r1, #3
 8001850:	d132      	bne.n	80018b8 <pUseM+0x21c>
 8001852:	2100      	movs	r1, #0
 8001854:	2304      	movs	r3, #4
 8001856:	f7fe ff6f 	bl	8000738 <led_color>
			if(!led_cmp(i, 0, 0, 0)) led_color(i, 0, 4, 0);
 800185a:	2300      	movs	r3, #0
 800185c:	0028      	movs	r0, r5
 800185e:	0019      	movs	r1, r3
 8001860:	001a      	movs	r2, r3
 8001862:	f7fe ffa9 	bl	80007b8 <led_cmp>
 8001866:	1e01      	subs	r1, r0, #0
 8001868:	d104      	bne.n	8001874 <pUseM+0x1d8>
 800186a:	0003      	movs	r3, r0
 800186c:	0032      	movs	r2, r6
 800186e:	0028      	movs	r0, r5
 8001870:	f7fe ff62 	bl	8000738 <led_color>
		for(uint8_t i = 0; i < 36; i++){
 8001874:	3501      	adds	r5, #1
 8001876:	b2ed      	uxtb	r5, r5
 8001878:	3410      	adds	r4, #16
 800187a:	2d24      	cmp	r5, #36	; 0x24
 800187c:	d1dd      	bne.n	800183a <pUseM+0x19e>
		led_color(ledPos, 4, 4, 4);
 800187e:	4b1b      	ldr	r3, [pc, #108]	; (80018ec <pUseM+0x250>)
 8001880:	7818      	ldrb	r0, [r3, #0]
 8001882:	2304      	movs	r3, #4
 8001884:	001a      	movs	r2, r3
 8001886:	0019      	movs	r1, r3
 8001888:	f7fe ff56 	bl	8000738 <led_color>
		led_update();
 800188c:	f7fe ff60 	bl	8000750 <led_update>
		SSD1306_UpdateScreen();
 8001890:	f000 ff86 	bl	80027a0 <SSD1306_UpdateScreen>
	return PUSE;
 8001894:	2002      	movs	r0, #2
 8001896:	e74d      	b.n	8001734 <pUseM+0x98>
				usePos = 255;
 8001898:	22ff      	movs	r2, #255	; 0xff
 800189a:	4b12      	ldr	r3, [pc, #72]	; (80018e4 <pUseM+0x248>)
		for(uint8_t i = 0; i < 36; i++){
 800189c:	3701      	adds	r7, #1
				usePos = 255;
 800189e:	701a      	strb	r2, [r3, #0]
				SSD1306_PutsXY(1, 3, "(Empty)", 1);
 80018a0:	2301      	movs	r3, #1
 80018a2:	2103      	movs	r1, #3
 80018a4:	0018      	movs	r0, r3
 80018a6:	4a1b      	ldr	r2, [pc, #108]	; (8001914 <pUseM+0x278>)
		for(uint8_t i = 0; i < 36; i++){
 80018a8:	b2ff      	uxtb	r7, r7
				SSD1306_PutsXY(1, 3, "(Empty)", 1);
 80018aa:	f7fe ff9d 	bl	80007e8 <SSD1306_PutsXY>
		for(uint8_t i = 0; i < 36; i++){
 80018ae:	3510      	adds	r5, #16
 80018b0:	2f24      	cmp	r7, #36	; 0x24
 80018b2:	d000      	beq.n	80018b6 <pUseM+0x21a>
 80018b4:	e777      	b.n	80017a6 <pUseM+0x10a>
 80018b6:	e7bc      	b.n	8001832 <pUseM+0x196>
			if(pt[i].store) led_color(pt[i].pos, PTR, PTG, PTB);
 80018b8:	2902      	cmp	r1, #2
 80018ba:	d000      	beq.n	80018be <pUseM+0x222>
 80018bc:	2201      	movs	r2, #1
 80018be:	0031      	movs	r1, r6
 80018c0:	2300      	movs	r3, #0
 80018c2:	e7c8      	b.n	8001856 <pUseM+0x1ba>
 80018c4:	20000008 	.word	0x20000008
 80018c8:	200008cb 	.word	0x200008cb
 80018cc:	200008cc 	.word	0x200008cc
 80018d0:	200008c9 	.word	0x200008c9
 80018d4:	2000003c 	.word	0x2000003c
 80018d8:	20000430 	.word	0x20000430
 80018dc:	00000e74 	.word	0x00000e74
 80018e0:	20000028 	.word	0x20000028
 80018e4:	2000003d 	.word	0x2000003d
 80018e8:	20000436 	.word	0x20000436
 80018ec:	200005ee 	.word	0x200005ee
 80018f0:	08006224 	.word	0x08006224
 80018f4:	08006229 	.word	0x08006229
 80018f8:	2000066c 	.word	0x2000066c
 80018fc:	080061d7 	.word	0x080061d7
 8001900:	20000000 	.word	0x20000000
 8001904:	2000002c 	.word	0x2000002c
 8001908:	080061dd 	.word	0x080061dd
 800190c:	080061fe 	.word	0x080061fe
 8001910:	08006235 	.word	0x08006235
 8001914:	08006239 	.word	0x08006239

08001918 <use>:

MODE use(){
 8001918:	b5f7      	push	{r0, r1, r2, r4, r5, r6, r7, lr}
	if(fireF){
 800191a:	4d5a      	ldr	r5, [pc, #360]	; (8001a84 <use+0x16c>)
 800191c:	782b      	ldrb	r3, [r5, #0]
 800191e:	2b00      	cmp	r3, #0
 8001920:	d003      	beq.n	800192a <use+0x12>
		fireF = false;
 8001922:	2300      	movs	r3, #0
		ptInNum = 0;
 8001924:	4a58      	ldr	r2, [pc, #352]	; (8001a88 <use+0x170>)
		fireF = false;
 8001926:	702b      	strb	r3, [r5, #0]
		ptInNum = 0;
 8001928:	7013      	strb	r3, [r2, #0]
	}
	if(RE1){
 800192a:	4b58      	ldr	r3, [pc, #352]	; (8001a8c <use+0x174>)
 800192c:	4f58      	ldr	r7, [pc, #352]	; (8001a90 <use+0x178>)
 800192e:	781a      	ldrb	r2, [r3, #0]
 8001930:	2a63      	cmp	r2, #99	; 0x63
 8001932:	d915      	bls.n	8001960 <use+0x48>
		reC = 0;
 8001934:	2200      	movs	r2, #0
 8001936:	701a      	strb	r2, [r3, #0]
		if(JOY_U && ptInNum < pt[usePos].store) ptInNum++;
 8001938:	22fa      	movs	r2, #250	; 0xfa
 800193a:	4b56      	ldr	r3, [pc, #344]	; (8001a94 <use+0x17c>)
 800193c:	0112      	lsls	r2, r2, #4
 800193e:	881b      	ldrh	r3, [r3, #0]
 8001940:	4293      	cmp	r3, r2
 8001942:	d960      	bls.n	8001a06 <use+0xee>
 8001944:	4a54      	ldr	r2, [pc, #336]	; (8001a98 <use+0x180>)
 8001946:	4850      	ldr	r0, [pc, #320]	; (8001a88 <use+0x170>)
 8001948:	7811      	ldrb	r1, [r2, #0]
 800194a:	4a54      	ldr	r2, [pc, #336]	; (8001a9c <use+0x184>)
 800194c:	0109      	lsls	r1, r1, #4
 800194e:	1852      	adds	r2, r2, r1
 8001950:	7803      	ldrb	r3, [r0, #0]
 8001952:	8952      	ldrh	r2, [r2, #10]
 8001954:	429a      	cmp	r2, r3
 8001956:	d901      	bls.n	800195c <use+0x44>
 8001958:	3301      	adds	r3, #1
 800195a:	7003      	strb	r3, [r0, #0]
		if(JOY_D && ptInNum > 1) ptInNum--;
		if(JOY_U || JOY_D) udf = 1;
 800195c:	2301      	movs	r3, #1
 800195e:	703b      	strb	r3, [r7, #0]
	}
	if(JOY_P){
 8001960:	20a0      	movs	r0, #160	; 0xa0
 8001962:	2104      	movs	r1, #4
 8001964:	05c0      	lsls	r0, r0, #23
 8001966:	f001 fe53 	bl	8003610 <HAL_GPIO_ReadPin>
		if(!oldsw){
 800196a:	4b4d      	ldr	r3, [pc, #308]	; (8001aa0 <use+0x188>)
 800196c:	781c      	ldrb	r4, [r3, #0]
 800196e:	4304      	orrs	r4, r0
 8001970:	b2e4      	uxtb	r4, r4
 8001972:	2c00      	cmp	r4, #0
 8001974:	d152      	bne.n	8001a1c <use+0x104>
			swS();
 8001976:	f7fe ff55 	bl	8000824 <swS>
			fireF = 1;
 800197a:	2301      	movs	r3, #1
			udf = 1;
 800197c:	4a44      	ldr	r2, [pc, #272]	; (8001a90 <use+0x178>)
			fireF = 1;
 800197e:	702b      	strb	r3, [r5, #0]
			udf = 1;
 8001980:	7013      	strb	r3, [r2, #0]

			logShift();
 8001982:	f7fe ffcd 	bl	8000920 <logShift>
			DS3231_get_date(&date.day, &date.month, (uint8_t*)&date.year);
 8001986:	4f47      	ldr	r7, [pc, #284]	; (8001aa4 <use+0x18c>)
 8001988:	0038      	movs	r0, r7
 800198a:	1cba      	adds	r2, r7, #2
 800198c:	1c79      	adds	r1, r7, #1
 800198e:	f7fe fe77 	bl	8000680 <DS3231_get_date>
			DS3231_get_time(&time.sec, &time.min, &time.hour);
 8001992:	4d45      	ldr	r5, [pc, #276]	; (8001aa8 <use+0x190>)
 8001994:	002a      	movs	r2, r5
 8001996:	1c69      	adds	r1, r5, #1
 8001998:	1ca8      	adds	r0, r5, #2
 800199a:	f7fe fddb 	bl	8000554 <DS3231_get_time>
			pLog[0].workCate = 2;
 800199e:	4e43      	ldr	r6, [pc, #268]	; (8001aac <use+0x194>)
 80019a0:	2302      	movs	r3, #2
			pLog[0].date = date;
 80019a2:	0030      	movs	r0, r6
 80019a4:	0039      	movs	r1, r7
			pLog[0].workCate = 2;
 80019a6:	7033      	strb	r3, [r6, #0]
			pLog[0].date = date;
 80019a8:	2204      	movs	r2, #4
 80019aa:	3010      	adds	r0, #16
 80019ac:	f003 f9f6 	bl	8004d9c <memcpy>
			pLog[0].time = time ;
 80019b0:	0030      	movs	r0, r6
 80019b2:	0029      	movs	r1, r5
 80019b4:	2203      	movs	r2, #3
 80019b6:	300c      	adds	r0, #12
 80019b8:	f003 f9f0 	bl	8004d9c <memcpy>
			sprintf(pLog[0].content[0], "%s/%s", pt[usePos].name, ptCate[pt[usePos].cate]);
 80019bc:	4b36      	ldr	r3, [pc, #216]	; (8001a98 <use+0x180>)
 80019be:	4d37      	ldr	r5, [pc, #220]	; (8001a9c <use+0x184>)
 80019c0:	781a      	ldrb	r2, [r3, #0]
 80019c2:	493b      	ldr	r1, [pc, #236]	; (8001ab0 <use+0x198>)
 80019c4:	0112      	lsls	r2, r2, #4
 80019c6:	18ab      	adds	r3, r5, r2
 80019c8:	791b      	ldrb	r3, [r3, #4]
 80019ca:	5952      	ldr	r2, [r2, r5]
 80019cc:	009b      	lsls	r3, r3, #2
 80019ce:	585b      	ldr	r3, [r3, r1]
 80019d0:	6870      	ldr	r0, [r6, #4]
 80019d2:	4938      	ldr	r1, [pc, #224]	; (8001ab4 <use+0x19c>)
 80019d4:	f003 fb26 	bl	8005024 <siprintf>
			sprintf(pLog[0].content[1], "%dpcs (%d,%d)", ptInNum, tempX, tempY);
 80019d8:	4937      	ldr	r1, [pc, #220]	; (8001ab8 <use+0x1a0>)
 80019da:	4f2b      	ldr	r7, [pc, #172]	; (8001a88 <use+0x170>)
 80019dc:	7809      	ldrb	r1, [r1, #0]
 80019de:	4b37      	ldr	r3, [pc, #220]	; (8001abc <use+0x1a4>)
 80019e0:	783a      	ldrb	r2, [r7, #0]
 80019e2:	781b      	ldrb	r3, [r3, #0]
 80019e4:	9100      	str	r1, [sp, #0]
 80019e6:	68b0      	ldr	r0, [r6, #8]
 80019e8:	4935      	ldr	r1, [pc, #212]	; (8001ac0 <use+0x1a8>)
 80019ea:	f003 fb1b 	bl	8005024 <siprintf>
			if(ptInNum == pt[usePos].store) return REFILL;
 80019ee:	4b2a      	ldr	r3, [pc, #168]	; (8001a98 <use+0x180>)
 80019f0:	7839      	ldrb	r1, [r7, #0]
 80019f2:	781a      	ldrb	r2, [r3, #0]
 80019f4:	0112      	lsls	r2, r2, #4
 80019f6:	18ad      	adds	r5, r5, r2
 80019f8:	896b      	ldrh	r3, [r5, #10]
 80019fa:	4299      	cmp	r1, r3
 80019fc:	d03f      	beq.n	8001a7e <use+0x166>
			else {
				pt[usePos].store -= ptInNum;
 80019fe:	1a5b      	subs	r3, r3, r1
 8001a00:	816b      	strh	r3, [r5, #10]
		SSD1306_PutsXY(0, 3, bf, 1);
		SSD1306_UpdateScreen();
		free(bf);
	}
	return USE;
}
 8001a02:	0020      	movs	r0, r4
 8001a04:	bdfe      	pop	{r1, r2, r3, r4, r5, r6, r7, pc}
		if(JOY_D && ptInNum > 1) ptInNum--;
 8001a06:	2296      	movs	r2, #150	; 0x96
 8001a08:	0052      	lsls	r2, r2, #1
 8001a0a:	4293      	cmp	r3, r2
 8001a0c:	d2a8      	bcs.n	8001960 <use+0x48>
 8001a0e:	4a1e      	ldr	r2, [pc, #120]	; (8001a88 <use+0x170>)
 8001a10:	7813      	ldrb	r3, [r2, #0]
 8001a12:	2b01      	cmp	r3, #1
 8001a14:	d9a2      	bls.n	800195c <use+0x44>
 8001a16:	3b01      	subs	r3, #1
 8001a18:	7013      	strb	r3, [r2, #0]
 8001a1a:	e79f      	b.n	800195c <use+0x44>
	if(udf){
 8001a1c:	783b      	ldrb	r3, [r7, #0]
	return USE;
 8001a1e:	2403      	movs	r4, #3
	if(udf){
 8001a20:	2b00      	cmp	r3, #0
 8001a22:	d0ee      	beq.n	8001a02 <use+0xea>
		String bf = (String)calloc(0, sizeof(char) * 12);
 8001a24:	210c      	movs	r1, #12
 8001a26:	2000      	movs	r0, #0
 8001a28:	f003 f97a 	bl	8004d20 <calloc>
		udf = false;
 8001a2c:	2500      	movs	r5, #0
		String bf = (String)calloc(0, sizeof(char) * 12);
 8001a2e:	0006      	movs	r6, r0
		udf = false;
 8001a30:	703d      	strb	r5, [r7, #0]
		basicScreen();
 8001a32:	f7fe fee9 	bl	8000808 <basicScreen>
		SSD1306_PutsXY(0, 0, "#Use", 0);
 8001a36:	002b      	movs	r3, r5
 8001a38:	0029      	movs	r1, r5
 8001a3a:	0028      	movs	r0, r5
 8001a3c:	4a21      	ldr	r2, [pc, #132]	; (8001ac4 <use+0x1ac>)
 8001a3e:	f7fe fed3 	bl	80007e8 <SSD1306_PutsXY>
		SSD1306_PutsXY(0, 1, "How Many use?", 1);
 8001a42:	2301      	movs	r3, #1
 8001a44:	0028      	movs	r0, r5
 8001a46:	0019      	movs	r1, r3
 8001a48:	4a1f      	ldr	r2, [pc, #124]	; (8001ac8 <use+0x1b0>)
 8001a4a:	f7fe fecd 	bl	80007e8 <SSD1306_PutsXY>
		sprintf(bf, "(%d / %d)", ptInNum, pt[usePos].store);
 8001a4e:	4b12      	ldr	r3, [pc, #72]	; (8001a98 <use+0x180>)
 8001a50:	0030      	movs	r0, r6
 8001a52:	781a      	ldrb	r2, [r3, #0]
 8001a54:	4b11      	ldr	r3, [pc, #68]	; (8001a9c <use+0x184>)
 8001a56:	0112      	lsls	r2, r2, #4
 8001a58:	189b      	adds	r3, r3, r2
 8001a5a:	4a0b      	ldr	r2, [pc, #44]	; (8001a88 <use+0x170>)
 8001a5c:	895b      	ldrh	r3, [r3, #10]
 8001a5e:	7812      	ldrb	r2, [r2, #0]
 8001a60:	491a      	ldr	r1, [pc, #104]	; (8001acc <use+0x1b4>)
 8001a62:	f003 fadf 	bl	8005024 <siprintf>
		SSD1306_PutsXY(0, 3, bf, 1);
 8001a66:	0028      	movs	r0, r5
 8001a68:	2301      	movs	r3, #1
 8001a6a:	0032      	movs	r2, r6
 8001a6c:	0021      	movs	r1, r4
 8001a6e:	f7fe febb 	bl	80007e8 <SSD1306_PutsXY>
		SSD1306_UpdateScreen();
 8001a72:	f000 fe95 	bl	80027a0 <SSD1306_UpdateScreen>
		free(bf);
 8001a76:	0030      	movs	r0, r6
 8001a78:	f003 f986 	bl	8004d88 <free>
 8001a7c:	e7c1      	b.n	8001a02 <use+0xea>
			if(ptInNum == pt[usePos].store) return REFILL;
 8001a7e:	2404      	movs	r4, #4
 8001a80:	e7bf      	b.n	8001a02 <use+0xea>
 8001a82:	46c0      	nop			; (mov r8, r8)
 8001a84:	20000008 	.word	0x20000008
 8001a88:	200008b4 	.word	0x200008b4
 8001a8c:	200008c9 	.word	0x200008c9
 8001a90:	2000003c 	.word	0x2000003c
 8001a94:	20000430 	.word	0x20000430
 8001a98:	2000003d 	.word	0x2000003d
 8001a9c:	2000066c 	.word	0x2000066c
 8001aa0:	20000028 	.word	0x20000028
 8001aa4:	20000438 	.word	0x20000438
 8001aa8:	200008cd 	.word	0x200008cd
 8001aac:	200005f4 	.word	0x200005f4
 8001ab0:	2000002c 	.word	0x2000002c
 8001ab4:	08006241 	.word	0x08006241
 8001ab8:	200008cc 	.word	0x200008cc
 8001abc:	200008cb 	.word	0x200008cb
 8001ac0:	08006247 	.word	0x08006247
 8001ac4:	08006224 	.word	0x08006224
 8001ac8:	08006255 	.word	0x08006255
 8001acc:	08006263 	.word	0x08006263

08001ad0 <refill>:

MODE refill(){
 8001ad0:	b5f7      	push	{r0, r1, r2, r4, r5, r6, r7, lr}
	if(fireF){
 8001ad2:	4c6f      	ldr	r4, [pc, #444]	; (8001c90 <refill+0x1c0>)
 8001ad4:	7823      	ldrb	r3, [r4, #0]
 8001ad6:	2b00      	cmp	r3, #0
 8001ad8:	d003      	beq.n	8001ae2 <refill+0x12>
		fireF = false;
 8001ada:	2300      	movs	r3, #0
		ptInNum = 0;
 8001adc:	4a6d      	ldr	r2, [pc, #436]	; (8001c94 <refill+0x1c4>)
		fireF = false;
 8001ade:	7023      	strb	r3, [r4, #0]
		ptInNum = 0;
 8001ae0:	7013      	strb	r3, [r2, #0]
	}
	if(RE1){
 8001ae2:	4b6d      	ldr	r3, [pc, #436]	; (8001c98 <refill+0x1c8>)
 8001ae4:	4e6d      	ldr	r6, [pc, #436]	; (8001c9c <refill+0x1cc>)
 8001ae6:	781a      	ldrb	r2, [r3, #0]
 8001ae8:	2a63      	cmp	r2, #99	; 0x63
 8001aea:	d916      	bls.n	8001b1a <refill+0x4a>
		reC = 0;
 8001aec:	2200      	movs	r2, #0
 8001aee:	701a      	strb	r2, [r3, #0]
		if(JOY_U && ptInNum < pt[usePos].max){
 8001af0:	22fa      	movs	r2, #250	; 0xfa
 8001af2:	4b6b      	ldr	r3, [pc, #428]	; (8001ca0 <refill+0x1d0>)
 8001af4:	0112      	lsls	r2, r2, #4
 8001af6:	881b      	ldrh	r3, [r3, #0]
 8001af8:	4293      	cmp	r3, r2
 8001afa:	d800      	bhi.n	8001afe <refill+0x2e>
 8001afc:	e081      	b.n	8001c02 <refill+0x132>
 8001afe:	4a69      	ldr	r2, [pc, #420]	; (8001ca4 <refill+0x1d4>)
 8001b00:	4864      	ldr	r0, [pc, #400]	; (8001c94 <refill+0x1c4>)
 8001b02:	7811      	ldrb	r1, [r2, #0]
 8001b04:	4a68      	ldr	r2, [pc, #416]	; (8001ca8 <refill+0x1d8>)
 8001b06:	0109      	lsls	r1, r1, #4
 8001b08:	1852      	adds	r2, r2, r1
 8001b0a:	7803      	ldrb	r3, [r0, #0]
 8001b0c:	8992      	ldrh	r2, [r2, #12]
 8001b0e:	429a      	cmp	r2, r3
 8001b10:	d903      	bls.n	8001b1a <refill+0x4a>
			ptInNum++;
 8001b12:	3301      	adds	r3, #1
 8001b14:	7003      	strb	r3, [r0, #0]
			udf = true;
		}
		if(JOY_D && ptInNum){
			ptInNum--;
			udf = true;
 8001b16:	2301      	movs	r3, #1
 8001b18:	7033      	strb	r3, [r6, #0]
		}
	}
	if(JOY_P){
 8001b1a:	20a0      	movs	r0, #160	; 0xa0
 8001b1c:	2104      	movs	r1, #4
 8001b1e:	05c0      	lsls	r0, r0, #23
 8001b20:	f001 fd76 	bl	8003610 <HAL_GPIO_ReadPin>
		if(!oldsw){
 8001b24:	4b61      	ldr	r3, [pc, #388]	; (8001cac <refill+0x1dc>)
 8001b26:	781b      	ldrb	r3, [r3, #0]
 8001b28:	4318      	orrs	r0, r3
 8001b2a:	b2c0      	uxtb	r0, r0
 8001b2c:	2800      	cmp	r0, #0
 8001b2e:	d000      	beq.n	8001b32 <refill+0x62>
 8001b30:	e074      	b.n	8001c1c <refill+0x14c>
			swS();
 8001b32:	f7fe fe77 	bl	8000824 <swS>
			fireF = true;
 8001b36:	2301      	movs	r3, #1
 8001b38:	7023      	strb	r3, [r4, #0]
			udf = true;
 8001b3a:	7033      	strb	r3, [r6, #0]
			if(ptInNum){
 8001b3c:	4b55      	ldr	r3, [pc, #340]	; (8001c94 <refill+0x1c4>)
 8001b3e:	4c5a      	ldr	r4, [pc, #360]	; (8001ca8 <refill+0x1d8>)
 8001b40:	781b      	ldrb	r3, [r3, #0]
 8001b42:	2b00      	cmp	r3, #0
 8001b44:	d034      	beq.n	8001bb0 <refill+0xe0>
				logShift();
 8001b46:	f7fe feeb 	bl	8000920 <logShift>
				DS3231_get_date(&date.day, &date.month, (uint8_t*)&date.year);
 8001b4a:	4f59      	ldr	r7, [pc, #356]	; (8001cb0 <refill+0x1e0>)
 8001b4c:	0038      	movs	r0, r7
 8001b4e:	1cba      	adds	r2, r7, #2
 8001b50:	1c79      	adds	r1, r7, #1
 8001b52:	f7fe fd95 	bl	8000680 <DS3231_get_date>
				DS3231_get_time(&time.sec, &time.min, &time.hour);
 8001b56:	4e57      	ldr	r6, [pc, #348]	; (8001cb4 <refill+0x1e4>)
 8001b58:	0032      	movs	r2, r6
 8001b5a:	1c71      	adds	r1, r6, #1
 8001b5c:	1cb0      	adds	r0, r6, #2
 8001b5e:	f7fe fcf9 	bl	8000554 <DS3231_get_time>
				pLog[0].workCate = 1;
 8001b62:	4d55      	ldr	r5, [pc, #340]	; (8001cb8 <refill+0x1e8>)
 8001b64:	2301      	movs	r3, #1
				pLog[0].date = date;
 8001b66:	0028      	movs	r0, r5
				pLog[0].workCate = 1;
 8001b68:	702b      	strb	r3, [r5, #0]
				pLog[0].date = date;
 8001b6a:	2204      	movs	r2, #4
 8001b6c:	0039      	movs	r1, r7
 8001b6e:	3010      	adds	r0, #16
 8001b70:	f003 f914 	bl	8004d9c <memcpy>
				pLog[0].time = time;
 8001b74:	0028      	movs	r0, r5
 8001b76:	2203      	movs	r2, #3
 8001b78:	0031      	movs	r1, r6
 8001b7a:	300c      	adds	r0, #12
 8001b7c:	f003 f90e 	bl	8004d9c <memcpy>
				sprintf(pLog[0].content[0], "%s/%s", pt[usePos].name, ptCate[pt[usePos].cate]);
 8001b80:	4b48      	ldr	r3, [pc, #288]	; (8001ca4 <refill+0x1d4>)
 8001b82:	494e      	ldr	r1, [pc, #312]	; (8001cbc <refill+0x1ec>)
 8001b84:	781a      	ldrb	r2, [r3, #0]
 8001b86:	6868      	ldr	r0, [r5, #4]
 8001b88:	0112      	lsls	r2, r2, #4
 8001b8a:	18a3      	adds	r3, r4, r2
 8001b8c:	791b      	ldrb	r3, [r3, #4]
 8001b8e:	58a2      	ldr	r2, [r4, r2]
 8001b90:	009b      	lsls	r3, r3, #2
 8001b92:	585b      	ldr	r3, [r3, r1]
 8001b94:	494a      	ldr	r1, [pc, #296]	; (8001cc0 <refill+0x1f0>)
 8001b96:	f003 fa45 	bl	8005024 <siprintf>
				sprintf(pLog[0].content[1], "%dpcs (%d,%d)", ptInNum, tempX, tempY);
 8001b9a:	494a      	ldr	r1, [pc, #296]	; (8001cc4 <refill+0x1f4>)
 8001b9c:	4b4a      	ldr	r3, [pc, #296]	; (8001cc8 <refill+0x1f8>)
 8001b9e:	7809      	ldrb	r1, [r1, #0]
 8001ba0:	4a3c      	ldr	r2, [pc, #240]	; (8001c94 <refill+0x1c4>)
 8001ba2:	781b      	ldrb	r3, [r3, #0]
 8001ba4:	7812      	ldrb	r2, [r2, #0]
 8001ba6:	9100      	str	r1, [sp, #0]
 8001ba8:	68a8      	ldr	r0, [r5, #8]
 8001baa:	4948      	ldr	r1, [pc, #288]	; (8001ccc <refill+0x1fc>)
 8001bac:	f003 fa3a 	bl	8005024 <siprintf>
			}
			pt[usePos].store = ptInNum;
 8001bb0:	4b3c      	ldr	r3, [pc, #240]	; (8001ca4 <refill+0x1d4>)
 8001bb2:	4a38      	ldr	r2, [pc, #224]	; (8001c94 <refill+0x1c4>)
 8001bb4:	781b      	ldrb	r3, [r3, #0]
 8001bb6:	7812      	ldrb	r2, [r2, #0]
 8001bb8:	011b      	lsls	r3, r3, #4
 8001bba:	18e3      	adds	r3, r4, r3
 8001bbc:	815a      	strh	r2, [r3, #10]
			for(uint8_t i = 0; i < 36; i++){
				if(pt[usePos].ptionID == pt[i].ptionID && pt[usePos].ptionID) pt[i] = pt[usePos];
 8001bbe:	1dda      	adds	r2, r3, #7
			pt[usePos].store = ptInNum;
 8001bc0:	2524      	movs	r5, #36	; 0x24
				if(pt[usePos].ptionID == pt[i].ptionID && pt[usePos].ptionID) pt[i] = pt[usePos];
 8001bc2:	4694      	mov	ip, r2
 8001bc4:	4662      	mov	r2, ip
 8001bc6:	79e1      	ldrb	r1, [r4, #7]
 8001bc8:	7816      	ldrb	r6, [r2, #0]
 8001bca:	42b1      	cmp	r1, r6
 8001bcc:	d107      	bne.n	8001bde <refill+0x10e>
 8001bce:	2900      	cmp	r1, #0
 8001bd0:	d005      	beq.n	8001bde <refill+0x10e>
 8001bd2:	0021      	movs	r1, r4
 8001bd4:	001e      	movs	r6, r3
 8001bd6:	ce85      	ldmia	r6!, {r0, r2, r7}
 8001bd8:	c185      	stmia	r1!, {r0, r2, r7}
 8001bda:	6836      	ldr	r6, [r6, #0]
 8001bdc:	600e      	str	r6, [r1, #0]
				if(!pt[i].store) pt[i] = ptRst;
 8001bde:	8961      	ldrh	r1, [r4, #10]
 8001be0:	2900      	cmp	r1, #0
 8001be2:	d105      	bne.n	8001bf0 <refill+0x120>
 8001be4:	0021      	movs	r1, r4
 8001be6:	4e3a      	ldr	r6, [pc, #232]	; (8001cd0 <refill+0x200>)
 8001be8:	ce85      	ldmia	r6!, {r0, r2, r7}
 8001bea:	c185      	stmia	r1!, {r0, r2, r7}
 8001bec:	6836      	ldr	r6, [r6, #0]
 8001bee:	600e      	str	r6, [r1, #0]
			for(uint8_t i = 0; i < 36; i++){
 8001bf0:	3d01      	subs	r5, #1
 8001bf2:	b2ed      	uxtb	r5, r5
 8001bf4:	3410      	adds	r4, #16
 8001bf6:	2d00      	cmp	r5, #0
 8001bf8:	d1e4      	bne.n	8001bc4 <refill+0xf4>
			}
			led_clear();
 8001bfa:	f7fe fdd3 	bl	80007a4 <led_clear>
		SSD1306_PutsXY(0, 3, bf, 1);
		SSD1306_UpdateScreen();
		free(bf);
	}
	return REFILL;
}
 8001bfe:	0028      	movs	r0, r5
 8001c00:	bdfe      	pop	{r1, r2, r3, r4, r5, r6, r7, pc}
		if(JOY_D && ptInNum){
 8001c02:	2296      	movs	r2, #150	; 0x96
 8001c04:	0052      	lsls	r2, r2, #1
 8001c06:	4293      	cmp	r3, r2
 8001c08:	d300      	bcc.n	8001c0c <refill+0x13c>
 8001c0a:	e786      	b.n	8001b1a <refill+0x4a>
 8001c0c:	4a21      	ldr	r2, [pc, #132]	; (8001c94 <refill+0x1c4>)
 8001c0e:	7813      	ldrb	r3, [r2, #0]
 8001c10:	2b00      	cmp	r3, #0
 8001c12:	d100      	bne.n	8001c16 <refill+0x146>
 8001c14:	e781      	b.n	8001b1a <refill+0x4a>
			ptInNum--;
 8001c16:	3b01      	subs	r3, #1
 8001c18:	7013      	strb	r3, [r2, #0]
 8001c1a:	e77c      	b.n	8001b16 <refill+0x46>
	if(udf){
 8001c1c:	7833      	ldrb	r3, [r6, #0]
	return REFILL;
 8001c1e:	2504      	movs	r5, #4
	if(udf){
 8001c20:	2b00      	cmp	r3, #0
 8001c22:	d0ec      	beq.n	8001bfe <refill+0x12e>
		String bf = (String)calloc(0, sizeof(char) * 11);
 8001c24:	210b      	movs	r1, #11
 8001c26:	2000      	movs	r0, #0
 8001c28:	f003 f87a 	bl	8004d20 <calloc>
		udf = false;
 8001c2c:	2500      	movs	r5, #0
		String bf = (String)calloc(0, sizeof(char) * 11);
 8001c2e:	0004      	movs	r4, r0
		udf = false;
 8001c30:	7035      	strb	r5, [r6, #0]
		basicScreen();
 8001c32:	f7fe fde9 	bl	8000808 <basicScreen>
		SSD1306_PutsXY(0, 0, "#refill", 0);
 8001c36:	002b      	movs	r3, r5
 8001c38:	0029      	movs	r1, r5
 8001c3a:	0028      	movs	r0, r5
 8001c3c:	4a25      	ldr	r2, [pc, #148]	; (8001cd4 <refill+0x204>)
 8001c3e:	f7fe fdd3 	bl	80007e8 <SSD1306_PutsXY>
		SSD1306_PutsXY(0, 1, "Part has all used.", 1);
 8001c42:	2301      	movs	r3, #1
 8001c44:	0028      	movs	r0, r5
 8001c46:	0019      	movs	r1, r3
 8001c48:	4a23      	ldr	r2, [pc, #140]	; (8001cd8 <refill+0x208>)
 8001c4a:	f7fe fdcd 	bl	80007e8 <SSD1306_PutsXY>
		if(pt[usePos].ptionC < 1)pt[usePos].ptionC = 1;
 8001c4e:	4b15      	ldr	r3, [pc, #84]	; (8001ca4 <refill+0x1d4>)
 8001c50:	4a15      	ldr	r2, [pc, #84]	; (8001ca8 <refill+0x1d8>)
 8001c52:	781b      	ldrb	r3, [r3, #0]
 8001c54:	011b      	lsls	r3, r3, #4
 8001c56:	18d1      	adds	r1, r2, r3
 8001c58:	7a08      	ldrb	r0, [r1, #8]
 8001c5a:	42a8      	cmp	r0, r5
 8001c5c:	d101      	bne.n	8001c62 <refill+0x192>
 8001c5e:	2001      	movs	r0, #1
 8001c60:	7208      	strb	r0, [r1, #8]
		sprintf(bf, "IN:%u/%u", ptInNum, pt[usePos].max * pt[usePos].ptionC);
 8001c62:	18d2      	adds	r2, r2, r3
 8001c64:	8991      	ldrh	r1, [r2, #12]
 8001c66:	7a13      	ldrb	r3, [r2, #8]
 8001c68:	4a0a      	ldr	r2, [pc, #40]	; (8001c94 <refill+0x1c4>)
 8001c6a:	434b      	muls	r3, r1
 8001c6c:	7812      	ldrb	r2, [r2, #0]
 8001c6e:	491b      	ldr	r1, [pc, #108]	; (8001cdc <refill+0x20c>)
 8001c70:	0020      	movs	r0, r4
 8001c72:	f003 f9d7 	bl	8005024 <siprintf>
		SSD1306_PutsXY(0, 3, bf, 1);
 8001c76:	2301      	movs	r3, #1
 8001c78:	0022      	movs	r2, r4
 8001c7a:	2103      	movs	r1, #3
 8001c7c:	2000      	movs	r0, #0
 8001c7e:	f7fe fdb3 	bl	80007e8 <SSD1306_PutsXY>
		SSD1306_UpdateScreen();
 8001c82:	f000 fd8d 	bl	80027a0 <SSD1306_UpdateScreen>
		free(bf);
 8001c86:	0020      	movs	r0, r4
 8001c88:	f003 f87e 	bl	8004d88 <free>
	return REFILL;
 8001c8c:	2504      	movs	r5, #4
 8001c8e:	e7b6      	b.n	8001bfe <refill+0x12e>
 8001c90:	20000008 	.word	0x20000008
 8001c94:	200008b4 	.word	0x200008b4
 8001c98:	200008c9 	.word	0x200008c9
 8001c9c:	2000003c 	.word	0x2000003c
 8001ca0:	20000430 	.word	0x20000430
 8001ca4:	2000003d 	.word	0x2000003d
 8001ca8:	2000066c 	.word	0x2000066c
 8001cac:	20000028 	.word	0x20000028
 8001cb0:	20000438 	.word	0x20000438
 8001cb4:	200008cd 	.word	0x200008cd
 8001cb8:	200005f4 	.word	0x200005f4
 8001cbc:	2000002c 	.word	0x2000002c
 8001cc0:	08006241 	.word	0x08006241
 8001cc4:	200008cc 	.word	0x200008cc
 8001cc8:	200008cb 	.word	0x200008cb
 8001ccc:	08006247 	.word	0x08006247
 8001cd0:	200008b8 	.word	0x200008b8
 8001cd4:	0800626d 	.word	0x0800626d
 8001cd8:	08006275 	.word	0x08006275
 8001cdc:	08006288 	.word	0x08006288

08001ce0 <pFind>:

MODE pFind(){
 8001ce0:	b5f0      	push	{r4, r5, r6, r7, lr}
	if(fireF) fireF = false;
 8001ce2:	4d30      	ldr	r5, [pc, #192]	; (8001da4 <pFind+0xc4>)
MODE pFind(){
 8001ce4:	b085      	sub	sp, #20
	if(fireF) fireF = false;
 8001ce6:	782b      	ldrb	r3, [r5, #0]
 8001ce8:	2b00      	cmp	r3, #0
 8001cea:	d001      	beq.n	8001cf0 <pFind+0x10>
 8001cec:	2300      	movs	r3, #0
 8001cee:	702b      	strb	r3, [r5, #0]
	if(JOY_P){
 8001cf0:	20a0      	movs	r0, #160	; 0xa0
 8001cf2:	2104      	movs	r1, #4
 8001cf4:	05c0      	lsls	r0, r0, #23
 8001cf6:	f001 fc8b 	bl	8003610 <HAL_GPIO_ReadPin>
		if(!oldsw){
 8001cfa:	4b2b      	ldr	r3, [pc, #172]	; (8001da8 <pFind+0xc8>)
 8001cfc:	781c      	ldrb	r4, [r3, #0]
 8001cfe:	4304      	orrs	r4, r0
 8001d00:	b2e4      	uxtb	r4, r4
 8001d02:	2c00      	cmp	r4, #0
 8001d04:	d125      	bne.n	8001d52 <pFind+0x72>
			swS();
 8001d06:	f7fe fd8d 	bl	8000824 <swS>
			if(!ptFindName[0]) ptFindName = textIn(true, 10);
 8001d0a:	4f28      	ldr	r7, [pc, #160]	; (8001dac <pFind+0xcc>)
 8001d0c:	4e28      	ldr	r6, [pc, #160]	; (8001db0 <pFind+0xd0>)
 8001d0e:	683b      	ldr	r3, [r7, #0]
 8001d10:	9303      	str	r3, [sp, #12]
 8001d12:	781b      	ldrb	r3, [r3, #0]
 8001d14:	2b00      	cmp	r3, #0
 8001d16:	d017      	beq.n	8001d48 <pFind+0x68>
			else{
				for(uint8_t i = 0; i < 36; i++)
					if(!strcmp(ptFindName, pt[i].name))
						findArr[findC++] = i;
 8001d18:	4f26      	ldr	r7, [pc, #152]	; (8001db4 <pFind+0xd4>)
					if(!strcmp(ptFindName, pt[i].name))
 8001d1a:	6831      	ldr	r1, [r6, #0]
 8001d1c:	9803      	ldr	r0, [sp, #12]
 8001d1e:	f7fe f9f3 	bl	8000108 <strcmp>
 8001d22:	2800      	cmp	r0, #0
 8001d24:	d104      	bne.n	8001d30 <pFind+0x50>
						findArr[findC++] = i;
 8001d26:	783b      	ldrb	r3, [r7, #0]
 8001d28:	1c5a      	adds	r2, r3, #1
 8001d2a:	703a      	strb	r2, [r7, #0]
 8001d2c:	4a22      	ldr	r2, [pc, #136]	; (8001db8 <pFind+0xd8>)
 8001d2e:	54d4      	strb	r4, [r2, r3]
				for(uint8_t i = 0; i < 36; i++)
 8001d30:	3401      	adds	r4, #1
 8001d32:	b2e4      	uxtb	r4, r4
 8001d34:	3610      	adds	r6, #16
 8001d36:	2c24      	cmp	r4, #36	; 0x24
 8001d38:	d1ef      	bne.n	8001d1a <pFind+0x3a>
				fireF = true;
 8001d3a:	2301      	movs	r3, #1
				udf = true;

				return FINDR;
 8001d3c:	2006      	movs	r0, #6
				udf = true;
 8001d3e:	4a1f      	ldr	r2, [pc, #124]	; (8001dbc <pFind+0xdc>)
				fireF = true;
 8001d40:	702b      	strb	r3, [r5, #0]
				udf = true;
 8001d42:	7013      	strb	r3, [r2, #0]
		if(!ptFindName[0]) SSD1306_Puts("input find name", &Font_6x8, 1);
		else SSD1306_Puts(ptFindName, &Font_6x8, 1);
		SSD1306_UpdateScreen();
	}
	return PFIND;
}
 8001d44:	b005      	add	sp, #20
 8001d46:	bdf0      	pop	{r4, r5, r6, r7, pc}
			if(!ptFindName[0]) ptFindName = textIn(true, 10);
 8001d48:	210a      	movs	r1, #10
 8001d4a:	2001      	movs	r0, #1
 8001d4c:	f7fe fdf8 	bl	8000940 <textIn>
 8001d50:	6038      	str	r0, [r7, #0]
	if(udf){
 8001d52:	4b1a      	ldr	r3, [pc, #104]	; (8001dbc <pFind+0xdc>)
	return PFIND;
 8001d54:	2005      	movs	r0, #5
	if(udf){
 8001d56:	781a      	ldrb	r2, [r3, #0]
 8001d58:	2a00      	cmp	r2, #0
 8001d5a:	d0f3      	beq.n	8001d44 <pFind+0x64>
		udf = false;
 8001d5c:	2400      	movs	r4, #0
 8001d5e:	701c      	strb	r4, [r3, #0]
		basicScreen();
 8001d60:	f7fe fd52 	bl	8000808 <basicScreen>
		SSD1306_PutsXY(0, 0, "#Find", 0);
 8001d64:	0023      	movs	r3, r4
 8001d66:	0021      	movs	r1, r4
 8001d68:	0020      	movs	r0, r4
 8001d6a:	4a15      	ldr	r2, [pc, #84]	; (8001dc0 <pFind+0xe0>)
		SSD1306_DrawFilledRectangle(18, 34, 92, 10, 1);
 8001d6c:	3401      	adds	r4, #1
		SSD1306_PutsXY(0, 0, "#Find", 0);
 8001d6e:	f7fe fd3b 	bl	80007e8 <SSD1306_PutsXY>
		SSD1306_DrawFilledRectangle(18, 34, 92, 10, 1);
 8001d72:	230a      	movs	r3, #10
 8001d74:	225c      	movs	r2, #92	; 0x5c
 8001d76:	2122      	movs	r1, #34	; 0x22
 8001d78:	2012      	movs	r0, #18
 8001d7a:	9400      	str	r4, [sp, #0]
 8001d7c:	f000 fcb7 	bl	80026ee <SSD1306_DrawFilledRectangle>
		SSD1306_GotoXY(19, 36);
 8001d80:	2124      	movs	r1, #36	; 0x24
 8001d82:	2013      	movs	r0, #19
 8001d84:	f000 fbca 	bl	800251c <SSD1306_GotoXY>
		if(!ptFindName[0]) SSD1306_Puts("input find name", &Font_6x8, 1);
 8001d88:	4b08      	ldr	r3, [pc, #32]	; (8001dac <pFind+0xcc>)
 8001d8a:	0022      	movs	r2, r4
 8001d8c:	6818      	ldr	r0, [r3, #0]
 8001d8e:	490d      	ldr	r1, [pc, #52]	; (8001dc4 <pFind+0xe4>)
 8001d90:	7803      	ldrb	r3, [r0, #0]
 8001d92:	2b00      	cmp	r3, #0
 8001d94:	d100      	bne.n	8001d98 <pFind+0xb8>
 8001d96:	480c      	ldr	r0, [pc, #48]	; (8001dc8 <pFind+0xe8>)
		else SSD1306_Puts(ptFindName, &Font_6x8, 1);
 8001d98:	f000 fbfc 	bl	8002594 <SSD1306_Puts>
		SSD1306_UpdateScreen();
 8001d9c:	f000 fd00 	bl	80027a0 <SSD1306_UpdateScreen>
	return PFIND;
 8001da0:	2005      	movs	r0, #5
 8001da2:	e7cf      	b.n	8001d44 <pFind+0x64>
 8001da4:	20000008 	.word	0x20000008
 8001da8:	20000028 	.word	0x20000028
 8001dac:	200008b0 	.word	0x200008b0
 8001db0:	2000066c 	.word	0x2000066c
 8001db4:	20000460 	.word	0x20000460
 8001db8:	2000043c 	.word	0x2000043c
 8001dbc:	2000003c 	.word	0x2000003c
 8001dc0:	08006291 	.word	0x08006291
 8001dc4:	20000000 	.word	0x20000000
 8001dc8:	08006297 	.word	0x08006297

08001dcc <findR>:

MODE findR(){
 8001dcc:	b5f0      	push	{r4, r5, r6, r7, lr}
	if(fireF) fireF = false;
 8001dce:	4b93      	ldr	r3, [pc, #588]	; (800201c <findR+0x250>)
MODE findR(){
 8001dd0:	b085      	sub	sp, #20
	if(fireF) fireF = false;
 8001dd2:	781b      	ldrb	r3, [r3, #0]
 8001dd4:	2b00      	cmp	r3, #0
 8001dd6:	d002      	beq.n	8001dde <findR+0x12>
 8001dd8:	2300      	movs	r3, #0
 8001dda:	4a90      	ldr	r2, [pc, #576]	; (800201c <findR+0x250>)
 8001ddc:	7013      	strb	r3, [r2, #0]
	if(ledC >= 1000) ledC = 0;
 8001dde:	21fa      	movs	r1, #250	; 0xfa
 8001de0:	4a8f      	ldr	r2, [pc, #572]	; (8002020 <findR+0x254>)
 8001de2:	4e90      	ldr	r6, [pc, #576]	; (8002024 <findR+0x258>)
 8001de4:	8813      	ldrh	r3, [r2, #0]
 8001de6:	4f90      	ldr	r7, [pc, #576]	; (8002028 <findR+0x25c>)
 8001de8:	0089      	lsls	r1, r1, #2
 8001dea:	428b      	cmp	r3, r1
 8001dec:	d200      	bcs.n	8001df0 <findR+0x24>
 8001dee:	e073      	b.n	8001ed8 <findR+0x10c>
 8001df0:	2300      	movs	r3, #0
 8001df2:	8013      	strh	r3, [r2, #0]
MODE findR(){
 8001df4:	2500      	movs	r5, #0
	if(ledC < 500)
		for(uint8_t i = 0; i < 36; i++)
			led_color(pt[findArr[i]].pos, PTRF, PTGF, PTBF);
 8001df6:	2404      	movs	r4, #4
 8001df8:	4b8c      	ldr	r3, [pc, #560]	; (800202c <findR+0x260>)
 8001dfa:	4a8c      	ldr	r2, [pc, #560]	; (800202c <findR+0x260>)
 8001dfc:	5d5b      	ldrb	r3, [r3, r5]
 8001dfe:	011b      	lsls	r3, r3, #4
 8001e00:	18f3      	adds	r3, r6, r3
 8001e02:	7998      	ldrb	r0, [r3, #6]
 8001e04:	783b      	ldrb	r3, [r7, #0]
 8001e06:	5cd3      	ldrb	r3, [r2, r3]
 8001e08:	2200      	movs	r2, #0
 8001e0a:	011b      	lsls	r3, r3, #4
 8001e0c:	18f3      	adds	r3, r6, r3
 8001e0e:	7919      	ldrb	r1, [r3, #4]
 8001e10:	0023      	movs	r3, r4
 8001e12:	2901      	cmp	r1, #1
 8001e14:	d005      	beq.n	8001e22 <findR+0x56>
 8001e16:	0022      	movs	r2, r4
 8001e18:	2903      	cmp	r1, #3
 8001e1a:	d000      	beq.n	8001e1e <findR+0x52>
 8001e1c:	e0f7      	b.n	800200e <findR+0x242>
 8001e1e:	2100      	movs	r1, #0
 8001e20:	2304      	movs	r3, #4
		for(uint8_t i = 0; i < 36; i++)
 8001e22:	3501      	adds	r5, #1
			led_color(pt[findArr[i]].pos, PTRF, PTGF, PTBF);
 8001e24:	f7fe fc88 	bl	8000738 <led_color>
		for(uint8_t i = 0; i < 36; i++)
 8001e28:	2d24      	cmp	r5, #36	; 0x24
 8001e2a:	d1e5      	bne.n	8001df8 <findR+0x2c>
	else led_color(pt[findArr[sel]].pos, 0, 0, 0);
	if(reC >= 250){
 8001e2c:	4b80      	ldr	r3, [pc, #512]	; (8002030 <findR+0x264>)
 8001e2e:	781a      	ldrb	r2, [r3, #0]
 8001e30:	2af9      	cmp	r2, #249	; 0xf9
 8001e32:	d90e      	bls.n	8001e52 <findR+0x86>
		reC = 0;
 8001e34:	2200      	movs	r2, #0
 8001e36:	701a      	strb	r2, [r3, #0]
		led_update();
 8001e38:	f7fe fc8a 	bl	8000750 <led_update>
		if(JOY_U && sel)sel--;
 8001e3c:	22fa      	movs	r2, #250	; 0xfa
 8001e3e:	4b7d      	ldr	r3, [pc, #500]	; (8002034 <findR+0x268>)
 8001e40:	0112      	lsls	r2, r2, #4
 8001e42:	881b      	ldrh	r3, [r3, #0]
 8001e44:	4293      	cmp	r3, r2
 8001e46:	d958      	bls.n	8001efa <findR+0x12e>
 8001e48:	783b      	ldrb	r3, [r7, #0]
 8001e4a:	2b00      	cmp	r3, #0
 8001e4c:	d001      	beq.n	8001e52 <findR+0x86>
 8001e4e:	3b01      	subs	r3, #1
		if(JOY_D && sel < (findC - 1)) sel++;
 8001e50:	703b      	strb	r3, [r7, #0]
	}
	if(JOY_P){
 8001e52:	20a0      	movs	r0, #160	; 0xa0
 8001e54:	2104      	movs	r1, #4
 8001e56:	05c0      	lsls	r0, r0, #23
 8001e58:	f001 fbda 	bl	8003610 <HAL_GPIO_ReadPin>
 8001e5c:	1e01      	subs	r1, r0, #0
 8001e5e:	d000      	beq.n	8001e62 <findR+0x96>
 8001e60:	e096      	b.n	8001f90 <findR+0x1c4>
		if(!oldsw){
 8001e62:	4b75      	ldr	r3, [pc, #468]	; (8002038 <findR+0x26c>)
 8001e64:	781b      	ldrb	r3, [r3, #0]
 8001e66:	2b00      	cmp	r3, #0
 8001e68:	d153      	bne.n	8001f12 <findR+0x146>
			swS();
 8001e6a:	f7fe fcdb 	bl	8000824 <swS>
			logShift();
 8001e6e:	f7fe fd57 	bl	8000920 <logShift>
			DS3231_get_date(&date.day, &date.month, &date.year);
 8001e72:	4e72      	ldr	r6, [pc, #456]	; (800203c <findR+0x270>)
 8001e74:	0030      	movs	r0, r6
 8001e76:	1cb2      	adds	r2, r6, #2
 8001e78:	1c71      	adds	r1, r6, #1
 8001e7a:	f7fe fc01 	bl	8000680 <DS3231_get_date>
			DS3231_get_time(&time.sec, &time.min, &time.hour);
 8001e7e:	4d70      	ldr	r5, [pc, #448]	; (8002040 <findR+0x274>)
 8001e80:	002a      	movs	r2, r5
 8001e82:	1c69      	adds	r1, r5, #1
 8001e84:	1ca8      	adds	r0, r5, #2
 8001e86:	f7fe fb65 	bl	8000554 <DS3231_get_time>
			pLog[0].workCate = 3;
 8001e8a:	4c6e      	ldr	r4, [pc, #440]	; (8002044 <findR+0x278>)
 8001e8c:	2303      	movs	r3, #3
			pLog[0].date = date;
 8001e8e:	0020      	movs	r0, r4
			pLog[0].workCate = 3;
 8001e90:	7023      	strb	r3, [r4, #0]
			pLog[0].date = date;
 8001e92:	2204      	movs	r2, #4
 8001e94:	0031      	movs	r1, r6
 8001e96:	3010      	adds	r0, #16
 8001e98:	f002 ff80 	bl	8004d9c <memcpy>
			pLog[0].time = time;
 8001e9c:	0020      	movs	r0, r4
 8001e9e:	2203      	movs	r2, #3
 8001ea0:	0029      	movs	r1, r5
 8001ea2:	300c      	adds	r0, #12
 8001ea4:	f002 ff7a 	bl	8004d9c <memcpy>
			sprintf(pLog[0].content[0], "Sear:%s", ptFindName);
 8001ea8:	4b67      	ldr	r3, [pc, #412]	; (8002048 <findR+0x27c>)
 8001eaa:	4968      	ldr	r1, [pc, #416]	; (800204c <findR+0x280>)
 8001eac:	681a      	ldr	r2, [r3, #0]
 8001eae:	6860      	ldr	r0, [r4, #4]
 8001eb0:	f003 f8b8 	bl	8005024 <siprintf>
			sprintf(pLog[0].content[0], "Num of Find:%u", findC);
 8001eb4:	4b66      	ldr	r3, [pc, #408]	; (8002050 <findR+0x284>)
 8001eb6:	4967      	ldr	r1, [pc, #412]	; (8002054 <findR+0x288>)
 8001eb8:	781a      	ldrb	r2, [r3, #0]
 8001eba:	6860      	ldr	r0, [r4, #4]
 8001ebc:	f003 f8b2 	bl	8005024 <siprintf>
			if(findC){
 8001ec0:	4b63      	ldr	r3, [pc, #396]	; (8002050 <findR+0x284>)
 8001ec2:	7818      	ldrb	r0, [r3, #0]
 8001ec4:	2800      	cmp	r0, #0
 8001ec6:	d005      	beq.n	8001ed4 <findR+0x108>
				usePos = findArr[sel];
				return USE;
 8001ec8:	2003      	movs	r0, #3
				usePos = findArr[sel];
 8001eca:	783b      	ldrb	r3, [r7, #0]
 8001ecc:	4a57      	ldr	r2, [pc, #348]	; (800202c <findR+0x260>)
 8001ece:	5cd2      	ldrb	r2, [r2, r3]
 8001ed0:	4b61      	ldr	r3, [pc, #388]	; (8002058 <findR+0x28c>)
 8001ed2:	701a      	strb	r2, [r3, #0]
			free(bf);
		}else SSD1306_PutsXY(0, 1, "Not Found..", 1);
		SSD1306_UpdateScreen();
	}
	return FINDR;
}
 8001ed4:	b005      	add	sp, #20
 8001ed6:	bdf0      	pop	{r4, r5, r6, r7, pc}
	if(ledC < 500)
 8001ed8:	22fa      	movs	r2, #250	; 0xfa
 8001eda:	0052      	lsls	r2, r2, #1
 8001edc:	4293      	cmp	r3, r2
 8001ede:	d200      	bcs.n	8001ee2 <findR+0x116>
 8001ee0:	e788      	b.n	8001df4 <findR+0x28>
	else led_color(pt[findArr[sel]].pos, 0, 0, 0);
 8001ee2:	783b      	ldrb	r3, [r7, #0]
 8001ee4:	4a51      	ldr	r2, [pc, #324]	; (800202c <findR+0x260>)
 8001ee6:	5cd3      	ldrb	r3, [r2, r3]
 8001ee8:	011b      	lsls	r3, r3, #4
 8001eea:	18f6      	adds	r6, r6, r3
 8001eec:	2300      	movs	r3, #0
 8001eee:	79b0      	ldrb	r0, [r6, #6]
 8001ef0:	001a      	movs	r2, r3
 8001ef2:	0019      	movs	r1, r3
 8001ef4:	f7fe fc20 	bl	8000738 <led_color>
 8001ef8:	e798      	b.n	8001e2c <findR+0x60>
		if(JOY_D && sel < (findC - 1)) sel++;
 8001efa:	2296      	movs	r2, #150	; 0x96
 8001efc:	0052      	lsls	r2, r2, #1
 8001efe:	4293      	cmp	r3, r2
 8001f00:	d2a7      	bcs.n	8001e52 <findR+0x86>
 8001f02:	4a53      	ldr	r2, [pc, #332]	; (8002050 <findR+0x284>)
 8001f04:	783b      	ldrb	r3, [r7, #0]
 8001f06:	7812      	ldrb	r2, [r2, #0]
 8001f08:	3a01      	subs	r2, #1
 8001f0a:	4293      	cmp	r3, r2
 8001f0c:	daa1      	bge.n	8001e52 <findR+0x86>
 8001f0e:	3301      	adds	r3, #1
 8001f10:	e79e      	b.n	8001e50 <findR+0x84>
		findC = 0;
 8001f12:	4b4f      	ldr	r3, [pc, #316]	; (8002050 <findR+0x284>)
		memset(ptFindName, 0, sizeof(ptFindName));
 8001f14:	2204      	movs	r2, #4
		findC = 0;
 8001f16:	7018      	strb	r0, [r3, #0]
		memset(ptFindName, 0, sizeof(ptFindName));
 8001f18:	4b4b      	ldr	r3, [pc, #300]	; (8002048 <findR+0x27c>)
 8001f1a:	6818      	ldr	r0, [r3, #0]
 8001f1c:	f002 ff5a 	bl	8004dd4 <memset>
		fireF = true;
 8001f20:	2301      	movs	r3, #1
 8001f22:	4a3e      	ldr	r2, [pc, #248]	; (800201c <findR+0x250>)
 8001f24:	7013      	strb	r3, [r2, #0]
		udf = false;
 8001f26:	2400      	movs	r4, #0
 8001f28:	4b4c      	ldr	r3, [pc, #304]	; (800205c <findR+0x290>)
 8001f2a:	701c      	strb	r4, [r3, #0]
		basicScreen();
 8001f2c:	f7fe fc6c 	bl	8000808 <basicScreen>
		SSD1306_PutsXY(0, 0, "#Find result", 0);
 8001f30:	0023      	movs	r3, r4
 8001f32:	0020      	movs	r0, r4
 8001f34:	0021      	movs	r1, r4
 8001f36:	4a4a      	ldr	r2, [pc, #296]	; (8002060 <findR+0x294>)
 8001f38:	f7fe fc56 	bl	80007e8 <SSD1306_PutsXY>
		if(findC){
 8001f3c:	4b44      	ldr	r3, [pc, #272]	; (8002050 <findR+0x284>)
 8001f3e:	7818      	ldrb	r0, [r3, #0]
 8001f40:	42a0      	cmp	r0, r4
 8001f42:	d05e      	beq.n	8002002 <findR+0x236>
			String bf = (String)calloc(0, sizeof(char) * 31);
 8001f44:	211f      	movs	r1, #31
 8001f46:	0020      	movs	r0, r4
 8001f48:	f002 feea 	bl	8004d20 <calloc>
 8001f4c:	0005      	movs	r5, r0
			for(uint8_t i = 0; i < 4; i++) SSD1306_PutsXY(0, i + 2, i == sel ? ">" : " ", 1);
 8001f4e:	783b      	ldrb	r3, [r7, #0]
 8001f50:	1ca1      	adds	r1, r4, #2
 8001f52:	4a44      	ldr	r2, [pc, #272]	; (8002064 <findR+0x298>)
 8001f54:	b2c9      	uxtb	r1, r1
 8001f56:	42a3      	cmp	r3, r4
 8001f58:	d000      	beq.n	8001f5c <findR+0x190>
 8001f5a:	4a43      	ldr	r2, [pc, #268]	; (8002068 <findR+0x29c>)
 8001f5c:	3401      	adds	r4, #1
 8001f5e:	2301      	movs	r3, #1
 8001f60:	2000      	movs	r0, #0
 8001f62:	b2e4      	uxtb	r4, r4
 8001f64:	f7fe fc40 	bl	80007e8 <SSD1306_PutsXY>
 8001f68:	2c04      	cmp	r4, #4
 8001f6a:	d1f0      	bne.n	8001f4e <findR+0x182>
			SSD1306_PutsXY(0, 1, "Find some Parts!", 1);
 8001f6c:	2301      	movs	r3, #1
 8001f6e:	2000      	movs	r0, #0
 8001f70:	0019      	movs	r1, r3
 8001f72:	4a3e      	ldr	r2, [pc, #248]	; (800206c <findR+0x2a0>)
 8001f74:	f7fe fc38 	bl	80007e8 <SSD1306_PutsXY>
			for(uint8_t i = 0; i < findC; i++){
 8001f78:	2400      	movs	r4, #0
 8001f7a:	4b35      	ldr	r3, [pc, #212]	; (8002050 <findR+0x284>)
 8001f7c:	781b      	ldrb	r3, [r3, #0]
 8001f7e:	42a3      	cmp	r3, r4
 8001f80:	d80c      	bhi.n	8001f9c <findR+0x1d0>
			free(bf);
 8001f82:	0028      	movs	r0, r5
 8001f84:	f002 ff00 	bl	8004d88 <free>
		SSD1306_UpdateScreen();
 8001f88:	f000 fc0a 	bl	80027a0 <SSD1306_UpdateScreen>
	return FINDR;
 8001f8c:	2006      	movs	r0, #6
 8001f8e:	e7a1      	b.n	8001ed4 <findR+0x108>
	if(udf){
 8001f90:	4b32      	ldr	r3, [pc, #200]	; (800205c <findR+0x290>)
	return FINDR;
 8001f92:	2006      	movs	r0, #6
	if(udf){
 8001f94:	781b      	ldrb	r3, [r3, #0]
 8001f96:	2b00      	cmp	r3, #0
 8001f98:	d09c      	beq.n	8001ed4 <findR+0x108>
 8001f9a:	e7c4      	b.n	8001f26 <findR+0x15a>
				tempX = (pt[findArr[i]].pos) % 6 + 1;
 8001f9c:	4b23      	ldr	r3, [pc, #140]	; (800202c <findR+0x260>)
 8001f9e:	2106      	movs	r1, #6
 8001fa0:	5d1b      	ldrb	r3, [r3, r4]
 8001fa2:	011b      	lsls	r3, r3, #4
 8001fa4:	9303      	str	r3, [sp, #12]
 8001fa6:	9a03      	ldr	r2, [sp, #12]
 8001fa8:	4b1e      	ldr	r3, [pc, #120]	; (8002024 <findR+0x258>)
 8001faa:	189e      	adds	r6, r3, r2
 8001fac:	79b7      	ldrb	r7, [r6, #6]
 8001fae:	0038      	movs	r0, r7
 8001fb0:	f7fe f94e 	bl	8000250 <__aeabi_uidivmod>
 8001fb4:	3101      	adds	r1, #1
 8001fb6:	b2cb      	uxtb	r3, r1
 8001fb8:	9302      	str	r3, [sp, #8]
 8001fba:	9a02      	ldr	r2, [sp, #8]
 8001fbc:	4b2c      	ldr	r3, [pc, #176]	; (8002070 <findR+0x2a4>)
				tempY = 6 - (pt[findArr[i]].pos) / 6;
 8001fbe:	2106      	movs	r1, #6
				tempX = (pt[findArr[i]].pos) % 6 + 1;
 8001fc0:	701a      	strb	r2, [r3, #0]
				tempY = 6 - (pt[findArr[i]].pos) / 6;
 8001fc2:	0038      	movs	r0, r7
 8001fc4:	f7fe f8be 	bl	8000144 <__udivsi3>
 8001fc8:	2306      	movs	r3, #6
 8001fca:	1a18      	subs	r0, r3, r0
 8001fcc:	4b29      	ldr	r3, [pc, #164]	; (8002074 <findR+0x2a8>)
				sprintf(bf, "%s(%s/%d,%d)", pt[findArr[i]].name, ptCate[pt[findArr[i]].cate], tempX, tempY);
 8001fce:	9a02      	ldr	r2, [sp, #8]
				tempY = 6 - (pt[findArr[i]].pos) / 6;
 8001fd0:	b2c0      	uxtb	r0, r0
 8001fd2:	7018      	strb	r0, [r3, #0]
				sprintf(bf, "%s(%s/%d,%d)", pt[findArr[i]].name, ptCate[pt[findArr[i]].cate], tempX, tempY);
 8001fd4:	7933      	ldrb	r3, [r6, #4]
 8001fd6:	9200      	str	r2, [sp, #0]
 8001fd8:	4a27      	ldr	r2, [pc, #156]	; (8002078 <findR+0x2ac>)
 8001fda:	9001      	str	r0, [sp, #4]
 8001fdc:	009b      	lsls	r3, r3, #2
 8001fde:	589b      	ldr	r3, [r3, r2]
 8001fe0:	9903      	ldr	r1, [sp, #12]
 8001fe2:	4a10      	ldr	r2, [pc, #64]	; (8002024 <findR+0x258>)
 8001fe4:	0028      	movs	r0, r5
 8001fe6:	588a      	ldr	r2, [r1, r2]
 8001fe8:	4924      	ldr	r1, [pc, #144]	; (800207c <findR+0x2b0>)
 8001fea:	f003 f81b 	bl	8005024 <siprintf>
				SSD1306_PutsXY(1, i + 2, bf, 1);
 8001fee:	2301      	movs	r3, #1
 8001ff0:	1ca1      	adds	r1, r4, #2
 8001ff2:	002a      	movs	r2, r5
 8001ff4:	0018      	movs	r0, r3
 8001ff6:	b2c9      	uxtb	r1, r1
			for(uint8_t i = 0; i < findC; i++){
 8001ff8:	3401      	adds	r4, #1
				SSD1306_PutsXY(1, i + 2, bf, 1);
 8001ffa:	f7fe fbf5 	bl	80007e8 <SSD1306_PutsXY>
			for(uint8_t i = 0; i < findC; i++){
 8001ffe:	b2e4      	uxtb	r4, r4
 8002000:	e7bb      	b.n	8001f7a <findR+0x1ae>
		}else SSD1306_PutsXY(0, 1, "Not Found..", 1);
 8002002:	2301      	movs	r3, #1
 8002004:	4a1e      	ldr	r2, [pc, #120]	; (8002080 <findR+0x2b4>)
 8002006:	0019      	movs	r1, r3
 8002008:	f7fe fbee 	bl	80007e8 <SSD1306_PutsXY>
 800200c:	e7bc      	b.n	8001f88 <findR+0x1bc>
			led_color(pt[findArr[i]].pos, PTRF, PTGF, PTBF);
 800200e:	2902      	cmp	r1, #2
 8002010:	d000      	beq.n	8002014 <findR+0x248>
 8002012:	2201      	movs	r2, #1
 8002014:	0021      	movs	r1, r4
 8002016:	2300      	movs	r3, #0
 8002018:	e703      	b.n	8001e22 <findR+0x56>
 800201a:	46c0      	nop			; (mov r8, r8)
 800201c:	20000008 	.word	0x20000008
 8002020:	200005ec 	.word	0x200005ec
 8002024:	2000066c 	.word	0x2000066c
 8002028:	200008ca 	.word	0x200008ca
 800202c:	2000043c 	.word	0x2000043c
 8002030:	200008c9 	.word	0x200008c9
 8002034:	20000430 	.word	0x20000430
 8002038:	20000028 	.word	0x20000028
 800203c:	20000438 	.word	0x20000438
 8002040:	200008cd 	.word	0x200008cd
 8002044:	200005f4 	.word	0x200005f4
 8002048:	200008b0 	.word	0x200008b0
 800204c:	080062a7 	.word	0x080062a7
 8002050:	20000460 	.word	0x20000460
 8002054:	080062af 	.word	0x080062af
 8002058:	2000003d 	.word	0x2000003d
 800205c:	2000003c 	.word	0x2000003c
 8002060:	080062be 	.word	0x080062be
 8002064:	080061b9 	.word	0x080061b9
 8002068:	0800635c 	.word	0x0800635c
 800206c:	080062cb 	.word	0x080062cb
 8002070:	200008cb 	.word	0x200008cb
 8002074:	200008cc 	.word	0x200008cc
 8002078:	2000002c 	.word	0x2000002c
 800207c:	080062dc 	.word	0x080062dc
 8002080:	080062e9 	.word	0x080062e9

08002084 <SystemClock_Config>:

/**
 * @brief System Clock Configuration
 * @retval None
 */
void SystemClock_Config(void) {
 8002084:	b510      	push	{r4, lr}
 8002086:	b09c      	sub	sp, #112	; 0x70
	RCC_OscInitTypeDef RCC_OscInitStruct = { 0 };
 8002088:	2224      	movs	r2, #36	; 0x24
 800208a:	2100      	movs	r1, #0
 800208c:	a80f      	add	r0, sp, #60	; 0x3c
 800208e:	f002 fea1 	bl	8004dd4 <memset>
	RCC_ClkInitTypeDef RCC_ClkInitStruct = { 0 };
 8002092:	2214      	movs	r2, #20
 8002094:	2100      	movs	r1, #0
 8002096:	a801      	add	r0, sp, #4
 8002098:	f002 fe9c 	bl	8004dd4 <memset>
	RCC_PeriphCLKInitTypeDef PeriphClkInit = { 0 };
 800209c:	2220      	movs	r2, #32
 800209e:	2100      	movs	r1, #0
 80020a0:	a806      	add	r0, sp, #24
 80020a2:	f002 fe97 	bl	8004dd4 <memset>

	/** Configure the main internal regulator output voltage
	 */
	__HAL_PWR_VOLTAGESCALING_CONFIG(PWR_REGULATOR_VOLTAGE_SCALE1);
 80020a6:	491b      	ldr	r1, [pc, #108]	; (8002114 <SystemClock_Config+0x90>)
 80020a8:	4a1b      	ldr	r2, [pc, #108]	; (8002118 <SystemClock_Config+0x94>)
 80020aa:	680b      	ldr	r3, [r1, #0]

	/** Initializes the RCC Oscillators according to the specified parameters
	 * in the RCC_OscInitTypeDef structure.
	 */
	RCC_OscInitStruct.OscillatorType = RCC_OSCILLATORTYPE_HSI;
	RCC_OscInitStruct.HSIState = RCC_HSI_ON;
 80020ac:	2401      	movs	r4, #1
	__HAL_PWR_VOLTAGESCALING_CONFIG(PWR_REGULATOR_VOLTAGE_SCALE1);
 80020ae:	401a      	ands	r2, r3
 80020b0:	2380      	movs	r3, #128	; 0x80
 80020b2:	011b      	lsls	r3, r3, #4
 80020b4:	4313      	orrs	r3, r2
 80020b6:	600b      	str	r3, [r1, #0]
	RCC_OscInitStruct.OscillatorType = RCC_OSCILLATORTYPE_HSI;
 80020b8:	2302      	movs	r3, #2
 80020ba:	930e      	str	r3, [sp, #56]	; 0x38
	RCC_OscInitStruct.HSICalibrationValue = RCC_HSICALIBRATION_DEFAULT;
	RCC_OscInitStruct.PLL.PLLState = RCC_PLL_ON;
 80020bc:	9318      	str	r3, [sp, #96]	; 0x60
	RCC_OscInitStruct.PLL.PLLSource = RCC_PLLSOURCE_HSI;
 80020be:	2300      	movs	r3, #0
 80020c0:	9319      	str	r3, [sp, #100]	; 0x64
	RCC_OscInitStruct.PLL.PLLMUL = RCC_PLLMUL_3;
 80020c2:	931a      	str	r3, [sp, #104]	; 0x68
	RCC_OscInitStruct.PLL.PLLDIV = RCC_PLLDIV_2;
 80020c4:	2380      	movs	r3, #128	; 0x80
	RCC_OscInitStruct.HSICalibrationValue = RCC_HSICALIBRATION_DEFAULT;
 80020c6:	2210      	movs	r2, #16
	RCC_OscInitStruct.PLL.PLLDIV = RCC_PLLDIV_2;
 80020c8:	03db      	lsls	r3, r3, #15
	if (HAL_RCC_OscConfig(&RCC_OscInitStruct) != HAL_OK) {
 80020ca:	a80e      	add	r0, sp, #56	; 0x38
	RCC_OscInitStruct.HSIState = RCC_HSI_ON;
 80020cc:	9411      	str	r4, [sp, #68]	; 0x44
	RCC_OscInitStruct.HSICalibrationValue = RCC_HSICALIBRATION_DEFAULT;
 80020ce:	9212      	str	r2, [sp, #72]	; 0x48
	RCC_OscInitStruct.PLL.PLLDIV = RCC_PLLDIV_2;
 80020d0:	931b      	str	r3, [sp, #108]	; 0x6c
	if (HAL_RCC_OscConfig(&RCC_OscInitStruct) != HAL_OK) {
 80020d2:	f001 fe79 	bl	8003dc8 <HAL_RCC_OscConfig>
 80020d6:	2800      	cmp	r0, #0
 80020d8:	d001      	beq.n	80020de <SystemClock_Config+0x5a>
  \details Disables IRQ interrupts by setting the I-bit in the CPSR.
           Can only be executed in Privileged modes.
 */
__STATIC_FORCEINLINE void __disable_irq(void)
{
  __ASM volatile ("cpsid i" : : : "memory");
 80020da:	b672      	cpsid	i
 */
void Error_Handler(void) {
	/* USER CODE BEGIN Error_Handler_Debug */
	/* User can add his own implementation to report the HAL error return state */
	__disable_irq();
	while (1) {
 80020dc:	e7fe      	b.n	80020dc <SystemClock_Config+0x58>
	RCC_ClkInitStruct.ClockType = RCC_CLOCKTYPE_HCLK | RCC_CLOCKTYPE_SYSCLK
 80020de:	230f      	movs	r3, #15
	RCC_ClkInitStruct.AHBCLKDivider = RCC_SYSCLK_DIV1;
 80020e0:	9003      	str	r0, [sp, #12]
	RCC_ClkInitStruct.ClockType = RCC_CLOCKTYPE_HCLK | RCC_CLOCKTYPE_SYSCLK
 80020e2:	9301      	str	r3, [sp, #4]
	RCC_ClkInitStruct.APB1CLKDivider = RCC_HCLK_DIV1;
 80020e4:	9004      	str	r0, [sp, #16]
	RCC_ClkInitStruct.SYSCLKSource = RCC_SYSCLKSOURCE_PLLCLK;
 80020e6:	3b0c      	subs	r3, #12
	RCC_ClkInitStruct.APB2CLKDivider = RCC_HCLK_DIV1;
 80020e8:	9005      	str	r0, [sp, #20]
	if (HAL_RCC_ClockConfig(&RCC_ClkInitStruct, FLASH_LATENCY_1) != HAL_OK) {
 80020ea:	0021      	movs	r1, r4
 80020ec:	a801      	add	r0, sp, #4
	RCC_ClkInitStruct.SYSCLKSource = RCC_SYSCLKSOURCE_PLLCLK;
 80020ee:	9302      	str	r3, [sp, #8]
	if (HAL_RCC_ClockConfig(&RCC_ClkInitStruct, FLASH_LATENCY_1) != HAL_OK) {
 80020f0:	f002 f8ec 	bl	80042cc <HAL_RCC_ClockConfig>
 80020f4:	2800      	cmp	r0, #0
 80020f6:	d001      	beq.n	80020fc <SystemClock_Config+0x78>
 80020f8:	b672      	cpsid	i
	while (1) {
 80020fa:	e7fe      	b.n	80020fa <SystemClock_Config+0x76>
	PeriphClkInit.PeriphClockSelection = RCC_PERIPHCLK_I2C1;
 80020fc:	2308      	movs	r3, #8
	PeriphClkInit.I2c1ClockSelection = RCC_I2C1CLKSOURCE_PCLK1;
 80020fe:	900b      	str	r0, [sp, #44]	; 0x2c
	if (HAL_RCCEx_PeriphCLKConfig(&PeriphClkInit) != HAL_OK) {
 8002100:	a806      	add	r0, sp, #24
	PeriphClkInit.PeriphClockSelection = RCC_PERIPHCLK_I2C1;
 8002102:	9306      	str	r3, [sp, #24]
	if (HAL_RCCEx_PeriphCLKConfig(&PeriphClkInit) != HAL_OK) {
 8002104:	f002 f9b0 	bl	8004468 <HAL_RCCEx_PeriphCLKConfig>
 8002108:	2800      	cmp	r0, #0
 800210a:	d001      	beq.n	8002110 <SystemClock_Config+0x8c>
 800210c:	b672      	cpsid	i
	while (1) {
 800210e:	e7fe      	b.n	800210e <SystemClock_Config+0x8a>
}
 8002110:	b01c      	add	sp, #112	; 0x70
 8002112:	bd10      	pop	{r4, pc}
 8002114:	40007000 	.word	0x40007000
 8002118:	ffffe7ff 	.word	0xffffe7ff

0800211c <main>:
int main(void) {
 800211c:	b5f0      	push	{r4, r5, r6, r7, lr}
	__HAL_RCC_GPIOA_CLK_ENABLE();
 800211e:	2601      	movs	r6, #1
int main(void) {
 8002120:	b08b      	sub	sp, #44	; 0x2c
 	HAL_Init();
 8002122:	f000 fd6d 	bl	8002c00 <HAL_Init>
	SystemClock_Config();
 8002126:	f7ff ffad 	bl	8002084 <SystemClock_Config>
	GPIO_InitTypeDef GPIO_InitStruct = { 0 };
 800212a:	2214      	movs	r2, #20
 800212c:	2100      	movs	r1, #0
 800212e:	a805      	add	r0, sp, #20
 8002130:	f002 fe50 	bl	8004dd4 <memset>
	__HAL_RCC_GPIOB_CLK_ENABLE();
 8002134:	2102      	movs	r1, #2
	HAL_GPIO_WritePin(BUZ_GPIO_Port, BUZ_Pin, GPIO_PIN_RESET);
 8002136:	20a0      	movs	r0, #160	; 0xa0
	__HAL_RCC_GPIOA_CLK_ENABLE();
 8002138:	4fc9      	ldr	r7, [pc, #804]	; (8002460 <main+0x344>)
	HAL_GPIO_WritePin(BUZ_GPIO_Port, BUZ_Pin, GPIO_PIN_RESET);
 800213a:	05c0      	lsls	r0, r0, #23
	__HAL_RCC_GPIOA_CLK_ENABLE();
 800213c:	6afb      	ldr	r3, [r7, #44]	; 0x2c
	GPIO_InitStruct.Mode = GPIO_MODE_INPUT;
 800213e:	2500      	movs	r5, #0
	__HAL_RCC_GPIOA_CLK_ENABLE();
 8002140:	4333      	orrs	r3, r6
 8002142:	62fb      	str	r3, [r7, #44]	; 0x2c
 8002144:	6afb      	ldr	r3, [r7, #44]	; 0x2c
 8002146:	4033      	ands	r3, r6
 8002148:	9301      	str	r3, [sp, #4]
 800214a:	9b01      	ldr	r3, [sp, #4]
	__HAL_RCC_GPIOB_CLK_ENABLE();
 800214c:	6afa      	ldr	r2, [r7, #44]	; 0x2c
 800214e:	430a      	orrs	r2, r1
 8002150:	62fa      	str	r2, [r7, #44]	; 0x2c
 8002152:	6afb      	ldr	r3, [r7, #44]	; 0x2c
	HAL_GPIO_WritePin(BUZ_GPIO_Port, BUZ_Pin, GPIO_PIN_RESET);
 8002154:	2200      	movs	r2, #0
	__HAL_RCC_GPIOB_CLK_ENABLE();
 8002156:	400b      	ands	r3, r1
 8002158:	9302      	str	r3, [sp, #8]
	HAL_GPIO_WritePin(BUZ_GPIO_Port, BUZ_Pin, GPIO_PIN_RESET);
 800215a:	3106      	adds	r1, #6
	__HAL_RCC_GPIOB_CLK_ENABLE();
 800215c:	9b02      	ldr	r3, [sp, #8]
	HAL_GPIO_WritePin(BUZ_GPIO_Port, BUZ_Pin, GPIO_PIN_RESET);
 800215e:	f001 fa5d 	bl	800361c <HAL_GPIO_WritePin>
	HAL_GPIO_WritePin(RGB_DATA_GPIO_Port, RGB_DATA_Pin, GPIO_PIN_RESET);
 8002162:	2200      	movs	r2, #0
 8002164:	0031      	movs	r1, r6
 8002166:	48bf      	ldr	r0, [pc, #764]	; (8002464 <main+0x348>)
 8002168:	f001 fa58 	bl	800361c <HAL_GPIO_WritePin>
	HAL_GPIO_Init(JOY_SW_GPIO_Port, &GPIO_InitStruct);
 800216c:	20a0      	movs	r0, #160	; 0xa0
	GPIO_InitStruct.Pin = JOY_SW_Pin;
 800216e:	2304      	movs	r3, #4
	HAL_GPIO_Init(JOY_SW_GPIO_Port, &GPIO_InitStruct);
 8002170:	a905      	add	r1, sp, #20
 8002172:	05c0      	lsls	r0, r0, #23
	GPIO_InitStruct.Pin = JOY_SW_Pin;
 8002174:	9305      	str	r3, [sp, #20]
	GPIO_InitStruct.Mode = GPIO_MODE_INPUT;
 8002176:	9506      	str	r5, [sp, #24]
	GPIO_InitStruct.Pull = GPIO_PULLUP;
 8002178:	9607      	str	r6, [sp, #28]
	HAL_GPIO_Init(JOY_SW_GPIO_Port, &GPIO_InitStruct);
 800217a:	f001 f989 	bl	8003490 <HAL_GPIO_Init>
	HAL_GPIO_Init(BUZ_GPIO_Port, &GPIO_InitStruct);
 800217e:	20a0      	movs	r0, #160	; 0xa0
	GPIO_InitStruct.Pin = BUZ_Pin;
 8002180:	2208      	movs	r2, #8
	HAL_GPIO_Init(BUZ_GPIO_Port, &GPIO_InitStruct);
 8002182:	a905      	add	r1, sp, #20
 8002184:	05c0      	lsls	r0, r0, #23
	GPIO_InitStruct.Pin = BUZ_Pin;
 8002186:	9205      	str	r2, [sp, #20]
	GPIO_InitStruct.Mode = GPIO_MODE_OUTPUT_PP;
 8002188:	9606      	str	r6, [sp, #24]
	GPIO_InitStruct.Pull = GPIO_NOPULL;
 800218a:	9507      	str	r5, [sp, #28]
	GPIO_InitStruct.Speed = GPIO_SPEED_FREQ_LOW;
 800218c:	9508      	str	r5, [sp, #32]
	HAL_GPIO_Init(BUZ_GPIO_Port, &GPIO_InitStruct);
 800218e:	f001 f97f 	bl	8003490 <HAL_GPIO_Init>
	HAL_GPIO_Init(RGB_DATA_GPIO_Port, &GPIO_InitStruct);
 8002192:	48b4      	ldr	r0, [pc, #720]	; (8002464 <main+0x348>)
 8002194:	a905      	add	r1, sp, #20
	GPIO_InitStruct.Pin = RGB_DATA_Pin;
 8002196:	9605      	str	r6, [sp, #20]
	GPIO_InitStruct.Mode = GPIO_MODE_OUTPUT_PP;
 8002198:	9606      	str	r6, [sp, #24]
	GPIO_InitStruct.Pull = GPIO_NOPULL;
 800219a:	9507      	str	r5, [sp, #28]
	GPIO_InitStruct.Speed = GPIO_SPEED_FREQ_LOW;
 800219c:	9508      	str	r5, [sp, #32]
	HAL_GPIO_Init(RGB_DATA_GPIO_Port, &GPIO_InitStruct);
 800219e:	f001 f977 	bl	8003490 <HAL_GPIO_Init>
	ADC_ChannelConfTypeDef sConfig = { 0 };
 80021a2:	2208      	movs	r2, #8
 80021a4:	0029      	movs	r1, r5
 80021a6:	a805      	add	r0, sp, #20
 80021a8:	f002 fe14 	bl	8004dd4 <memset>
	hadc.Init.SamplingTime = ADC_SAMPLETIME_79CYCLES_5;
 80021ac:	2306      	movs	r3, #6
	hadc.Init.OversamplingMode = DISABLE;
 80021ae:	4cae      	ldr	r4, [pc, #696]	; (8002468 <main+0x34c>)
	hadc.Init.SamplingTime = ADC_SAMPLETIME_79CYCLES_5;
 80021b0:	63a3      	str	r3, [r4, #56]	; 0x38
	hadc.Init.ExternalTrigConv = ADC_SOFTWARE_START;
 80021b2:	23c2      	movs	r3, #194	; 0xc2
 80021b4:	33ff      	adds	r3, #255	; 0xff
 80021b6:	6263      	str	r3, [r4, #36]	; 0x24
	hadc.Instance = ADC1;
 80021b8:	4bac      	ldr	r3, [pc, #688]	; (800246c <main+0x350>)
	hadc.Init.DMAContinuousRequests = DISABLE;
 80021ba:	0022      	movs	r2, r4
	hadc.Instance = ADC1;
 80021bc:	6023      	str	r3, [r4, #0]
	hadc.Init.EOCSelection = ADC_EOC_SINGLE_CONV;
 80021be:	2304      	movs	r3, #4
	hadc.Init.DMAContinuousRequests = DISABLE;
 80021c0:	322c      	adds	r2, #44	; 0x2c
	if (HAL_ADC_Init(&hadc) != HAL_OK) {
 80021c2:	0020      	movs	r0, r4
	hadc.Init.ContinuousConvMode = DISABLE;
 80021c4:	8425      	strh	r5, [r4, #32]
	hadc.Init.OversamplingMode = DISABLE;
 80021c6:	63e5      	str	r5, [r4, #60]	; 0x3c
	hadc.Init.ExternalTrigConvEdge = ADC_EXTERNALTRIGCONVEDGE_NONE;
 80021c8:	62a5      	str	r5, [r4, #40]	; 0x28
	hadc.Init.DMAContinuousRequests = DISABLE;
 80021ca:	7015      	strb	r5, [r2, #0]
	hadc.Init.Overrun = ADC_OVR_DATA_PRESERVED;
 80021cc:	6325      	str	r5, [r4, #48]	; 0x30
	hadc.Init.LowPowerFrequencyMode = DISABLE;
 80021ce:	6365      	str	r5, [r4, #52]	; 0x34
	hadc.Init.ClockPrescaler = ADC_CLOCK_ASYNC_DIV1;
 80021d0:	6065      	str	r5, [r4, #4]
	hadc.Init.Resolution = ADC_RESOLUTION_12B;
 80021d2:	60a5      	str	r5, [r4, #8]
	hadc.Init.DataAlign = ADC_DATAALIGN_RIGHT;
 80021d4:	60e5      	str	r5, [r4, #12]
	hadc.Init.ScanConvMode = ADC_SCAN_DIRECTION_FORWARD;
 80021d6:	6126      	str	r6, [r4, #16]
	hadc.Init.EOCSelection = ADC_EOC_SINGLE_CONV;
 80021d8:	6163      	str	r3, [r4, #20]
	hadc.Init.LowPowerAutoWait = DISABLE;
 80021da:	61a5      	str	r5, [r4, #24]
	hadc.Init.LowPowerAutoPowerOff = DISABLE;
 80021dc:	61e5      	str	r5, [r4, #28]
	if (HAL_ADC_Init(&hadc) != HAL_OK) {
 80021de:	f000 fd99 	bl	8002d14 <HAL_ADC_Init>
 80021e2:	42a8      	cmp	r0, r5
 80021e4:	d001      	beq.n	80021ea <main+0xce>
 80021e6:	b672      	cpsid	i
	while (1) {
 80021e8:	e7fe      	b.n	80021e8 <main+0xcc>
	sConfig.Rank = ADC_RANK_CHANNEL_NUMBER;
 80021ea:	2380      	movs	r3, #128	; 0x80
	if (HAL_ADC_ConfigChannel(&hadc, &sConfig) != HAL_OK) {
 80021ec:	0020      	movs	r0, r4
	sConfig.Rank = ADC_RANK_CHANNEL_NUMBER;
 80021ee:	015b      	lsls	r3, r3, #5
	if (HAL_ADC_ConfigChannel(&hadc, &sConfig) != HAL_OK) {
 80021f0:	a905      	add	r1, sp, #20
	sConfig.Channel = ADC_CHANNEL_0;
 80021f2:	9605      	str	r6, [sp, #20]
	sConfig.Rank = ADC_RANK_CHANNEL_NUMBER;
 80021f4:	9306      	str	r3, [sp, #24]
	if (HAL_ADC_ConfigChannel(&hadc, &sConfig) != HAL_OK) {
 80021f6:	f000 fefb 	bl	8002ff0 <HAL_ADC_ConfigChannel>
 80021fa:	2800      	cmp	r0, #0
 80021fc:	d001      	beq.n	8002202 <main+0xe6>
 80021fe:	b672      	cpsid	i
	while (1) {
 8002200:	e7fe      	b.n	8002200 <main+0xe4>
	sConfig.Channel = ADC_CHANNEL_1;
 8002202:	4b9b      	ldr	r3, [pc, #620]	; (8002470 <main+0x354>)
	if (HAL_ADC_ConfigChannel(&hadc, &sConfig) != HAL_OK) {
 8002204:	0020      	movs	r0, r4
 8002206:	a905      	add	r1, sp, #20
	sConfig.Channel = ADC_CHANNEL_1;
 8002208:	9305      	str	r3, [sp, #20]
	if (HAL_ADC_ConfigChannel(&hadc, &sConfig) != HAL_OK) {
 800220a:	f000 fef1 	bl	8002ff0 <HAL_ADC_ConfigChannel>
 800220e:	1e04      	subs	r4, r0, #0
 8002210:	d001      	beq.n	8002216 <main+0xfa>
 8002212:	b672      	cpsid	i
	while (1) {
 8002214:	e7fe      	b.n	8002214 <main+0xf8>
	__HAL_RCC_DMA1_CLK_ENABLE();
 8002216:	6b3b      	ldr	r3, [r7, #48]	; 0x30
	HAL_NVIC_SetPriority(DMA1_Channel2_3_IRQn, 0, 0);
 8002218:	0001      	movs	r1, r0
	__HAL_RCC_DMA1_CLK_ENABLE();
 800221a:	4333      	orrs	r3, r6
 800221c:	633b      	str	r3, [r7, #48]	; 0x30
 800221e:	6b3b      	ldr	r3, [r7, #48]	; 0x30
	HAL_NVIC_SetPriority(DMA1_Channel2_3_IRQn, 0, 0);
 8002220:	0002      	movs	r2, r0
	__HAL_RCC_DMA1_CLK_ENABLE();
 8002222:	4033      	ands	r3, r6
	HAL_NVIC_SetPriority(DMA1_Channel2_3_IRQn, 0, 0);
 8002224:	200a      	movs	r0, #10
	__HAL_RCC_DMA1_CLK_ENABLE();
 8002226:	9300      	str	r3, [sp, #0]
 8002228:	9b00      	ldr	r3, [sp, #0]
	HAL_NVIC_SetPriority(DMA1_Channel2_3_IRQn, 0, 0);
 800222a:	f000 ff35 	bl	8003098 <HAL_NVIC_SetPriority>
	HAL_NVIC_EnableIRQ(DMA1_Channel2_3_IRQn);
 800222e:	200a      	movs	r0, #10
 8002230:	f000 ff5c 	bl	80030ec <HAL_NVIC_EnableIRQ>
	hi2c1.Instance = I2C1;
 8002234:	4d8f      	ldr	r5, [pc, #572]	; (8002474 <main+0x358>)
 8002236:	4b90      	ldr	r3, [pc, #576]	; (8002478 <main+0x35c>)
	if (HAL_I2C_Init(&hi2c1) != HAL_OK) {
 8002238:	0028      	movs	r0, r5
	hi2c1.Instance = I2C1;
 800223a:	602b      	str	r3, [r5, #0]
	hi2c1.Init.Timing = 0x00200C28;
 800223c:	4b8f      	ldr	r3, [pc, #572]	; (800247c <main+0x360>)
	hi2c1.Init.OwnAddress1 = 0;
 800223e:	60ac      	str	r4, [r5, #8]
	hi2c1.Init.Timing = 0x00200C28;
 8002240:	606b      	str	r3, [r5, #4]
	hi2c1.Init.AddressingMode = I2C_ADDRESSINGMODE_7BIT;
 8002242:	60ee      	str	r6, [r5, #12]
	hi2c1.Init.DualAddressMode = I2C_DUALADDRESS_DISABLE;
 8002244:	612c      	str	r4, [r5, #16]
	hi2c1.Init.OwnAddress2 = 0;
 8002246:	616c      	str	r4, [r5, #20]
	hi2c1.Init.OwnAddress2Masks = I2C_OA2_NOMASK;
 8002248:	61ac      	str	r4, [r5, #24]
	hi2c1.Init.GeneralCallMode = I2C_GENERALCALL_DISABLE;
 800224a:	61ec      	str	r4, [r5, #28]
	hi2c1.Init.NoStretchMode = I2C_NOSTRETCH_DISABLE;
 800224c:	622c      	str	r4, [r5, #32]
	if (HAL_I2C_Init(&hi2c1) != HAL_OK) {
 800224e:	f001 fb0b 	bl	8003868 <HAL_I2C_Init>
 8002252:	1e01      	subs	r1, r0, #0
 8002254:	d001      	beq.n	800225a <main+0x13e>
 8002256:	b672      	cpsid	i
	while (1) {
 8002258:	e7fe      	b.n	8002258 <main+0x13c>
	if (HAL_I2CEx_ConfigAnalogFilter(&hi2c1, I2C_ANALOGFILTER_ENABLE)
 800225a:	0028      	movs	r0, r5
 800225c:	f001 fd22 	bl	8003ca4 <HAL_I2CEx_ConfigAnalogFilter>
 8002260:	1e01      	subs	r1, r0, #0
 8002262:	d001      	beq.n	8002268 <main+0x14c>
 8002264:	b672      	cpsid	i
	while (1) {
 8002266:	e7fe      	b.n	8002266 <main+0x14a>
	if (HAL_I2CEx_ConfigDigitalFilter(&hi2c1, 0) != HAL_OK) {
 8002268:	0028      	movs	r0, r5
 800226a:	f001 fd41 	bl	8003cf0 <HAL_I2CEx_ConfigDigitalFilter>
 800226e:	1e03      	subs	r3, r0, #0
 8002270:	d001      	beq.n	8002276 <main+0x15a>
 8002272:	b672      	cpsid	i
	while (1) {
 8002274:	e7fe      	b.n	8002274 <main+0x158>
	hspi1.Instance = SPI1;
 8002276:	4882      	ldr	r0, [pc, #520]	; (8002480 <main+0x364>)
 8002278:	4a82      	ldr	r2, [pc, #520]	; (8002484 <main+0x368>)
	hspi1.Init.Direction = SPI_DIRECTION_2LINES;
 800227a:	6083      	str	r3, [r0, #8]
	hspi1.Instance = SPI1;
 800227c:	6002      	str	r2, [r0, #0]
	hspi1.Init.Mode = SPI_MODE_MASTER;
 800227e:	2282      	movs	r2, #130	; 0x82
	hspi1.Init.DataSize = SPI_DATASIZE_8BIT;
 8002280:	60c3      	str	r3, [r0, #12]
	hspi1.Init.CLKPolarity = SPI_POLARITY_LOW;
 8002282:	6103      	str	r3, [r0, #16]
	hspi1.Init.CLKPhase = SPI_PHASE_1EDGE;
 8002284:	6143      	str	r3, [r0, #20]
	hspi1.Init.FirstBit = SPI_FIRSTBIT_MSB;
 8002286:	6203      	str	r3, [r0, #32]
	hspi1.Init.TIMode = SPI_TIMODE_DISABLE;
 8002288:	6243      	str	r3, [r0, #36]	; 0x24
	hspi1.Init.CRCCalculation = SPI_CRCCALCULATION_DISABLE;
 800228a:	6283      	str	r3, [r0, #40]	; 0x28
	hspi1.Init.BaudRatePrescaler = SPI_BAUDRATEPRESCALER_8;
 800228c:	2410      	movs	r4, #16
	hspi1.Init.CRCPolynomial = 7;
 800228e:	2307      	movs	r3, #7
	hspi1.Init.Mode = SPI_MODE_MASTER;
 8002290:	0052      	lsls	r2, r2, #1
 8002292:	6042      	str	r2, [r0, #4]
	hspi1.Init.NSS = SPI_NSS_SOFT;
 8002294:	32fc      	adds	r2, #252	; 0xfc
 8002296:	6182      	str	r2, [r0, #24]
	hspi1.Init.BaudRatePrescaler = SPI_BAUDRATEPRESCALER_8;
 8002298:	61c4      	str	r4, [r0, #28]
	hspi1.Init.CRCPolynomial = 7;
 800229a:	62c3      	str	r3, [r0, #44]	; 0x2c
	if (HAL_SPI_Init(&hspi1) != HAL_OK) {
 800229c:	f002 fa44 	bl	8004728 <HAL_SPI_Init>
 80022a0:	1e05      	subs	r5, r0, #0
 80022a2:	d001      	beq.n	80022a8 <main+0x18c>
 80022a4:	b672      	cpsid	i
	while (1) {
 80022a6:	e7fe      	b.n	80022a6 <main+0x18a>
	TIM_ClockConfigTypeDef sClockSourceConfig = { 0 };
 80022a8:	0022      	movs	r2, r4
 80022aa:	0001      	movs	r1, r0
 80022ac:	a805      	add	r0, sp, #20
 80022ae:	f002 fd91 	bl	8004dd4 <memset>
	TIM_MasterConfigTypeDef sMasterConfig = { 0 };
 80022b2:	2208      	movs	r2, #8
 80022b4:	0029      	movs	r1, r5
 80022b6:	a803      	add	r0, sp, #12
 80022b8:	f002 fd8c 	bl	8004dd4 <memset>
	htim2.Instance = TIM2;
 80022bc:	2380      	movs	r3, #128	; 0x80
 80022be:	4c72      	ldr	r4, [pc, #456]	; (8002488 <main+0x36c>)
 80022c0:	05db      	lsls	r3, r3, #23
 80022c2:	6023      	str	r3, [r4, #0]
	htim2.Init.Prescaler = 32 - 1;
 80022c4:	231f      	movs	r3, #31
 80022c6:	6063      	str	r3, [r4, #4]
	htim2.Init.Period = 1000 - 1;
 80022c8:	4b70      	ldr	r3, [pc, #448]	; (800248c <main+0x370>)
	if (HAL_TIM_Base_Init(&htim2) != HAL_OK) {
 80022ca:	0020      	movs	r0, r4
	htim2.Init.CounterMode = TIM_COUNTERMODE_UP;
 80022cc:	60a5      	str	r5, [r4, #8]
	htim2.Init.Period = 1000 - 1;
 80022ce:	60e3      	str	r3, [r4, #12]
	htim2.Init.ClockDivision = TIM_CLOCKDIVISION_DIV1;
 80022d0:	6125      	str	r5, [r4, #16]
	htim2.Init.AutoReloadPreload = TIM_AUTORELOAD_PRELOAD_DISABLE;
 80022d2:	6165      	str	r5, [r4, #20]
	if (HAL_TIM_Base_Init(&htim2) != HAL_OK) {
 80022d4:	f002 fb6e 	bl	80049b4 <HAL_TIM_Base_Init>
 80022d8:	2800      	cmp	r0, #0
 80022da:	d001      	beq.n	80022e0 <main+0x1c4>
 80022dc:	b672      	cpsid	i
	while (1) {
 80022de:	e7fe      	b.n	80022de <main+0x1c2>
	sClockSourceConfig.ClockSource = TIM_CLOCKSOURCE_INTERNAL;
 80022e0:	2380      	movs	r3, #128	; 0x80
	if (HAL_TIM_ConfigClockSource(&htim2, &sClockSourceConfig) != HAL_OK) {
 80022e2:	0020      	movs	r0, r4
	sClockSourceConfig.ClockSource = TIM_CLOCKSOURCE_INTERNAL;
 80022e4:	015b      	lsls	r3, r3, #5
	if (HAL_TIM_ConfigClockSource(&htim2, &sClockSourceConfig) != HAL_OK) {
 80022e6:	a905      	add	r1, sp, #20
	sClockSourceConfig.ClockSource = TIM_CLOCKSOURCE_INTERNAL;
 80022e8:	9305      	str	r3, [sp, #20]
	if (HAL_TIM_ConfigClockSource(&htim2, &sClockSourceConfig) != HAL_OK) {
 80022ea:	f002 fbb3 	bl	8004a54 <HAL_TIM_ConfigClockSource>
 80022ee:	2800      	cmp	r0, #0
 80022f0:	d001      	beq.n	80022f6 <main+0x1da>
 80022f2:	b672      	cpsid	i
	while (1) {
 80022f4:	e7fe      	b.n	80022f4 <main+0x1d8>
	sMasterConfig.MasterOutputTrigger = TIM_TRGO_RESET;
 80022f6:	9003      	str	r0, [sp, #12]
	sMasterConfig.MasterSlaveMode = TIM_MASTERSLAVEMODE_DISABLE;
 80022f8:	9004      	str	r0, [sp, #16]
	if (HAL_TIMEx_MasterConfigSynchronization(&htim2, &sMasterConfig)
 80022fa:	a903      	add	r1, sp, #12
 80022fc:	0020      	movs	r0, r4
 80022fe:	f002 fce3 	bl	8004cc8 <HAL_TIMEx_MasterConfigSynchronization>
 8002302:	2800      	cmp	r0, #0
 8002304:	d001      	beq.n	800230a <main+0x1ee>
 8002306:	b672      	cpsid	i
	while (1) {
 8002308:	e7fe      	b.n	8002308 <main+0x1ec>
	HAL_NVIC_SetPriority(TIM2_IRQn, 0, 0);
 800230a:	2200      	movs	r2, #0
 800230c:	200f      	movs	r0, #15
 800230e:	0011      	movs	r1, r2
 8002310:	f000 fec2 	bl	8003098 <HAL_NVIC_SetPriority>
	HAL_NVIC_EnableIRQ(TIM2_IRQn);
 8002314:	200f      	movs	r0, #15
 8002316:	f000 fee9 	bl	80030ec <HAL_NVIC_EnableIRQ>
	SSD1306_Init();
 800231a:	f000 fa6b 	bl	80027f4 <SSD1306_Init>
	HAL_TIM_Base_Start_IT(&htim2);
 800231e:	0020      	movs	r0, r4
 8002320:	f002 fb6c 	bl	80049fc <HAL_TIM_Base_Start_IT>
	pLog[0].content[0] = (String)calloc(0, sizeof(char) * 22);
 8002324:	2116      	movs	r1, #22
 8002326:	2000      	movs	r0, #0
 8002328:	f002 fcfa 	bl	8004d20 <calloc>
 800232c:	4c58      	ldr	r4, [pc, #352]	; (8002490 <main+0x374>)
	pLog[0].content[1] = (String)calloc(0, sizeof(char) * 22);
 800232e:	2116      	movs	r1, #22
	pLog[0].content[0] = (String)calloc(0, sizeof(char) * 22);
 8002330:	6060      	str	r0, [r4, #4]
	pLog[0].content[1] = (String)calloc(0, sizeof(char) * 22);
 8002332:	2000      	movs	r0, #0
 8002334:	f002 fcf4 	bl	8004d20 <calloc>
	ptFindName = (String)calloc(0, sizeof(char) * 11);
 8002338:	210b      	movs	r1, #11
	pLog[0].content[1] = (String)calloc(0, sizeof(char) * 22);
 800233a:	60a0      	str	r0, [r4, #8]
	ptFindName = (String)calloc(0, sizeof(char) * 11);
 800233c:	2000      	movs	r0, #0
 800233e:	f002 fcef 	bl	8004d20 <calloc>
		led_color(i, i / 6 == 0 || i / 6 == 3 ? 4 : 0, i / 6 == 1 || i / 6 == 4 ? 4 : 0, i / 6 == 2 || i / 6 == 5 ? 4 : 0);
 8002342:	2104      	movs	r1, #4
	for (uint8_t i = 0; i < 36; i++)
 8002344:	2400      	movs	r4, #0
		led_color(i, i / 6 == 0 || i / 6 == 3 ? 4 : 0, i / 6 == 1 || i / 6 == 4 ? 4 : 0, i / 6 == 2 || i / 6 == 5 ? 4 : 0);
 8002346:	000d      	movs	r5, r1
	ptFindName = (String)calloc(0, sizeof(char) * 11);
 8002348:	4b52      	ldr	r3, [pc, #328]	; (8002494 <main+0x378>)
 800234a:	6018      	str	r0, [r3, #0]
		led_color(i, i / 6 == 0 || i / 6 == 3 ? 4 : 0, i / 6 == 1 || i / 6 == 4 ? 4 : 0, i / 6 == 2 || i / 6 == 5 ? 4 : 0);
 800234c:	1fa3      	subs	r3, r4, #6
 800234e:	b2db      	uxtb	r3, r3
 8002350:	002a      	movs	r2, r5
 8002352:	2b05      	cmp	r3, #5
 8002354:	d906      	bls.n	8002364 <main+0x248>
 8002356:	0023      	movs	r3, r4
 8002358:	3b18      	subs	r3, #24
 800235a:	b2db      	uxtb	r3, r3
 800235c:	2200      	movs	r2, #0
 800235e:	2b05      	cmp	r3, #5
 8002360:	d800      	bhi.n	8002364 <main+0x248>
 8002362:	002a      	movs	r2, r5
 8002364:	0020      	movs	r0, r4
 8002366:	380c      	subs	r0, #12
 8002368:	b2c0      	uxtb	r0, r0
 800236a:	002b      	movs	r3, r5
 800236c:	2805      	cmp	r0, #5
 800236e:	d906      	bls.n	800237e <main+0x262>
 8002370:	0020      	movs	r0, r4
 8002372:	381e      	subs	r0, #30
 8002374:	b2c0      	uxtb	r0, r0
 8002376:	2300      	movs	r3, #0
 8002378:	2805      	cmp	r0, #5
 800237a:	d800      	bhi.n	800237e <main+0x262>
 800237c:	002b      	movs	r3, r5
 800237e:	0020      	movs	r0, r4
 8002380:	f7fe f9da 	bl	8000738 <led_color>
	for (uint8_t i = 0; i < 36; i++)
 8002384:	1c63      	adds	r3, r4, #1
 8002386:	b2db      	uxtb	r3, r3
 8002388:	2b24      	cmp	r3, #36	; 0x24
 800238a:	d140      	bne.n	800240e <main+0x2f2>
	led_update();
 800238c:	f7fe f9e0 	bl	8000750 <led_update>
 8002390:	241c      	movs	r4, #28
		SSD1306_Fill(0);
 8002392:	2000      	movs	r0, #0
 8002394:	f000 f88c 	bl	80024b0 <SSD1306_Fill>
		SSD1306_GotoXY(46, 28 + i);
 8002398:	0021      	movs	r1, r4
 800239a:	202e      	movs	r0, #46	; 0x2e
 800239c:	f000 f8be 	bl	800251c <SSD1306_GotoXY>
		SSD1306_Puts("Drawer", &Font_6x8, 0);
 80023a0:	4d3d      	ldr	r5, [pc, #244]	; (8002498 <main+0x37c>)
 80023a2:	2200      	movs	r2, #0
 80023a4:	0029      	movs	r1, r5
 80023a6:	483d      	ldr	r0, [pc, #244]	; (800249c <main+0x380>)
 80023a8:	f000 f8f4 	bl	8002594 <SSD1306_Puts>
		SSD1306_GotoXY(43, 28);
 80023ac:	211c      	movs	r1, #28
 80023ae:	202b      	movs	r0, #43	; 0x2b
 80023b0:	f000 f8b4 	bl	800251c <SSD1306_GotoXY>
	for (uint8_t i = 0; i < 8; i++) {
 80023b4:	3401      	adds	r4, #1
		SSD1306_Puts(" Parts ", &Font_6x8, 1);
 80023b6:	2201      	movs	r2, #1
 80023b8:	0029      	movs	r1, r5
 80023ba:	4839      	ldr	r0, [pc, #228]	; (80024a0 <main+0x384>)
 80023bc:	f000 f8ea 	bl	8002594 <SSD1306_Puts>
	for (uint8_t i = 0; i < 8; i++) {
 80023c0:	b2a4      	uxth	r4, r4
		SSD1306_UpdateScreen();
 80023c2:	f000 f9ed 	bl	80027a0 <SSD1306_UpdateScreen>
		HAL_Delay(200);
 80023c6:	20c8      	movs	r0, #200	; 0xc8
 80023c8:	f000 fc40 	bl	8002c4c <HAL_Delay>
	for (uint8_t i = 0; i < 8; i++) {
 80023cc:	2c24      	cmp	r4, #36	; 0x24
 80023ce:	d1e0      	bne.n	8002392 <main+0x276>
	HAL_Delay(1000);
 80023d0:	20fa      	movs	r0, #250	; 0xfa
 80023d2:	0080      	lsls	r0, r0, #2
 80023d4:	f000 fc3a 	bl	8002c4c <HAL_Delay>
	memset(pt, 0, sizeof(pt));
 80023d8:	2290      	movs	r2, #144	; 0x90
 80023da:	2100      	movs	r1, #0
 80023dc:	0092      	lsls	r2, r2, #2
 80023de:	4831      	ldr	r0, [pc, #196]	; (80024a4 <main+0x388>)
 80023e0:	f002 fcf8 	bl	8004dd4 <memset>
	SSD1306_Clear();
 80023e4:	f000 f9fe 	bl	80027e4 <SSD1306_Clear>
	led_clear();
 80023e8:	f7fe f9dc 	bl	80007a4 <led_clear>
	UPDATE;
 80023ec:	f000 f9d8 	bl	80027a0 <SSD1306_UpdateScreen>
 80023f0:	f7fe f9ae 	bl	8000750 <led_update>
	firstOn = eepReadData(0);
 80023f4:	2000      	movs	r0, #0
 80023f6:	f000 fabb 	bl	8002970 <eepReadData>
	timeSet(firstOn);
 80023fa:	f7fe fbef 	bl	8000bdc <timeSet>
		if(modeFlag == MAIN) modeFlag = mainM();
 80023fe:	4c2a      	ldr	r4, [pc, #168]	; (80024a8 <main+0x38c>)
 8002400:	7823      	ldrb	r3, [r4, #0]
 8002402:	2b00      	cmp	r3, #0
 8002404:	d10e      	bne.n	8002424 <main+0x308>
 8002406:	f7fe fd35 	bl	8000e74 <mainM>
		else if(modeFlag == FINDR) modeFlag = findR();
 800240a:	7020      	strb	r0, [r4, #0]
 800240c:	e7f7      	b.n	80023fe <main+0x2e2>
		led_color(i, i / 6 == 0 || i / 6 == 3 ? 4 : 0, i / 6 == 1 || i / 6 == 4 ? 4 : 0, i / 6 == 2 || i / 6 == 5 ? 4 : 0);
 800240e:	0029      	movs	r1, r5
 8002410:	2b05      	cmp	r3, #5
 8002412:	d905      	bls.n	8002420 <main+0x304>
 8002414:	3c11      	subs	r4, #17
 8002416:	b2e4      	uxtb	r4, r4
 8002418:	2100      	movs	r1, #0
 800241a:	2c05      	cmp	r4, #5
 800241c:	d800      	bhi.n	8002420 <main+0x304>
 800241e:	0029      	movs	r1, r5
 8002420:	001c      	movs	r4, r3
 8002422:	e793      	b.n	800234c <main+0x230>
		else if(modeFlag == PSAVE) modeFlag = partS();
 8002424:	2b01      	cmp	r3, #1
 8002426:	d102      	bne.n	800242e <main+0x312>
 8002428:	f7fe fe40 	bl	80010ac <partS>
 800242c:	e7ed      	b.n	800240a <main+0x2ee>
		else if(modeFlag == PUSE) modeFlag = pUseM();
 800242e:	2b02      	cmp	r3, #2
 8002430:	d102      	bne.n	8002438 <main+0x31c>
 8002432:	f7ff f933 	bl	800169c <pUseM>
 8002436:	e7e8      	b.n	800240a <main+0x2ee>
		else if(modeFlag == USE) modeFlag = use();
 8002438:	2b03      	cmp	r3, #3
 800243a:	d102      	bne.n	8002442 <main+0x326>
 800243c:	f7ff fa6c 	bl	8001918 <use>
 8002440:	e7e3      	b.n	800240a <main+0x2ee>
		else if(modeFlag == REFILL) modeFlag = refill();
 8002442:	2b04      	cmp	r3, #4
 8002444:	d102      	bne.n	800244c <main+0x330>
 8002446:	f7ff fb43 	bl	8001ad0 <refill>
 800244a:	e7de      	b.n	800240a <main+0x2ee>
		else if(modeFlag == PFIND) modeFlag = pFind();
 800244c:	2b05      	cmp	r3, #5
 800244e:	d102      	bne.n	8002456 <main+0x33a>
 8002450:	f7ff fc46 	bl	8001ce0 <pFind>
 8002454:	e7d9      	b.n	800240a <main+0x2ee>
		else if(modeFlag == FINDR) modeFlag = findR();
 8002456:	2b06      	cmp	r3, #6
 8002458:	d1d1      	bne.n	80023fe <main+0x2e2>
 800245a:	f7ff fcb7 	bl	8001dcc <findR>
 800245e:	e7d4      	b.n	800240a <main+0x2ee>
 8002460:	40021000 	.word	0x40021000
 8002464:	50000400 	.word	0x50000400
 8002468:	20000464 	.word	0x20000464
 800246c:	40012400 	.word	0x40012400
 8002470:	04000002 	.word	0x04000002
 8002474:	20000508 	.word	0x20000508
 8002478:	40005400 	.word	0x40005400
 800247c:	00200c28 	.word	0x00200c28
 8002480:	20000554 	.word	0x20000554
 8002484:	40013000 	.word	0x40013000
 8002488:	200005ac 	.word	0x200005ac
 800248c:	000003e7 	.word	0x000003e7
 8002490:	200005f4 	.word	0x200005f4
 8002494:	200008b0 	.word	0x200008b0
 8002498:	20000000 	.word	0x20000000
 800249c:	080062f5 	.word	0x080062f5
 80024a0:	080062fc 	.word	0x080062fc
 80024a4:	2000066c 	.word	0x2000066c
 80024a8:	200005f0 	.word	0x200005f0

080024ac <Error_Handler>:
 80024ac:	b672      	cpsid	i
	while (1) {
 80024ae:	e7fe      	b.n	80024ae <Error_Handler+0x2>

080024b0 <SSD1306_Fill>:
	}
}

void SSD1306_Fill(SSD1306_COLOR_t color) {
	/* Set memory */
	memset(SSD1306_Buffer, (color == SSD1306_COLOR_BLACK) ? 0x00 : 0xFF, sizeof(SSD1306_Buffer));
 80024b0:	2100      	movs	r1, #0
void SSD1306_Fill(SSD1306_COLOR_t color) {
 80024b2:	b510      	push	{r4, lr}
	memset(SSD1306_Buffer, (color == SSD1306_COLOR_BLACK) ? 0x00 : 0xFF, sizeof(SSD1306_Buffer));
 80024b4:	4288      	cmp	r0, r1
 80024b6:	d000      	beq.n	80024ba <SSD1306_Fill+0xa>
 80024b8:	31ff      	adds	r1, #255	; 0xff
 80024ba:	2280      	movs	r2, #128	; 0x80
 80024bc:	4802      	ldr	r0, [pc, #8]	; (80024c8 <SSD1306_Fill+0x18>)
 80024be:	00d2      	lsls	r2, r2, #3
 80024c0:	f002 fc88 	bl	8004dd4 <memset>
}
 80024c4:	bd10      	pop	{r4, pc}
 80024c6:	46c0      	nop			; (mov r8, r8)
 80024c8:	200008d6 	.word	0x200008d6

080024cc <SSD1306_DrawPixel>:

void SSD1306_DrawPixel(uint16_t x, uint16_t y, SSD1306_COLOR_t color) {
 80024cc:	b530      	push	{r4, r5, lr}
 80024ce:	0004      	movs	r4, r0
	if (
 80024d0:	287f      	cmp	r0, #127	; 0x7f
 80024d2:	d812      	bhi.n	80024fa <SSD1306_DrawPixel+0x2e>
			x >= SSD1306_WIDTH ||
 80024d4:	293f      	cmp	r1, #63	; 0x3f
 80024d6:	d810      	bhi.n	80024fa <SSD1306_DrawPixel+0x2e>
		/* Error */
		return;
	}

	/* Check if pixels are inverted */
	if (SSD1306.Inverted) {
 80024d8:	4b0e      	ldr	r3, [pc, #56]	; (8002514 <SSD1306_DrawPixel+0x48>)
 80024da:	4d0f      	ldr	r5, [pc, #60]	; (8002518 <SSD1306_DrawPixel+0x4c>)
 80024dc:	7918      	ldrb	r0, [r3, #4]
 80024de:	08cb      	lsrs	r3, r1, #3
 80024e0:	2800      	cmp	r0, #0
 80024e2:	d00b      	beq.n	80024fc <SSD1306_DrawPixel+0x30>
		color = (SSD1306_COLOR_t)!color;
	}

	/* Set color */
	if (color == SSD1306_COLOR_WHITE) {
 80024e4:	2a00      	cmp	r2, #0
 80024e6:	d10b      	bne.n	8002500 <SSD1306_DrawPixel+0x34>
		SSD1306_Buffer[x + (y / 8) * SSD1306_WIDTH] |= 1 << (y % 8);
 80024e8:	01d8      	lsls	r0, r3, #7
 80024ea:	2307      	movs	r3, #7
 80024ec:	4019      	ands	r1, r3
 80024ee:	3b06      	subs	r3, #6
 80024f0:	408b      	lsls	r3, r1
 80024f2:	1900      	adds	r0, r0, r4
 80024f4:	5c2a      	ldrb	r2, [r5, r0]
 80024f6:	4313      	orrs	r3, r2
	} else {
		SSD1306_Buffer[x + (y / 8) * SSD1306_WIDTH] &= ~(1 << (y % 8));
 80024f8:	542b      	strb	r3, [r5, r0]
	}
}
 80024fa:	bd30      	pop	{r4, r5, pc}
	if (color == SSD1306_COLOR_WHITE) {
 80024fc:	2a01      	cmp	r2, #1
 80024fe:	d0f3      	beq.n	80024e8 <SSD1306_DrawPixel+0x1c>
		SSD1306_Buffer[x + (y / 8) * SSD1306_WIDTH] &= ~(1 << (y % 8));
 8002500:	01d8      	lsls	r0, r3, #7
 8002502:	2307      	movs	r3, #7
 8002504:	2201      	movs	r2, #1
 8002506:	4019      	ands	r1, r3
 8002508:	408a      	lsls	r2, r1
 800250a:	1900      	adds	r0, r0, r4
 800250c:	5c2b      	ldrb	r3, [r5, r0]
 800250e:	4393      	bics	r3, r2
 8002510:	e7f2      	b.n	80024f8 <SSD1306_DrawPixel+0x2c>
 8002512:	46c0      	nop			; (mov r8, r8)
 8002514:	200008d0 	.word	0x200008d0
 8002518:	200008d6 	.word	0x200008d6

0800251c <SSD1306_GotoXY>:

void SSD1306_GotoXY(uint16_t x, uint16_t y) {
	/* Set write pointers */
	SSD1306.CurrentX = x;
 800251c:	4b01      	ldr	r3, [pc, #4]	; (8002524 <SSD1306_GotoXY+0x8>)
 800251e:	8018      	strh	r0, [r3, #0]
	SSD1306.CurrentY = y;
 8002520:	8059      	strh	r1, [r3, #2]
}
 8002522:	4770      	bx	lr
 8002524:	200008d0 	.word	0x200008d0

08002528 <SSD1306_Putc>:

char SSD1306_Putc(char ch, FontDef_t* Font, SSD1306_COLOR_t color) {
 8002528:	b5f7      	push	{r0, r1, r2, r4, r5, r6, r7, lr}
 800252a:	0007      	movs	r7, r0
 800252c:	000c      	movs	r4, r1
	//		/* Error */
	//		return 0;
	//	}

	/* Go through font */
	for (i = 0; i < Font->FontHeight; i++) {
 800252e:	2500      	movs	r5, #0
char SSD1306_Putc(char ch, FontDef_t* Font, SSD1306_COLOR_t color) {
 8002530:	9200      	str	r2, [sp, #0]
	for (i = 0; i < Font->FontHeight; i++) {
 8002532:	7863      	ldrb	r3, [r4, #1]
 8002534:	42ab      	cmp	r3, r5
 8002536:	d806      	bhi.n	8002546 <SSD1306_Putc+0x1e>
			}
		}
	}

	/* Increase pointer */
	SSD1306.CurrentX += Font->FontWidth;
 8002538:	4a15      	ldr	r2, [pc, #84]	; (8002590 <SSD1306_Putc+0x68>)
 800253a:	7823      	ldrb	r3, [r4, #0]
 800253c:	8811      	ldrh	r1, [r2, #0]

	/* Return character written */
	return ch;
}
 800253e:	0038      	movs	r0, r7
	SSD1306.CurrentX += Font->FontWidth;
 8002540:	185b      	adds	r3, r3, r1
 8002542:	8013      	strh	r3, [r2, #0]
}
 8002544:	bdfe      	pop	{r1, r2, r3, r4, r5, r6, r7, pc}
		b = Font->data[(ch - 32) * Font->FontHeight + i];
 8002546:	003a      	movs	r2, r7
		for (j = 0; j < Font->FontWidth; j++) {
 8002548:	2600      	movs	r6, #0
		b = Font->data[(ch - 32) * Font->FontHeight + i];
 800254a:	3a20      	subs	r2, #32
 800254c:	4353      	muls	r3, r2
 800254e:	6862      	ldr	r2, [r4, #4]
 8002550:	195b      	adds	r3, r3, r5
 8002552:	005b      	lsls	r3, r3, #1
 8002554:	5a9b      	ldrh	r3, [r3, r2]
 8002556:	9301      	str	r3, [sp, #4]
				SSD1306_DrawPixel(SSD1306.CurrentX + j, (SSD1306.CurrentY + i), (SSD1306_COLOR_t) color);
 8002558:	4b0d      	ldr	r3, [pc, #52]	; (8002590 <SSD1306_Putc+0x68>)
		for (j = 0; j < Font->FontWidth; j++) {
 800255a:	7822      	ldrb	r2, [r4, #0]
				SSD1306_DrawPixel(SSD1306.CurrentX + j, (SSD1306.CurrentY + i), (SSD1306_COLOR_t) color);
 800255c:	8818      	ldrh	r0, [r3, #0]
		for (j = 0; j < Font->FontWidth; j++) {
 800255e:	42b2      	cmp	r2, r6
 8002560:	d801      	bhi.n	8002566 <SSD1306_Putc+0x3e>
	for (i = 0; i < Font->FontHeight; i++) {
 8002562:	3501      	adds	r5, #1
 8002564:	e7e5      	b.n	8002532 <SSD1306_Putc+0xa>
				SSD1306_DrawPixel(SSD1306.CurrentX + j, (SSD1306.CurrentY + i), (SSD1306_COLOR_t) color);
 8002566:	8859      	ldrh	r1, [r3, #2]
			if ((b << j) & 0x8000) {
 8002568:	9b01      	ldr	r3, [sp, #4]
 800256a:	2280      	movs	r2, #128	; 0x80
 800256c:	40b3      	lsls	r3, r6
				SSD1306_DrawPixel(SSD1306.CurrentX + j, (SSD1306.CurrentY + i), (SSD1306_COLOR_t) color);
 800256e:	1980      	adds	r0, r0, r6
 8002570:	1949      	adds	r1, r1, r5
			if ((b << j) & 0x8000) {
 8002572:	0212      	lsls	r2, r2, #8
				SSD1306_DrawPixel(SSD1306.CurrentX + j, (SSD1306.CurrentY + i), (SSD1306_COLOR_t) color);
 8002574:	b280      	uxth	r0, r0
 8002576:	b289      	uxth	r1, r1
			if ((b << j) & 0x8000) {
 8002578:	4213      	tst	r3, r2
 800257a:	d004      	beq.n	8002586 <SSD1306_Putc+0x5e>
				SSD1306_DrawPixel(SSD1306.CurrentX + j, (SSD1306.CurrentY + i), (SSD1306_COLOR_t) color);
 800257c:	9a00      	ldr	r2, [sp, #0]
				SSD1306_DrawPixel(SSD1306.CurrentX + j, (SSD1306.CurrentY + i), (SSD1306_COLOR_t)!color);
 800257e:	f7ff ffa5 	bl	80024cc <SSD1306_DrawPixel>
		for (j = 0; j < Font->FontWidth; j++) {
 8002582:	3601      	adds	r6, #1
 8002584:	e7e8      	b.n	8002558 <SSD1306_Putc+0x30>
				SSD1306_DrawPixel(SSD1306.CurrentX + j, (SSD1306.CurrentY + i), (SSD1306_COLOR_t)!color);
 8002586:	9b00      	ldr	r3, [sp, #0]
 8002588:	425a      	negs	r2, r3
 800258a:	415a      	adcs	r2, r3
 800258c:	b2d2      	uxtb	r2, r2
 800258e:	e7f6      	b.n	800257e <SSD1306_Putc+0x56>
 8002590:	200008d0 	.word	0x200008d0

08002594 <SSD1306_Puts>:

char SSD1306_Puts(char* str, FontDef_t* Font, SSD1306_COLOR_t color) {
 8002594:	b570      	push	{r4, r5, r6, lr}
 8002596:	0004      	movs	r4, r0
 8002598:	000d      	movs	r5, r1
 800259a:	0016      	movs	r6, r2
	/* Write characters */
	while (*str) {
 800259c:	7820      	ldrb	r0, [r4, #0]
 800259e:	2800      	cmp	r0, #0
 80025a0:	d100      	bne.n	80025a4 <SSD1306_Puts+0x10>
		str++;
	}

	/* Everything OK, zero should be returned */
	return *str;
}
 80025a2:	bd70      	pop	{r4, r5, r6, pc}
		if (SSD1306_Putc(*str, Font, color) != *str) {
 80025a4:	0032      	movs	r2, r6
 80025a6:	0029      	movs	r1, r5
 80025a8:	f7ff ffbe 	bl	8002528 <SSD1306_Putc>
 80025ac:	0003      	movs	r3, r0
 80025ae:	7820      	ldrb	r0, [r4, #0]
 80025b0:	4283      	cmp	r3, r0
 80025b2:	d1f6      	bne.n	80025a2 <SSD1306_Puts+0xe>
		str++;
 80025b4:	3401      	adds	r4, #1
 80025b6:	e7f1      	b.n	800259c <SSD1306_Puts+0x8>

080025b8 <SSD1306_DrawLine>:


void SSD1306_DrawLine(uint16_t x0, uint16_t y0, uint16_t x1, uint16_t y1, SSD1306_COLOR_t c) {
 80025b8:	b5f0      	push	{r4, r5, r6, r7, lr}
 80025ba:	b087      	sub	sp, #28
 80025bc:	ac0c      	add	r4, sp, #48	; 0x30
 80025be:	7824      	ldrb	r4, [r4, #0]
 80025c0:	9405      	str	r4, [sp, #20]
 80025c2:	1c04      	adds	r4, r0, #0
 80025c4:	287f      	cmp	r0, #127	; 0x7f
 80025c6:	d900      	bls.n	80025ca <SSD1306_DrawLine+0x12>
 80025c8:	247f      	movs	r4, #127	; 0x7f
 80025ca:	b2a4      	uxth	r4, r4

	/* Check for overflow */
	if (x0 >= SSD1306_WIDTH) {
		x0 = SSD1306_WIDTH - 1;
	}
	if (x1 >= SSD1306_WIDTH) {
 80025cc:	1c16      	adds	r6, r2, #0
 80025ce:	2a7f      	cmp	r2, #127	; 0x7f
 80025d0:	d900      	bls.n	80025d4 <SSD1306_DrawLine+0x1c>
 80025d2:	267f      	movs	r6, #127	; 0x7f
 80025d4:	b2b6      	uxth	r6, r6
		x1 = SSD1306_WIDTH - 1;
	}
	if (y0 >= SSD1306_HEIGHT) {
 80025d6:	1c0d      	adds	r5, r1, #0
 80025d8:	293f      	cmp	r1, #63	; 0x3f
 80025da:	d900      	bls.n	80025de <SSD1306_DrawLine+0x26>
 80025dc:	253f      	movs	r5, #63	; 0x3f
 80025de:	b2ad      	uxth	r5, r5
		y0 = SSD1306_HEIGHT - 1;
	}
	if (y1 >= SSD1306_HEIGHT) {
 80025e0:	1c1f      	adds	r7, r3, #0
 80025e2:	2b3f      	cmp	r3, #63	; 0x3f
 80025e4:	d900      	bls.n	80025e8 <SSD1306_DrawLine+0x30>
 80025e6:	273f      	movs	r7, #63	; 0x3f
 80025e8:	b2bf      	uxth	r7, r7
		y1 = SSD1306_HEIGHT - 1;
	}

	dx = (x0 < x1) ? (x1 - x0) : (x0 - x1); 
 80025ea:	1b33      	subs	r3, r6, r4
 80025ec:	42a6      	cmp	r6, r4
 80025ee:	d800      	bhi.n	80025f2 <SSD1306_DrawLine+0x3a>
 80025f0:	1ba3      	subs	r3, r4, r6
 80025f2:	b21b      	sxth	r3, r3
 80025f4:	9300      	str	r3, [sp, #0]
	dy = (y0 < y1) ? (y1 - y0) : (y0 - y1); 
 80025f6:	42bd      	cmp	r5, r7
 80025f8:	d224      	bcs.n	8002644 <SSD1306_DrawLine+0x8c>
 80025fa:	1b7b      	subs	r3, r7, r5
 80025fc:	b21b      	sxth	r3, r3
 80025fe:	9301      	str	r3, [sp, #4]
	sx = (x0 < x1) ? 1 : -1; 
 8002600:	2301      	movs	r3, #1
 8002602:	9303      	str	r3, [sp, #12]
	sy = (y0 < y1) ? 1 : -1; 
 8002604:	9304      	str	r3, [sp, #16]
	sx = (x0 < x1) ? 1 : -1; 
 8002606:	42a6      	cmp	r6, r4
 8002608:	d801      	bhi.n	800260e <SSD1306_DrawLine+0x56>
 800260a:	3b02      	subs	r3, #2
 800260c:	9303      	str	r3, [sp, #12]
	err = ((dx > dy) ? dx : -dy) / 2; 
 800260e:	9b00      	ldr	r3, [sp, #0]
 8002610:	9a01      	ldr	r2, [sp, #4]
 8002612:	4293      	cmp	r3, r2
 8002614:	dd23      	ble.n	800265e <SSD1306_DrawLine+0xa6>
 8002616:	9a00      	ldr	r2, [sp, #0]
 8002618:	0fdb      	lsrs	r3, r3, #31
 800261a:	189b      	adds	r3, r3, r2
 800261c:	105b      	asrs	r3, r3, #1
 800261e:	9302      	str	r3, [sp, #8]

	if (dx == 0) {
 8002620:	9b00      	ldr	r3, [sp, #0]
 8002622:	2b00      	cmp	r3, #0
 8002624:	d12b      	bne.n	800267e <SSD1306_DrawLine+0xc6>
		if (y1 < y0) {
 8002626:	42bd      	cmp	r5, r7
 8002628:	d902      	bls.n	8002630 <SSD1306_DrawLine+0x78>
 800262a:	002b      	movs	r3, r5
 800262c:	003d      	movs	r5, r7
 800262e:	001f      	movs	r7, r3
			tmp = y1;
			y1 = y0;
			y0 = tmp;
		}

		if (x1 < x0) {
 8002630:	1c33      	adds	r3, r6, #0
 8002632:	42a6      	cmp	r6, r4
 8002634:	d900      	bls.n	8002638 <SSD1306_DrawLine+0x80>
 8002636:	1c23      	adds	r3, r4, #0
 8002638:	b29c      	uxth	r4, r3
			x1 = x0;
			x0 = tmp;
		}

		/* Vertical line */
		for (i = y0; i <= y1; i++) {
 800263a:	b22d      	sxth	r5, r5
 800263c:	42bd      	cmp	r5, r7
 800263e:	dd16      	ble.n	800266e <SSD1306_DrawLine+0xb6>
		if (e2 < dy) {
			err += dx;
			y0 += sy;
		} 
	}
}
 8002640:	b007      	add	sp, #28
 8002642:	bdf0      	pop	{r4, r5, r6, r7, pc}
	dy = (y0 < y1) ? (y1 - y0) : (y0 - y1); 
 8002644:	1beb      	subs	r3, r5, r7
 8002646:	b21b      	sxth	r3, r3
 8002648:	9301      	str	r3, [sp, #4]
	sx = (x0 < x1) ? 1 : -1; 
 800264a:	2301      	movs	r3, #1
 800264c:	42a6      	cmp	r6, r4
 800264e:	d903      	bls.n	8002658 <SSD1306_DrawLine+0xa0>
 8002650:	9303      	str	r3, [sp, #12]
	sy = (y0 < y1) ? 1 : -1; 
 8002652:	3b02      	subs	r3, #2
 8002654:	9304      	str	r3, [sp, #16]
 8002656:	e7da      	b.n	800260e <SSD1306_DrawLine+0x56>
	sx = (x0 < x1) ? 1 : -1; 
 8002658:	425b      	negs	r3, r3
 800265a:	9303      	str	r3, [sp, #12]
 800265c:	e7fa      	b.n	8002654 <SSD1306_DrawLine+0x9c>
	err = ((dx > dy) ? dx : -dy) / 2; 
 800265e:	9b01      	ldr	r3, [sp, #4]
 8002660:	9a01      	ldr	r2, [sp, #4]
 8002662:	0fdb      	lsrs	r3, r3, #31
 8002664:	189b      	adds	r3, r3, r2
 8002666:	105b      	asrs	r3, r3, #1
 8002668:	425b      	negs	r3, r3
 800266a:	b21b      	sxth	r3, r3
 800266c:	e7d7      	b.n	800261e <SSD1306_DrawLine+0x66>
			SSD1306_DrawPixel(x0, i, c);
 800266e:	b2ad      	uxth	r5, r5
 8002670:	0029      	movs	r1, r5
 8002672:	0020      	movs	r0, r4
 8002674:	9a05      	ldr	r2, [sp, #20]
 8002676:	f7ff ff29 	bl	80024cc <SSD1306_DrawPixel>
		for (i = y0; i <= y1; i++) {
 800267a:	3501      	adds	r5, #1
 800267c:	e7dd      	b.n	800263a <SSD1306_DrawLine+0x82>
	if (dy == 0) {
 800267e:	9b01      	ldr	r3, [sp, #4]
 8002680:	2b00      	cmp	r3, #0
 8002682:	d115      	bne.n	80026b0 <SSD1306_DrawLine+0xf8>
		if (y1 < y0) {
 8002684:	1c2b      	adds	r3, r5, #0
 8002686:	42bd      	cmp	r5, r7
 8002688:	d900      	bls.n	800268c <SSD1306_DrawLine+0xd4>
 800268a:	1c3b      	adds	r3, r7, #0
 800268c:	b29d      	uxth	r5, r3
		if (x1 < x0) {
 800268e:	42a6      	cmp	r6, r4
 8002690:	d202      	bcs.n	8002698 <SSD1306_DrawLine+0xe0>
 8002692:	0023      	movs	r3, r4
 8002694:	0034      	movs	r4, r6
 8002696:	001e      	movs	r6, r3
		for (i = x0; i <= x1; i++) {
 8002698:	b224      	sxth	r4, r4
 800269a:	42b4      	cmp	r4, r6
 800269c:	dcd0      	bgt.n	8002640 <SSD1306_DrawLine+0x88>
			SSD1306_DrawPixel(i, y0, c);
 800269e:	b2a4      	uxth	r4, r4
 80026a0:	0020      	movs	r0, r4
 80026a2:	0029      	movs	r1, r5
 80026a4:	9a05      	ldr	r2, [sp, #20]
 80026a6:	f7ff ff11 	bl	80024cc <SSD1306_DrawPixel>
		for (i = x0; i <= x1; i++) {
 80026aa:	3401      	adds	r4, #1
 80026ac:	e7f4      	b.n	8002698 <SSD1306_DrawLine+0xe0>
		if (x1 < x0) {
 80026ae:	9302      	str	r3, [sp, #8]
		SSD1306_DrawPixel(x0, y0, c);
 80026b0:	0029      	movs	r1, r5
 80026b2:	0020      	movs	r0, r4
 80026b4:	9a05      	ldr	r2, [sp, #20]
 80026b6:	f7ff ff09 	bl	80024cc <SSD1306_DrawPixel>
		if (x0 == x1 && y0 == y1) {
 80026ba:	42a6      	cmp	r6, r4
 80026bc:	d101      	bne.n	80026c2 <SSD1306_DrawLine+0x10a>
 80026be:	42bd      	cmp	r5, r7
 80026c0:	d0be      	beq.n	8002640 <SSD1306_DrawLine+0x88>
		if (e2 > -dx) {
 80026c2:	9b00      	ldr	r3, [sp, #0]
 80026c4:	425a      	negs	r2, r3
 80026c6:	9b02      	ldr	r3, [sp, #8]
 80026c8:	4293      	cmp	r3, r2
 80026ca:	dd05      	ble.n	80026d8 <SSD1306_DrawLine+0x120>
			err -= dy;
 80026cc:	9a01      	ldr	r2, [sp, #4]
 80026ce:	1a9b      	subs	r3, r3, r2
			x0 += sx;
 80026d0:	9a03      	ldr	r2, [sp, #12]
			err -= dy;
 80026d2:	b21b      	sxth	r3, r3
			x0 += sx;
 80026d4:	18a4      	adds	r4, r4, r2
 80026d6:	b2a4      	uxth	r4, r4
		if (e2 < dy) {
 80026d8:	9a02      	ldr	r2, [sp, #8]
 80026da:	9901      	ldr	r1, [sp, #4]
 80026dc:	428a      	cmp	r2, r1
 80026de:	dae6      	bge.n	80026ae <SSD1306_DrawLine+0xf6>
			err += dx;
 80026e0:	9a00      	ldr	r2, [sp, #0]
 80026e2:	189b      	adds	r3, r3, r2
			y0 += sy;
 80026e4:	9a04      	ldr	r2, [sp, #16]
			err += dx;
 80026e6:	b21b      	sxth	r3, r3
			y0 += sy;
 80026e8:	18ad      	adds	r5, r5, r2
 80026ea:	b2ad      	uxth	r5, r5
 80026ec:	e7df      	b.n	80026ae <SSD1306_DrawLine+0xf6>

080026ee <SSD1306_DrawFilledRectangle>:
	SSD1306_DrawLine(x, y + h, x + w, y + h, c); /* Bottom line */
	SSD1306_DrawLine(x, y, x, y + h, c);         /* Left line */
	SSD1306_DrawLine(x + w, y, x + w, y + h, c); /* Right line */
}

void SSD1306_DrawFilledRectangle(uint16_t x, uint16_t y, uint16_t w, uint16_t h, SSD1306_COLOR_t c) {
 80026ee:	b5f0      	push	{r4, r5, r6, r7, lr}
 80026f0:	b085      	sub	sp, #20
 80026f2:	9302      	str	r3, [sp, #8]
 80026f4:	ab0a      	add	r3, sp, #40	; 0x28
 80026f6:	781b      	ldrb	r3, [r3, #0]
 80026f8:	0005      	movs	r5, r0
 80026fa:	000f      	movs	r7, r1
 80026fc:	0014      	movs	r4, r2
 80026fe:	9303      	str	r3, [sp, #12]
	uint8_t i;

	/* Check input parameters */
	if (
 8002700:	287f      	cmp	r0, #127	; 0x7f
 8002702:	d814      	bhi.n	800272e <SSD1306_DrawFilledRectangle+0x40>
			x >= SSD1306_WIDTH ||
 8002704:	293f      	cmp	r1, #63	; 0x3f
 8002706:	d812      	bhi.n	800272e <SSD1306_DrawFilledRectangle+0x40>
		/* Return error */
		return;
	}

	/* Check width and height */
	if ((x + w) >= SSD1306_WIDTH) {
 8002708:	1883      	adds	r3, r0, r2
 800270a:	2b7f      	cmp	r3, #127	; 0x7f
 800270c:	dd02      	ble.n	8002714 <SSD1306_DrawFilledRectangle+0x26>
		w = SSD1306_WIDTH - x;
 800270e:	2480      	movs	r4, #128	; 0x80
 8002710:	1a24      	subs	r4, r4, r0
 8002712:	b2a4      	uxth	r4, r4
	}
	if ((y + h) >= SSD1306_HEIGHT) {
 8002714:	9b02      	ldr	r3, [sp, #8]
 8002716:	18fb      	adds	r3, r7, r3
 8002718:	2b3f      	cmp	r3, #63	; 0x3f
 800271a:	dd03      	ble.n	8002724 <SSD1306_DrawFilledRectangle+0x36>
		h = SSD1306_HEIGHT - y;
 800271c:	2340      	movs	r3, #64	; 0x40
 800271e:	1bdb      	subs	r3, r3, r7
 8002720:	b29b      	uxth	r3, r3
 8002722:	9302      	str	r3, [sp, #8]
	}

	/* Draw lines */
	for (i = 0; i <= h; i++) {
 8002724:	2600      	movs	r6, #0
 8002726:	9b02      	ldr	r3, [sp, #8]
 8002728:	b2b1      	uxth	r1, r6
 800272a:	429e      	cmp	r6, r3
 800272c:	d901      	bls.n	8002732 <SSD1306_DrawFilledRectangle+0x44>
		/* Draw lines */
		SSD1306_DrawLine(x, y + i, x + w, y + i, c);
	}
}
 800272e:	b005      	add	sp, #20
 8002730:	bdf0      	pop	{r4, r5, r6, r7, pc}
		SSD1306_DrawLine(x, y + i, x + w, y + i, c);
 8002732:	9b03      	ldr	r3, [sp, #12]
 8002734:	19c9      	adds	r1, r1, r7
 8002736:	b289      	uxth	r1, r1
 8002738:	1962      	adds	r2, r4, r5
 800273a:	9300      	str	r3, [sp, #0]
 800273c:	0028      	movs	r0, r5
 800273e:	000b      	movs	r3, r1
 8002740:	b292      	uxth	r2, r2
	for (i = 0; i <= h; i++) {
 8002742:	3601      	adds	r6, #1
		SSD1306_DrawLine(x, y + i, x + w, y + i, c);
 8002744:	f7ff ff38 	bl	80025b8 <SSD1306_DrawLine>
	for (i = 0; i <= h; i++) {
 8002748:	b2f6      	uxtb	r6, r6
 800274a:	e7ec      	b.n	8002726 <SSD1306_DrawFilledRectangle+0x38>

0800274c <ssd1306_I2C_WriteMulti>:
	//while(p>0)
	//	p--;
	//MX_I2C1_Init();
}

void ssd1306_I2C_WriteMulti(uint8_t address, uint8_t reg, uint8_t* data, uint16_t count) {
 800274c:	b570      	push	{r4, r5, r6, lr}
	uint8_t dt[256];
	dt[0] = reg;
	uint8_t i;
	for(i = 0; i < count; i++)
 800274e:	2400      	movs	r4, #0
void ssd1306_I2C_WriteMulti(uint8_t address, uint8_t reg, uint8_t* data, uint16_t count) {
 8002750:	b0c2      	sub	sp, #264	; 0x108
 8002752:	0015      	movs	r5, r2
	dt[0] = reg;
 8002754:	aa02      	add	r2, sp, #8
 8002756:	7011      	strb	r1, [r2, #0]
	for(i = 0; i < count; i++)
 8002758:	429c      	cmp	r4, r3
 800275a:	d309      	bcc.n	8002770 <ssd1306_I2C_WriteMulti+0x24>
		dt[i+1] = data[i];
	HAL_I2C_Master_Transmit(&hi2c1, address, dt, count+1, 10);
 800275c:	b281      	uxth	r1, r0
 800275e:	200a      	movs	r0, #10
 8002760:	3301      	adds	r3, #1
 8002762:	9000      	str	r0, [sp, #0]
 8002764:	b29b      	uxth	r3, r3
 8002766:	4805      	ldr	r0, [pc, #20]	; (800277c <ssd1306_I2C_WriteMulti+0x30>)
 8002768:	f001 f8d4 	bl	8003914 <HAL_I2C_Master_Transmit>
}
 800276c:	b042      	add	sp, #264	; 0x108
 800276e:	bd70      	pop	{r4, r5, r6, pc}
		dt[i+1] = data[i];
 8002770:	5d2e      	ldrb	r6, [r5, r4]
 8002772:	1911      	adds	r1, r2, r4
	for(i = 0; i < count; i++)
 8002774:	3401      	adds	r4, #1
		dt[i+1] = data[i];
 8002776:	704e      	strb	r6, [r1, #1]
	for(i = 0; i < count; i++)
 8002778:	b2e4      	uxtb	r4, r4
 800277a:	e7ed      	b.n	8002758 <ssd1306_I2C_WriteMulti+0xc>
 800277c:	20000508 	.word	0x20000508

08002780 <ssd1306_I2C_Write>:


void ssd1306_I2C_Write(uint8_t address, uint8_t reg, uint8_t data) {
 8002780:	b51f      	push	{r0, r1, r2, r3, r4, lr}
	uint8_t dt[2];
	dt[0] = reg;
 8002782:	466b      	mov	r3, sp
 8002784:	7319      	strb	r1, [r3, #12]
	dt[1] = data;
 8002786:	735a      	strb	r2, [r3, #13]
	HAL_I2C_Master_Transmit(&hi2c1, address, dt, 2, 10);
 8002788:	230a      	movs	r3, #10
 800278a:	0001      	movs	r1, r0
 800278c:	9300      	str	r3, [sp, #0]
 800278e:	aa03      	add	r2, sp, #12
 8002790:	3b08      	subs	r3, #8
 8002792:	4802      	ldr	r0, [pc, #8]	; (800279c <ssd1306_I2C_Write+0x1c>)
 8002794:	f001 f8be 	bl	8003914 <HAL_I2C_Master_Transmit>
}
 8002798:	b005      	add	sp, #20
 800279a:	bd00      	pop	{pc}
 800279c:	20000508 	.word	0x20000508

080027a0 <SSD1306_UpdateScreen>:
void SSD1306_UpdateScreen(void) {
 80027a0:	b570      	push	{r4, r5, r6, lr}
 80027a2:	24b0      	movs	r4, #176	; 0xb0
		SSD1306_WRITECOMMAND(0xB0 + m);
 80027a4:	2578      	movs	r5, #120	; 0x78
 80027a6:	4e0e      	ldr	r6, [pc, #56]	; (80027e0 <SSD1306_UpdateScreen+0x40>)
 80027a8:	0022      	movs	r2, r4
 80027aa:	2100      	movs	r1, #0
 80027ac:	0028      	movs	r0, r5
 80027ae:	f7ff ffe7 	bl	8002780 <ssd1306_I2C_Write>
		SSD1306_WRITECOMMAND(0x00);
 80027b2:	2200      	movs	r2, #0
 80027b4:	0028      	movs	r0, r5
 80027b6:	0011      	movs	r1, r2
 80027b8:	f7ff ffe2 	bl	8002780 <ssd1306_I2C_Write>
	for (m = 0; m < 8; m++) {
 80027bc:	3401      	adds	r4, #1
		SSD1306_WRITECOMMAND(0x10);
 80027be:	2210      	movs	r2, #16
 80027c0:	2100      	movs	r1, #0
 80027c2:	0028      	movs	r0, r5
 80027c4:	f7ff ffdc 	bl	8002780 <ssd1306_I2C_Write>
	for (m = 0; m < 8; m++) {
 80027c8:	b2e4      	uxtb	r4, r4
		ssd1306_I2C_WriteMulti(SSD1306_I2C_ADDR, 0x40, &SSD1306_Buffer[SSD1306_WIDTH * m], SSD1306_WIDTH);
 80027ca:	0032      	movs	r2, r6
 80027cc:	2380      	movs	r3, #128	; 0x80
 80027ce:	2140      	movs	r1, #64	; 0x40
 80027d0:	0028      	movs	r0, r5
 80027d2:	f7ff ffbb 	bl	800274c <ssd1306_I2C_WriteMulti>
	for (m = 0; m < 8; m++) {
 80027d6:	3680      	adds	r6, #128	; 0x80
 80027d8:	2cb8      	cmp	r4, #184	; 0xb8
 80027da:	d1e5      	bne.n	80027a8 <SSD1306_UpdateScreen+0x8>
}
 80027dc:	bd70      	pop	{r4, r5, r6, pc}
 80027de:	46c0      	nop			; (mov r8, r8)
 80027e0:	200008d6 	.word	0x200008d6

080027e4 <SSD1306_Clear>:
{
 80027e4:	b510      	push	{r4, lr}
	SSD1306_Fill (0);
 80027e6:	2000      	movs	r0, #0
 80027e8:	f7ff fe62 	bl	80024b0 <SSD1306_Fill>
	SSD1306_UpdateScreen();
 80027ec:	f7ff ffd8 	bl	80027a0 <SSD1306_UpdateScreen>
}
 80027f0:	bd10      	pop	{r4, pc}
	...

080027f4 <SSD1306_Init>:
uint8_t SSD1306_Init(void) {
 80027f4:	b510      	push	{r4, lr}
	if (HAL_I2C_IsDeviceReady(&hi2c1, SSD1306_I2C_ADDR, 1, 20000) != HAL_OK) {
 80027f6:	2201      	movs	r2, #1
 80027f8:	2178      	movs	r1, #120	; 0x78
 80027fa:	4b52      	ldr	r3, [pc, #328]	; (8002944 <SSD1306_Init+0x150>)
 80027fc:	4852      	ldr	r0, [pc, #328]	; (8002948 <SSD1306_Init+0x154>)
 80027fe:	f001 f9ad 	bl	8003b5c <HAL_I2C_IsDeviceReady>
		return 0;
 8002802:	2400      	movs	r4, #0
	if (HAL_I2C_IsDeviceReady(&hi2c1, SSD1306_I2C_ADDR, 1, 20000) != HAL_OK) {
 8002804:	42a0      	cmp	r0, r4
 8002806:	d000      	beq.n	800280a <SSD1306_Init+0x16>
 8002808:	e09a      	b.n	8002940 <SSD1306_Init+0x14c>
	SSD1306_WRITECOMMAND(0xAE); //display off
 800280a:	0021      	movs	r1, r4
 800280c:	22ae      	movs	r2, #174	; 0xae
 800280e:	2078      	movs	r0, #120	; 0x78
 8002810:	f7ff ffb6 	bl	8002780 <ssd1306_I2C_Write>
	SSD1306_WRITECOMMAND(0x20); //Set Memory Addressing Mode   
 8002814:	0021      	movs	r1, r4
 8002816:	2220      	movs	r2, #32
 8002818:	2078      	movs	r0, #120	; 0x78
 800281a:	f7ff ffb1 	bl	8002780 <ssd1306_I2C_Write>
	SSD1306_WRITECOMMAND(0x10); //00,Horizontal Addressing Mode;01,Vertical Addressing Mode;10,Page Addressing Mode (RESET);11,Invalid
 800281e:	0021      	movs	r1, r4
 8002820:	2210      	movs	r2, #16
 8002822:	2078      	movs	r0, #120	; 0x78
 8002824:	f7ff ffac 	bl	8002780 <ssd1306_I2C_Write>
	SSD1306_WRITECOMMAND(0xB0); //Set Page Start Address for Page Addressing Mode,0-7
 8002828:	0021      	movs	r1, r4
 800282a:	22b0      	movs	r2, #176	; 0xb0
 800282c:	2078      	movs	r0, #120	; 0x78
 800282e:	f7ff ffa7 	bl	8002780 <ssd1306_I2C_Write>
	SSD1306_WRITECOMMAND(0xC8); //Set COM Output Scan Direction
 8002832:	0021      	movs	r1, r4
 8002834:	22c8      	movs	r2, #200	; 0xc8
 8002836:	2078      	movs	r0, #120	; 0x78
 8002838:	f7ff ffa2 	bl	8002780 <ssd1306_I2C_Write>
	SSD1306_WRITECOMMAND(0x00); //---set low column address
 800283c:	0022      	movs	r2, r4
 800283e:	0021      	movs	r1, r4
 8002840:	2078      	movs	r0, #120	; 0x78
 8002842:	f7ff ff9d 	bl	8002780 <ssd1306_I2C_Write>
	SSD1306_WRITECOMMAND(0x10); //---set high column address
 8002846:	0021      	movs	r1, r4
 8002848:	2210      	movs	r2, #16
 800284a:	2078      	movs	r0, #120	; 0x78
 800284c:	f7ff ff98 	bl	8002780 <ssd1306_I2C_Write>
	SSD1306_WRITECOMMAND(0x40); //--set start line address
 8002850:	0021      	movs	r1, r4
 8002852:	2240      	movs	r2, #64	; 0x40
 8002854:	2078      	movs	r0, #120	; 0x78
 8002856:	f7ff ff93 	bl	8002780 <ssd1306_I2C_Write>
	SSD1306_WRITECOMMAND(0x81); //--set contrast control register
 800285a:	0021      	movs	r1, r4
 800285c:	2281      	movs	r2, #129	; 0x81
 800285e:	2078      	movs	r0, #120	; 0x78
 8002860:	f7ff ff8e 	bl	8002780 <ssd1306_I2C_Write>
	SSD1306_WRITECOMMAND(0xFF);
 8002864:	0021      	movs	r1, r4
 8002866:	22ff      	movs	r2, #255	; 0xff
 8002868:	2078      	movs	r0, #120	; 0x78
 800286a:	f7ff ff89 	bl	8002780 <ssd1306_I2C_Write>
	SSD1306_WRITECOMMAND(0xA1); //--set segment re-map 0 to 127
 800286e:	0021      	movs	r1, r4
 8002870:	22a1      	movs	r2, #161	; 0xa1
 8002872:	2078      	movs	r0, #120	; 0x78
 8002874:	f7ff ff84 	bl	8002780 <ssd1306_I2C_Write>
	SSD1306_WRITECOMMAND(0xA6); //--set normal display
 8002878:	0021      	movs	r1, r4
 800287a:	22a6      	movs	r2, #166	; 0xa6
 800287c:	2078      	movs	r0, #120	; 0x78
 800287e:	f7ff ff7f 	bl	8002780 <ssd1306_I2C_Write>
	SSD1306_WRITECOMMAND(0xA8); //--set multiplex ratio(1 to 64)
 8002882:	0021      	movs	r1, r4
 8002884:	22a8      	movs	r2, #168	; 0xa8
 8002886:	2078      	movs	r0, #120	; 0x78
 8002888:	f7ff ff7a 	bl	8002780 <ssd1306_I2C_Write>
	SSD1306_WRITECOMMAND(0x3F); //
 800288c:	0021      	movs	r1, r4
 800288e:	223f      	movs	r2, #63	; 0x3f
 8002890:	2078      	movs	r0, #120	; 0x78
 8002892:	f7ff ff75 	bl	8002780 <ssd1306_I2C_Write>
	SSD1306_WRITECOMMAND(0xA4); //0xa4,Output follows RAM content;0xa5,Output ignores RAM content
 8002896:	0021      	movs	r1, r4
 8002898:	22a4      	movs	r2, #164	; 0xa4
 800289a:	2078      	movs	r0, #120	; 0x78
 800289c:	f7ff ff70 	bl	8002780 <ssd1306_I2C_Write>
	SSD1306_WRITECOMMAND(0xD3); //-set display offset
 80028a0:	0021      	movs	r1, r4
 80028a2:	22d3      	movs	r2, #211	; 0xd3
 80028a4:	2078      	movs	r0, #120	; 0x78
 80028a6:	f7ff ff6b 	bl	8002780 <ssd1306_I2C_Write>
	SSD1306_WRITECOMMAND(0x00); //-not offset
 80028aa:	0022      	movs	r2, r4
 80028ac:	0021      	movs	r1, r4
 80028ae:	2078      	movs	r0, #120	; 0x78
 80028b0:	f7ff ff66 	bl	8002780 <ssd1306_I2C_Write>
	SSD1306_WRITECOMMAND(0xD5); //--set display clock divide ratio/oscillator frequency
 80028b4:	0021      	movs	r1, r4
 80028b6:	22d5      	movs	r2, #213	; 0xd5
 80028b8:	2078      	movs	r0, #120	; 0x78
 80028ba:	f7ff ff61 	bl	8002780 <ssd1306_I2C_Write>
	SSD1306_WRITECOMMAND(0xF0); //--set divide ratio
 80028be:	0021      	movs	r1, r4
 80028c0:	22f0      	movs	r2, #240	; 0xf0
 80028c2:	2078      	movs	r0, #120	; 0x78
 80028c4:	f7ff ff5c 	bl	8002780 <ssd1306_I2C_Write>
	SSD1306_WRITECOMMAND(0xD9); //--set pre-charge period
 80028c8:	0021      	movs	r1, r4
 80028ca:	22d9      	movs	r2, #217	; 0xd9
 80028cc:	2078      	movs	r0, #120	; 0x78
 80028ce:	f7ff ff57 	bl	8002780 <ssd1306_I2C_Write>
	SSD1306_WRITECOMMAND(0x22); //
 80028d2:	0021      	movs	r1, r4
 80028d4:	2222      	movs	r2, #34	; 0x22
 80028d6:	2078      	movs	r0, #120	; 0x78
 80028d8:	f7ff ff52 	bl	8002780 <ssd1306_I2C_Write>
	SSD1306_WRITECOMMAND(0xDA); //--set com pins hardware configuration
 80028dc:	0021      	movs	r1, r4
 80028de:	22da      	movs	r2, #218	; 0xda
 80028e0:	2078      	movs	r0, #120	; 0x78
 80028e2:	f7ff ff4d 	bl	8002780 <ssd1306_I2C_Write>
	SSD1306_WRITECOMMAND(0x12);
 80028e6:	0021      	movs	r1, r4
 80028e8:	2212      	movs	r2, #18
 80028ea:	2078      	movs	r0, #120	; 0x78
 80028ec:	f7ff ff48 	bl	8002780 <ssd1306_I2C_Write>
	SSD1306_WRITECOMMAND(0xDB); //--set vcomh
 80028f0:	0021      	movs	r1, r4
 80028f2:	22db      	movs	r2, #219	; 0xdb
 80028f4:	2078      	movs	r0, #120	; 0x78
 80028f6:	f7ff ff43 	bl	8002780 <ssd1306_I2C_Write>
	SSD1306_WRITECOMMAND(0x20); //0x20,0.77xVcc
 80028fa:	0021      	movs	r1, r4
 80028fc:	2220      	movs	r2, #32
 80028fe:	2078      	movs	r0, #120	; 0x78
 8002900:	f7ff ff3e 	bl	8002780 <ssd1306_I2C_Write>
	SSD1306_WRITECOMMAND(0x8D); //--set DC-DC enable
 8002904:	0021      	movs	r1, r4
 8002906:	228d      	movs	r2, #141	; 0x8d
 8002908:	2078      	movs	r0, #120	; 0x78
 800290a:	f7ff ff39 	bl	8002780 <ssd1306_I2C_Write>
	SSD1306_WRITECOMMAND(0x14); //
 800290e:	0021      	movs	r1, r4
 8002910:	2214      	movs	r2, #20
 8002912:	2078      	movs	r0, #120	; 0x78
 8002914:	f7ff ff34 	bl	8002780 <ssd1306_I2C_Write>
	SSD1306_WRITECOMMAND(0xAF); //--turn on SSD1306 panel
 8002918:	0021      	movs	r1, r4
 800291a:	22af      	movs	r2, #175	; 0xaf
 800291c:	2078      	movs	r0, #120	; 0x78
 800291e:	f7ff ff2f 	bl	8002780 <ssd1306_I2C_Write>
	SSD1306_WRITECOMMAND(SSD1306_DEACTIVATE_SCROLL);
 8002922:	0021      	movs	r1, r4
 8002924:	222e      	movs	r2, #46	; 0x2e
 8002926:	2078      	movs	r0, #120	; 0x78
 8002928:	f7ff ff2a 	bl	8002780 <ssd1306_I2C_Write>
	SSD1306_Fill(SSD1306_COLOR_BLACK);
 800292c:	0020      	movs	r0, r4
 800292e:	f7ff fdbf 	bl	80024b0 <SSD1306_Fill>
	SSD1306_UpdateScreen();
 8002932:	f7ff ff35 	bl	80027a0 <SSD1306_UpdateScreen>
	SSD1306.CurrentX = 0;
 8002936:	4b05      	ldr	r3, [pc, #20]	; (800294c <SSD1306_Init+0x158>)
 8002938:	801c      	strh	r4, [r3, #0]
	SSD1306.CurrentY = 0;
 800293a:	805c      	strh	r4, [r3, #2]
	SSD1306.Initialized = 1;
 800293c:	3401      	adds	r4, #1
 800293e:	715c      	strb	r4, [r3, #5]
}
 8002940:	0020      	movs	r0, r4
 8002942:	bd10      	pop	{r4, pc}
 8002944:	00004e20 	.word	0x00004e20
 8002948:	20000508 	.word	0x20000508
 800294c:	200008d0 	.word	0x200008d0

08002950 <eepWriteData>:
 */
#include "stm32l0xx_EEPROM.h"
#include "stm32l052xx.h"

void eepWriteData(uint16_t addr, uint8_t inData)
{
 8002950:	b570      	push	{r4, r5, r6, lr}
 8002952:	000d      	movs	r5, r1
 8002954:	0004      	movs	r4, r0
	HAL_FLASHEx_DATAEEPROM_Unlock();
 8002956:	f000 fd4f 	bl	80033f8 <HAL_FLASHEx_DATAEEPROM_Unlock>
	HAL_FLASHEx_DATAEEPROM_Program(TYPEPROGRAMDATA_BYTE,(DATA_EEPROM_BASE+addr),inData);
 800295a:	4b04      	ldr	r3, [pc, #16]	; (800296c <eepWriteData+0x1c>)
 800295c:	002a      	movs	r2, r5
 800295e:	18e1      	adds	r1, r4, r3
 8002960:	2000      	movs	r0, #0
 8002962:	f000 fd6b 	bl	800343c <HAL_FLASHEx_DATAEEPROM_Program>
	HAL_FLASHEx_DATAEEPROM_Lock();
 8002966:	f000 fd5f 	bl	8003428 <HAL_FLASHEx_DATAEEPROM_Lock>
}
 800296a:	bd70      	pop	{r4, r5, r6, pc}
 800296c:	08080000 	.word	0x08080000

08002970 <eepReadData>:
uint8_t eepReadData(uint16_t addr)
{
	//return (*(__IO uint32_t *)(EEP_START_ADRESS+addr));
	return (*(__IO uint8_t*)(DATA_EEPROM_BASE+addr));
 8002970:	4b02      	ldr	r3, [pc, #8]	; (800297c <eepReadData+0xc>)
 8002972:	18c0      	adds	r0, r0, r3
 8002974:	7800      	ldrb	r0, [r0, #0]
 8002976:	b2c0      	uxtb	r0, r0
}
 8002978:	4770      	bx	lr
 800297a:	46c0      	nop			; (mov r8, r8)
 800297c:	08080000 	.word	0x08080000

08002980 <HAL_MspInit>:
{
  /* USER CODE BEGIN MspInit 0 */

  /* USER CODE END MspInit 0 */

  __HAL_RCC_SYSCFG_CLK_ENABLE();
 8002980:	2201      	movs	r2, #1
 8002982:	4b05      	ldr	r3, [pc, #20]	; (8002998 <HAL_MspInit+0x18>)
 8002984:	6b59      	ldr	r1, [r3, #52]	; 0x34
 8002986:	430a      	orrs	r2, r1
 8002988:	635a      	str	r2, [r3, #52]	; 0x34
  __HAL_RCC_PWR_CLK_ENABLE();
 800298a:	2280      	movs	r2, #128	; 0x80
 800298c:	6b99      	ldr	r1, [r3, #56]	; 0x38
 800298e:	0552      	lsls	r2, r2, #21
 8002990:	430a      	orrs	r2, r1
 8002992:	639a      	str	r2, [r3, #56]	; 0x38
  /* System interrupt init*/

  /* USER CODE BEGIN MspInit 1 */

  /* USER CODE END MspInit 1 */
}
 8002994:	4770      	bx	lr
 8002996:	46c0      	nop			; (mov r8, r8)
 8002998:	40021000 	.word	0x40021000

0800299c <HAL_ADC_MspInit>:
* This function configures the hardware resources used in this example
* @param hadc: ADC handle pointer
* @retval None
*/
void HAL_ADC_MspInit(ADC_HandleTypeDef* hadc)
{
 800299c:	b510      	push	{r4, lr}
 800299e:	0004      	movs	r4, r0
 80029a0:	b086      	sub	sp, #24
  GPIO_InitTypeDef GPIO_InitStruct = {0};
 80029a2:	2214      	movs	r2, #20
 80029a4:	2100      	movs	r1, #0
 80029a6:	a801      	add	r0, sp, #4
 80029a8:	f002 fa14 	bl	8004dd4 <memset>
  if(hadc->Instance==ADC1)
 80029ac:	4b0d      	ldr	r3, [pc, #52]	; (80029e4 <HAL_ADC_MspInit+0x48>)
 80029ae:	6822      	ldr	r2, [r4, #0]
 80029b0:	429a      	cmp	r2, r3
 80029b2:	d115      	bne.n	80029e0 <HAL_ADC_MspInit+0x44>
  {
  /* USER CODE BEGIN ADC1_MspInit 0 */

  /* USER CODE END ADC1_MspInit 0 */
    /* Peripheral clock enable */
    __HAL_RCC_ADC1_CLK_ENABLE();
 80029b4:	2280      	movs	r2, #128	; 0x80
 80029b6:	4b0c      	ldr	r3, [pc, #48]	; (80029e8 <HAL_ADC_MspInit+0x4c>)
 80029b8:	0092      	lsls	r2, r2, #2
 80029ba:	6b59      	ldr	r1, [r3, #52]	; 0x34
    PA1     ------> ADC_IN1
    */
    GPIO_InitStruct.Pin = JOY_X_Pin|JOY_Y_Pin;
    GPIO_InitStruct.Mode = GPIO_MODE_ANALOG;
    GPIO_InitStruct.Pull = GPIO_NOPULL;
    HAL_GPIO_Init(GPIOA, &GPIO_InitStruct);
 80029bc:	20a0      	movs	r0, #160	; 0xa0
    __HAL_RCC_ADC1_CLK_ENABLE();
 80029be:	430a      	orrs	r2, r1
    __HAL_RCC_GPIOA_CLK_ENABLE();
 80029c0:	2101      	movs	r1, #1
    __HAL_RCC_ADC1_CLK_ENABLE();
 80029c2:	635a      	str	r2, [r3, #52]	; 0x34
    __HAL_RCC_GPIOA_CLK_ENABLE();
 80029c4:	6ada      	ldr	r2, [r3, #44]	; 0x2c
    HAL_GPIO_Init(GPIOA, &GPIO_InitStruct);
 80029c6:	05c0      	lsls	r0, r0, #23
    __HAL_RCC_GPIOA_CLK_ENABLE();
 80029c8:	430a      	orrs	r2, r1
 80029ca:	62da      	str	r2, [r3, #44]	; 0x2c
 80029cc:	6adb      	ldr	r3, [r3, #44]	; 0x2c
 80029ce:	400b      	ands	r3, r1
 80029d0:	9300      	str	r3, [sp, #0]
 80029d2:	9b00      	ldr	r3, [sp, #0]
    GPIO_InitStruct.Pin = JOY_X_Pin|JOY_Y_Pin;
 80029d4:	2303      	movs	r3, #3
    HAL_GPIO_Init(GPIOA, &GPIO_InitStruct);
 80029d6:	a901      	add	r1, sp, #4
    GPIO_InitStruct.Pin = JOY_X_Pin|JOY_Y_Pin;
 80029d8:	9301      	str	r3, [sp, #4]
    GPIO_InitStruct.Mode = GPIO_MODE_ANALOG;
 80029da:	9302      	str	r3, [sp, #8]
    HAL_GPIO_Init(GPIOA, &GPIO_InitStruct);
 80029dc:	f000 fd58 	bl	8003490 <HAL_GPIO_Init>
  /* USER CODE BEGIN ADC1_MspInit 1 */

  /* USER CODE END ADC1_MspInit 1 */
  }

}
 80029e0:	b006      	add	sp, #24
 80029e2:	bd10      	pop	{r4, pc}
 80029e4:	40012400 	.word	0x40012400
 80029e8:	40021000 	.word	0x40021000

080029ec <HAL_I2C_MspInit>:
* This function configures the hardware resources used in this example
* @param hi2c: I2C handle pointer
* @retval None
*/
void HAL_I2C_MspInit(I2C_HandleTypeDef* hi2c)
{
 80029ec:	b510      	push	{r4, lr}
 80029ee:	0004      	movs	r4, r0
 80029f0:	b086      	sub	sp, #24
  GPIO_InitTypeDef GPIO_InitStruct = {0};
 80029f2:	2214      	movs	r2, #20
 80029f4:	2100      	movs	r1, #0
 80029f6:	a801      	add	r0, sp, #4
 80029f8:	f002 f9ec 	bl	8004dd4 <memset>
  if(hi2c->Instance==I2C1)
 80029fc:	4b0f      	ldr	r3, [pc, #60]	; (8002a3c <HAL_I2C_MspInit+0x50>)
 80029fe:	6822      	ldr	r2, [r4, #0]
 8002a00:	429a      	cmp	r2, r3
 8002a02:	d119      	bne.n	8002a38 <HAL_I2C_MspInit+0x4c>
  {
  /* USER CODE BEGIN I2C1_MspInit 0 */

  /* USER CODE END I2C1_MspInit 0 */

    __HAL_RCC_GPIOB_CLK_ENABLE();
 8002a04:	2102      	movs	r1, #2
 8002a06:	4c0e      	ldr	r4, [pc, #56]	; (8002a40 <HAL_I2C_MspInit+0x54>)
    GPIO_InitStruct.Pin = GPIO_PIN_6|GPIO_PIN_7;
    GPIO_InitStruct.Mode = GPIO_MODE_AF_OD;
    GPIO_InitStruct.Pull = GPIO_NOPULL;
    GPIO_InitStruct.Speed = GPIO_SPEED_FREQ_VERY_HIGH;
    GPIO_InitStruct.Alternate = GPIO_AF1_I2C1;
    HAL_GPIO_Init(GPIOB, &GPIO_InitStruct);
 8002a08:	480e      	ldr	r0, [pc, #56]	; (8002a44 <HAL_I2C_MspInit+0x58>)
    __HAL_RCC_GPIOB_CLK_ENABLE();
 8002a0a:	6ae2      	ldr	r2, [r4, #44]	; 0x2c
 8002a0c:	430a      	orrs	r2, r1
 8002a0e:	62e2      	str	r2, [r4, #44]	; 0x2c
 8002a10:	6ae3      	ldr	r3, [r4, #44]	; 0x2c
 8002a12:	400b      	ands	r3, r1
 8002a14:	9300      	str	r3, [sp, #0]
 8002a16:	9b00      	ldr	r3, [sp, #0]
    GPIO_InitStruct.Pin = GPIO_PIN_6|GPIO_PIN_7;
 8002a18:	23c0      	movs	r3, #192	; 0xc0
 8002a1a:	9301      	str	r3, [sp, #4]
    GPIO_InitStruct.Mode = GPIO_MODE_AF_OD;
 8002a1c:	3bae      	subs	r3, #174	; 0xae
 8002a1e:	9302      	str	r3, [sp, #8]
    GPIO_InitStruct.Speed = GPIO_SPEED_FREQ_VERY_HIGH;
 8002a20:	3b0f      	subs	r3, #15
 8002a22:	9304      	str	r3, [sp, #16]
    HAL_GPIO_Init(GPIOB, &GPIO_InitStruct);
 8002a24:	a901      	add	r1, sp, #4
    GPIO_InitStruct.Alternate = GPIO_AF1_I2C1;
 8002a26:	3b02      	subs	r3, #2
 8002a28:	9305      	str	r3, [sp, #20]
    HAL_GPIO_Init(GPIOB, &GPIO_InitStruct);
 8002a2a:	f000 fd31 	bl	8003490 <HAL_GPIO_Init>

    /* Peripheral clock enable */
    __HAL_RCC_I2C1_CLK_ENABLE();
 8002a2e:	2380      	movs	r3, #128	; 0x80
 8002a30:	6ba2      	ldr	r2, [r4, #56]	; 0x38
 8002a32:	039b      	lsls	r3, r3, #14
 8002a34:	4313      	orrs	r3, r2
 8002a36:	63a3      	str	r3, [r4, #56]	; 0x38
  /* USER CODE BEGIN I2C1_MspInit 1 */

  /* USER CODE END I2C1_MspInit 1 */
  }

}
 8002a38:	b006      	add	sp, #24
 8002a3a:	bd10      	pop	{r4, pc}
 8002a3c:	40005400 	.word	0x40005400
 8002a40:	40021000 	.word	0x40021000
 8002a44:	50000400 	.word	0x50000400

08002a48 <HAL_SPI_MspInit>:
* This function configures the hardware resources used in this example
* @param hspi: SPI handle pointer
* @retval None
*/
void HAL_SPI_MspInit(SPI_HandleTypeDef* hspi)
{
 8002a48:	b570      	push	{r4, r5, r6, lr}
 8002a4a:	0005      	movs	r5, r0
 8002a4c:	b086      	sub	sp, #24
  GPIO_InitTypeDef GPIO_InitStruct = {0};
 8002a4e:	2214      	movs	r2, #20
 8002a50:	2100      	movs	r1, #0
 8002a52:	a801      	add	r0, sp, #4
 8002a54:	f002 f9be 	bl	8004dd4 <memset>
  if(hspi->Instance==SPI1)
 8002a58:	4b1a      	ldr	r3, [pc, #104]	; (8002ac4 <HAL_SPI_MspInit+0x7c>)
 8002a5a:	682a      	ldr	r2, [r5, #0]
 8002a5c:	429a      	cmp	r2, r3
 8002a5e:	d12f      	bne.n	8002ac0 <HAL_SPI_MspInit+0x78>
  {
  /* USER CODE BEGIN SPI1_MspInit 0 */

  /* USER CODE END SPI1_MspInit 0 */
    /* Peripheral clock enable */
    __HAL_RCC_SPI1_CLK_ENABLE();
 8002a60:	2280      	movs	r2, #128	; 0x80

    __HAL_RCC_GPIOA_CLK_ENABLE();
 8002a62:	2601      	movs	r6, #1
    __HAL_RCC_SPI1_CLK_ENABLE();
 8002a64:	4b18      	ldr	r3, [pc, #96]	; (8002ac8 <HAL_SPI_MspInit+0x80>)
 8002a66:	0152      	lsls	r2, r2, #5
 8002a68:	6b59      	ldr	r1, [r3, #52]	; 0x34
    GPIO_InitStruct.Pin = GPIO_PIN_5|GPIO_PIN_7;
    GPIO_InitStruct.Mode = GPIO_MODE_AF_PP;
    GPIO_InitStruct.Pull = GPIO_NOPULL;
    GPIO_InitStruct.Speed = GPIO_SPEED_FREQ_VERY_HIGH;
    GPIO_InitStruct.Alternate = GPIO_AF0_SPI1;
    HAL_GPIO_Init(GPIOA, &GPIO_InitStruct);
 8002a6a:	20a0      	movs	r0, #160	; 0xa0
    __HAL_RCC_SPI1_CLK_ENABLE();
 8002a6c:	430a      	orrs	r2, r1
 8002a6e:	635a      	str	r2, [r3, #52]	; 0x34
    __HAL_RCC_GPIOA_CLK_ENABLE();
 8002a70:	6ada      	ldr	r2, [r3, #44]	; 0x2c
    HAL_GPIO_Init(GPIOA, &GPIO_InitStruct);
 8002a72:	05c0      	lsls	r0, r0, #23
    __HAL_RCC_GPIOA_CLK_ENABLE();
 8002a74:	4332      	orrs	r2, r6
 8002a76:	62da      	str	r2, [r3, #44]	; 0x2c
 8002a78:	6adb      	ldr	r3, [r3, #44]	; 0x2c
    HAL_GPIO_Init(GPIOA, &GPIO_InitStruct);
 8002a7a:	a901      	add	r1, sp, #4
    __HAL_RCC_GPIOA_CLK_ENABLE();
 8002a7c:	4033      	ands	r3, r6
 8002a7e:	9300      	str	r3, [sp, #0]
 8002a80:	9b00      	ldr	r3, [sp, #0]
    GPIO_InitStruct.Pin = GPIO_PIN_5|GPIO_PIN_7;
 8002a82:	23a0      	movs	r3, #160	; 0xa0
 8002a84:	9301      	str	r3, [sp, #4]
    GPIO_InitStruct.Mode = GPIO_MODE_AF_PP;
 8002a86:	3b9e      	subs	r3, #158	; 0x9e
 8002a88:	9302      	str	r3, [sp, #8]
    GPIO_InitStruct.Speed = GPIO_SPEED_FREQ_VERY_HIGH;
 8002a8a:	199b      	adds	r3, r3, r6
 8002a8c:	9304      	str	r3, [sp, #16]
    HAL_GPIO_Init(GPIOA, &GPIO_InitStruct);
 8002a8e:	f000 fcff 	bl	8003490 <HAL_GPIO_Init>

    /* SPI1 DMA Init */
    /* SPI1_TX Init */
    hdma_spi1_tx.Instance = DMA1_Channel3;
 8002a92:	4c0e      	ldr	r4, [pc, #56]	; (8002acc <HAL_SPI_MspInit+0x84>)
 8002a94:	4b0e      	ldr	r3, [pc, #56]	; (8002ad0 <HAL_SPI_MspInit+0x88>)
    hdma_spi1_tx.Init.Request = DMA_REQUEST_1;
    hdma_spi1_tx.Init.Direction = DMA_MEMORY_TO_PERIPH;
    hdma_spi1_tx.Init.PeriphInc = DMA_PINC_DISABLE;
    hdma_spi1_tx.Init.MemInc = DMA_MINC_ENABLE;
 8002a96:	2280      	movs	r2, #128	; 0x80
    hdma_spi1_tx.Instance = DMA1_Channel3;
 8002a98:	6023      	str	r3, [r4, #0]
    hdma_spi1_tx.Init.Direction = DMA_MEMORY_TO_PERIPH;
 8002a9a:	2310      	movs	r3, #16
 8002a9c:	60a3      	str	r3, [r4, #8]
    hdma_spi1_tx.Init.PeriphInc = DMA_PINC_DISABLE;
 8002a9e:	2300      	movs	r3, #0
    hdma_spi1_tx.Init.PeriphDataAlignment = DMA_PDATAALIGN_BYTE;
    hdma_spi1_tx.Init.MemDataAlignment = DMA_MDATAALIGN_BYTE;
    hdma_spi1_tx.Init.Mode = DMA_NORMAL;
    hdma_spi1_tx.Init.Priority = DMA_PRIORITY_LOW;
    if (HAL_DMA_Init(&hdma_spi1_tx) != HAL_OK)
 8002aa0:	0020      	movs	r0, r4
    hdma_spi1_tx.Init.Request = DMA_REQUEST_1;
 8002aa2:	6066      	str	r6, [r4, #4]
    hdma_spi1_tx.Init.PeriphInc = DMA_PINC_DISABLE;
 8002aa4:	60e3      	str	r3, [r4, #12]
    hdma_spi1_tx.Init.MemInc = DMA_MINC_ENABLE;
 8002aa6:	6122      	str	r2, [r4, #16]
    hdma_spi1_tx.Init.PeriphDataAlignment = DMA_PDATAALIGN_BYTE;
 8002aa8:	6163      	str	r3, [r4, #20]
    hdma_spi1_tx.Init.MemDataAlignment = DMA_MDATAALIGN_BYTE;
 8002aaa:	61a3      	str	r3, [r4, #24]
    hdma_spi1_tx.Init.Mode = DMA_NORMAL;
 8002aac:	61e3      	str	r3, [r4, #28]
    hdma_spi1_tx.Init.Priority = DMA_PRIORITY_LOW;
 8002aae:	6223      	str	r3, [r4, #32]
    if (HAL_DMA_Init(&hdma_spi1_tx) != HAL_OK)
 8002ab0:	f000 fb42 	bl	8003138 <HAL_DMA_Init>
 8002ab4:	2800      	cmp	r0, #0
 8002ab6:	d001      	beq.n	8002abc <HAL_SPI_MspInit+0x74>
    {
      Error_Handler();
 8002ab8:	f7ff fcf8 	bl	80024ac <Error_Handler>
    }

    __HAL_LINKDMA(hspi,hdmatx,hdma_spi1_tx);
 8002abc:	64ac      	str	r4, [r5, #72]	; 0x48
 8002abe:	62a5      	str	r5, [r4, #40]	; 0x28
  /* USER CODE BEGIN SPI1_MspInit 1 */

  /* USER CODE END SPI1_MspInit 1 */
  }

}
 8002ac0:	b006      	add	sp, #24
 8002ac2:	bd70      	pop	{r4, r5, r6, pc}
 8002ac4:	40013000 	.word	0x40013000
 8002ac8:	40021000 	.word	0x40021000
 8002acc:	200004c0 	.word	0x200004c0
 8002ad0:	40020030 	.word	0x40020030

08002ad4 <HAL_TIM_Base_MspInit>:
* @param htim_base: TIM_Base handle pointer
* @retval None
*/
void HAL_TIM_Base_MspInit(TIM_HandleTypeDef* htim_base)
{
  if(htim_base->Instance==TIM2)
 8002ad4:	2380      	movs	r3, #128	; 0x80
 8002ad6:	6802      	ldr	r2, [r0, #0]
 8002ad8:	05db      	lsls	r3, r3, #23
 8002ada:	429a      	cmp	r2, r3
 8002adc:	d104      	bne.n	8002ae8 <HAL_TIM_Base_MspInit+0x14>
  {
  /* USER CODE BEGIN TIM2_MspInit 0 */

  /* USER CODE END TIM2_MspInit 0 */
    /* Peripheral clock enable */
    __HAL_RCC_TIM2_CLK_ENABLE();
 8002ade:	2301      	movs	r3, #1
 8002ae0:	4a02      	ldr	r2, [pc, #8]	; (8002aec <HAL_TIM_Base_MspInit+0x18>)
 8002ae2:	6b91      	ldr	r1, [r2, #56]	; 0x38
 8002ae4:	430b      	orrs	r3, r1
 8002ae6:	6393      	str	r3, [r2, #56]	; 0x38
  /* USER CODE BEGIN TIM2_MspInit 1 */

  /* USER CODE END TIM2_MspInit 1 */
  }

}
 8002ae8:	4770      	bx	lr
 8002aea:	46c0      	nop			; (mov r8, r8)
 8002aec:	40021000 	.word	0x40021000

08002af0 <NMI_Handler>:
{
  /* USER CODE BEGIN NonMaskableInt_IRQn 0 */

  /* USER CODE END NonMaskableInt_IRQn 0 */
  /* USER CODE BEGIN NonMaskableInt_IRQn 1 */
  while (1)
 8002af0:	e7fe      	b.n	8002af0 <NMI_Handler>

08002af2 <HardFault_Handler>:
void HardFault_Handler(void)
{
  /* USER CODE BEGIN HardFault_IRQn 0 */

  /* USER CODE END HardFault_IRQn 0 */
  while (1)
 8002af2:	e7fe      	b.n	8002af2 <HardFault_Handler>

08002af4 <SVC_Handler>:

  /* USER CODE END SVC_IRQn 0 */
  /* USER CODE BEGIN SVC_IRQn 1 */

  /* USER CODE END SVC_IRQn 1 */
}
 8002af4:	4770      	bx	lr

08002af6 <PendSV_Handler>:
 8002af6:	4770      	bx	lr

08002af8 <SysTick_Handler>:

/**
  * @brief This function handles System tick timer.
  */
void SysTick_Handler(void)
{
 8002af8:	b510      	push	{r4, lr}
  /* USER CODE BEGIN SysTick_IRQn 0 */

  /* USER CODE END SysTick_IRQn 0 */
  HAL_IncTick();
 8002afa:	f000 f895 	bl	8002c28 <HAL_IncTick>
  /* USER CODE BEGIN SysTick_IRQn 1 */

  /* USER CODE END SysTick_IRQn 1 */
}
 8002afe:	bd10      	pop	{r4, pc}

08002b00 <DMA1_Channel2_3_IRQHandler>:

/**
  * @brief This function handles DMA1 channel 2 and channel 3 interrupts.
  */
void DMA1_Channel2_3_IRQHandler(void)
{
 8002b00:	b510      	push	{r4, lr}
  /* USER CODE BEGIN DMA1_Channel2_3_IRQn 0 */

  /* USER CODE END DMA1_Channel2_3_IRQn 0 */
  HAL_DMA_IRQHandler(&hdma_spi1_tx);
 8002b02:	4802      	ldr	r0, [pc, #8]	; (8002b0c <DMA1_Channel2_3_IRQHandler+0xc>)
 8002b04:	f000 fb9c 	bl	8003240 <HAL_DMA_IRQHandler>
  /* USER CODE BEGIN DMA1_Channel2_3_IRQn 1 */

  /* USER CODE END DMA1_Channel2_3_IRQn 1 */
}
 8002b08:	bd10      	pop	{r4, pc}
 8002b0a:	46c0      	nop			; (mov r8, r8)
 8002b0c:	200004c0 	.word	0x200004c0

08002b10 <TIM2_IRQHandler>:

/**
  * @brief This function handles TIM2 global interrupt.
  */
void TIM2_IRQHandler(void)
{
 8002b10:	b510      	push	{r4, lr}
  /* USER CODE BEGIN TIM2_IRQn 0 */

  /* USER CODE END TIM2_IRQn 0 */
  HAL_TIM_IRQHandler(&htim2);
 8002b12:	4802      	ldr	r0, [pc, #8]	; (8002b1c <TIM2_IRQHandler+0xc>)
 8002b14:	f002 f850 	bl	8004bb8 <HAL_TIM_IRQHandler>
  /* USER CODE BEGIN TIM2_IRQn 1 */

  /* USER CODE END TIM2_IRQn 1 */
}
 8002b18:	bd10      	pop	{r4, pc}
 8002b1a:	46c0      	nop			; (mov r8, r8)
 8002b1c:	200005ac 	.word	0x200005ac

08002b20 <_sbrk>:
void *_sbrk(ptrdiff_t incr)
{
  extern uint8_t _end; /* Symbol defined in the linker script */
  extern uint8_t _estack; /* Symbol defined in the linker script */
  extern uint32_t _Min_Stack_Size; /* Symbol defined in the linker script */
  const uint32_t stack_limit = (uint32_t)&_estack - (uint32_t)&_Min_Stack_Size;
 8002b20:	4a0b      	ldr	r2, [pc, #44]	; (8002b50 <_sbrk+0x30>)
 8002b22:	490c      	ldr	r1, [pc, #48]	; (8002b54 <_sbrk+0x34>)
{
 8002b24:	0003      	movs	r3, r0
  const uint32_t stack_limit = (uint32_t)&_estack - (uint32_t)&_Min_Stack_Size;
 8002b26:	1a89      	subs	r1, r1, r2
  const uint8_t *max_heap = (uint8_t *)stack_limit;
  uint8_t *prev_heap_end;

  /* Initialize heap end at first call */
  if (NULL == __sbrk_heap_end)
 8002b28:	4a0b      	ldr	r2, [pc, #44]	; (8002b58 <_sbrk+0x38>)
{
 8002b2a:	b510      	push	{r4, lr}
  if (NULL == __sbrk_heap_end)
 8002b2c:	6810      	ldr	r0, [r2, #0]
 8002b2e:	2800      	cmp	r0, #0
 8002b30:	d101      	bne.n	8002b36 <_sbrk+0x16>
  {
    __sbrk_heap_end = &_end;
 8002b32:	480a      	ldr	r0, [pc, #40]	; (8002b5c <_sbrk+0x3c>)
 8002b34:	6010      	str	r0, [r2, #0]
  }

  /* Protect heap from growing into the reserved MSP stack */
  if (__sbrk_heap_end + incr > max_heap)
 8002b36:	6810      	ldr	r0, [r2, #0]
 8002b38:	18c3      	adds	r3, r0, r3
 8002b3a:	428b      	cmp	r3, r1
 8002b3c:	d906      	bls.n	8002b4c <_sbrk+0x2c>
  {
    errno = ENOMEM;
 8002b3e:	f002 f8f9 	bl	8004d34 <__errno>
 8002b42:	230c      	movs	r3, #12
 8002b44:	6003      	str	r3, [r0, #0]
    return (void *)-1;
 8002b46:	2001      	movs	r0, #1
 8002b48:	4240      	negs	r0, r0

  prev_heap_end = __sbrk_heap_end;
  __sbrk_heap_end += incr;

  return (void *)prev_heap_end;
}
 8002b4a:	bd10      	pop	{r4, pc}
  __sbrk_heap_end += incr;
 8002b4c:	6013      	str	r3, [r2, #0]
  return (void *)prev_heap_end;
 8002b4e:	e7fc      	b.n	8002b4a <_sbrk+0x2a>
 8002b50:	00000400 	.word	0x00000400
 8002b54:	20002000 	.word	0x20002000
 8002b58:	20000cd8 	.word	0x20000cd8
 8002b5c:	20000d08 	.word	0x20000d08

08002b60 <SystemInit>:
{
  /* Configure the Vector Table location add offset address ------------------*/
#if defined (USER_VECT_TAB_ADDRESS)
  SCB->VTOR = VECT_TAB_BASE_ADDRESS | VECT_TAB_OFFSET; /* Vector Table Relocation in Internal SRAM */
#endif /* USER_VECT_TAB_ADDRESS */
}
 8002b60:	4770      	bx	lr
	...

08002b64 <Reset_Handler>:

    .section  .text.Reset_Handler
  .weak  Reset_Handler
  .type  Reset_Handler, %function
Reset_Handler:  
   ldr   r0, =_estack
 8002b64:	480d      	ldr	r0, [pc, #52]	; (8002b9c <LoopForever+0x2>)
   mov   sp, r0          /* set stack pointer */
 8002b66:	4685      	mov	sp, r0

/* Copy the data segment initializers from flash to SRAM */
  ldr r0, =_sdata
 8002b68:	480d      	ldr	r0, [pc, #52]	; (8002ba0 <LoopForever+0x6>)
  ldr r1, =_edata
 8002b6a:	490e      	ldr	r1, [pc, #56]	; (8002ba4 <LoopForever+0xa>)
  ldr r2, =_sidata
 8002b6c:	4a0e      	ldr	r2, [pc, #56]	; (8002ba8 <LoopForever+0xe>)
  movs r3, #0
 8002b6e:	2300      	movs	r3, #0
  b LoopCopyDataInit
 8002b70:	e002      	b.n	8002b78 <LoopCopyDataInit>

08002b72 <CopyDataInit>:

CopyDataInit:
  ldr r4, [r2, r3]
 8002b72:	58d4      	ldr	r4, [r2, r3]
  str r4, [r0, r3]
 8002b74:	50c4      	str	r4, [r0, r3]
  adds r3, r3, #4
 8002b76:	3304      	adds	r3, #4

08002b78 <LoopCopyDataInit>:

LoopCopyDataInit:
  adds r4, r0, r3
 8002b78:	18c4      	adds	r4, r0, r3
  cmp r4, r1
 8002b7a:	428c      	cmp	r4, r1
  bcc CopyDataInit
 8002b7c:	d3f9      	bcc.n	8002b72 <CopyDataInit>
  
/* Zero fill the bss segment. */
  ldr r2, =_sbss
 8002b7e:	4a0b      	ldr	r2, [pc, #44]	; (8002bac <LoopForever+0x12>)
  ldr r4, =_ebss
 8002b80:	4c0b      	ldr	r4, [pc, #44]	; (8002bb0 <LoopForever+0x16>)
  movs r3, #0
 8002b82:	2300      	movs	r3, #0
  b LoopFillZerobss
 8002b84:	e001      	b.n	8002b8a <LoopFillZerobss>

08002b86 <FillZerobss>:

FillZerobss:
  str  r3, [r2]
 8002b86:	6013      	str	r3, [r2, #0]
  adds r2, r2, #4
 8002b88:	3204      	adds	r2, #4

08002b8a <LoopFillZerobss>:

LoopFillZerobss:
  cmp r2, r4
 8002b8a:	42a2      	cmp	r2, r4
  bcc FillZerobss
 8002b8c:	d3fb      	bcc.n	8002b86 <FillZerobss>

/* Call the clock system intitialization function.*/
  bl  SystemInit
 8002b8e:	f7ff ffe7 	bl	8002b60 <SystemInit>
/* Call static constructors */
    bl __libc_init_array
 8002b92:	f002 f8d5 	bl	8004d40 <__libc_init_array>
/* Call the application's entry point.*/
  bl  main
 8002b96:	f7ff fac1 	bl	800211c <main>

08002b9a <LoopForever>:

LoopForever:
    b LoopForever
 8002b9a:	e7fe      	b.n	8002b9a <LoopForever>
   ldr   r0, =_estack
 8002b9c:	20002000 	.word	0x20002000
  ldr r0, =_sdata
 8002ba0:	20000000 	.word	0x20000000
  ldr r1, =_edata
 8002ba4:	200000b0 	.word	0x200000b0
  ldr r2, =_sidata
 8002ba8:	0800639c 	.word	0x0800639c
  ldr r2, =_sbss
 8002bac:	200000b0 	.word	0x200000b0
  ldr r4, =_ebss
 8002bb0:	20000d08 	.word	0x20000d08

08002bb4 <ADC1_COMP_IRQHandler>:
 * @retval : None
*/
    .section  .text.Default_Handler,"ax",%progbits
Default_Handler:
Infinite_Loop:
  b  Infinite_Loop
 8002bb4:	e7fe      	b.n	8002bb4 <ADC1_COMP_IRQHandler>
	...

08002bb8 <HAL_InitTick>:
  *       implementation  in user file.
  * @param TickPriority Tick interrupt priority.
  * @retval HAL status
  */
__weak HAL_StatusTypeDef HAL_InitTick(uint32_t TickPriority)
{
 8002bb8:	b570      	push	{r4, r5, r6, lr}
 8002bba:	0005      	movs	r5, r0
  /* Configure the SysTick to have interrupt in 1ms time basis*/
  if (HAL_SYSTICK_Config(SystemCoreClock / (1000U / uwTickFreq)) > 0U)
 8002bbc:	20fa      	movs	r0, #250	; 0xfa
 8002bbe:	4b0d      	ldr	r3, [pc, #52]	; (8002bf4 <HAL_InitTick+0x3c>)
 8002bc0:	0080      	lsls	r0, r0, #2
 8002bc2:	7819      	ldrb	r1, [r3, #0]
 8002bc4:	f7fd fabe 	bl	8000144 <__udivsi3>
 8002bc8:	4b0b      	ldr	r3, [pc, #44]	; (8002bf8 <HAL_InitTick+0x40>)
 8002bca:	0001      	movs	r1, r0
 8002bcc:	6818      	ldr	r0, [r3, #0]
 8002bce:	f7fd fab9 	bl	8000144 <__udivsi3>
 8002bd2:	f000 fa97 	bl	8003104 <HAL_SYSTICK_Config>
 8002bd6:	0004      	movs	r4, r0
  {
    return HAL_ERROR;
 8002bd8:	2001      	movs	r0, #1
  if (HAL_SYSTICK_Config(SystemCoreClock / (1000U / uwTickFreq)) > 0U)
 8002bda:	2c00      	cmp	r4, #0
 8002bdc:	d109      	bne.n	8002bf2 <HAL_InitTick+0x3a>
  }

  /* Configure the SysTick IRQ priority */
  if (TickPriority < (1UL << __NVIC_PRIO_BITS))
 8002bde:	2d03      	cmp	r5, #3
 8002be0:	d807      	bhi.n	8002bf2 <HAL_InitTick+0x3a>
  {
    HAL_NVIC_SetPriority(SysTick_IRQn, TickPriority, 0U);
 8002be2:	3802      	subs	r0, #2
 8002be4:	0022      	movs	r2, r4
 8002be6:	0029      	movs	r1, r5
 8002be8:	f000 fa56 	bl	8003098 <HAL_NVIC_SetPriority>
    uwTickPrio = TickPriority;
 8002bec:	0020      	movs	r0, r4
 8002bee:	4b03      	ldr	r3, [pc, #12]	; (8002bfc <HAL_InitTick+0x44>)
 8002bf0:	601d      	str	r5, [r3, #0]
    return HAL_ERROR;
  }

  /* Return function status */
  return HAL_OK;
}
 8002bf2:	bd70      	pop	{r4, r5, r6, pc}
 8002bf4:	20000044 	.word	0x20000044
 8002bf8:	20000040 	.word	0x20000040
 8002bfc:	20000048 	.word	0x20000048

08002c00 <HAL_Init>:
  __HAL_FLASH_PREREAD_BUFFER_ENABLE();
 8002c00:	2340      	movs	r3, #64	; 0x40
 8002c02:	4a08      	ldr	r2, [pc, #32]	; (8002c24 <HAL_Init+0x24>)
{
 8002c04:	b510      	push	{r4, lr}
  __HAL_FLASH_PREREAD_BUFFER_ENABLE();
 8002c06:	6811      	ldr	r1, [r2, #0]
  if (HAL_InitTick(TICK_INT_PRIORITY) != HAL_OK)
 8002c08:	2003      	movs	r0, #3
  __HAL_FLASH_PREREAD_BUFFER_ENABLE();
 8002c0a:	430b      	orrs	r3, r1
 8002c0c:	6013      	str	r3, [r2, #0]
  if (HAL_InitTick(TICK_INT_PRIORITY) != HAL_OK)
 8002c0e:	f7ff ffd3 	bl	8002bb8 <HAL_InitTick>
 8002c12:	1e04      	subs	r4, r0, #0
 8002c14:	d103      	bne.n	8002c1e <HAL_Init+0x1e>
    HAL_MspInit();
 8002c16:	f7ff feb3 	bl	8002980 <HAL_MspInit>
}
 8002c1a:	0020      	movs	r0, r4
 8002c1c:	bd10      	pop	{r4, pc}
    status = HAL_ERROR;
 8002c1e:	2401      	movs	r4, #1
 8002c20:	e7fb      	b.n	8002c1a <HAL_Init+0x1a>
 8002c22:	46c0      	nop			; (mov r8, r8)
 8002c24:	40022000 	.word	0x40022000

08002c28 <HAL_IncTick>:
  *      implementations in user file.
  * @retval None
  */
__weak void HAL_IncTick(void)
{
  uwTick += uwTickFreq;
 8002c28:	4a03      	ldr	r2, [pc, #12]	; (8002c38 <HAL_IncTick+0x10>)
 8002c2a:	4b04      	ldr	r3, [pc, #16]	; (8002c3c <HAL_IncTick+0x14>)
 8002c2c:	6811      	ldr	r1, [r2, #0]
 8002c2e:	781b      	ldrb	r3, [r3, #0]
 8002c30:	185b      	adds	r3, r3, r1
 8002c32:	6013      	str	r3, [r2, #0]
}
 8002c34:	4770      	bx	lr
 8002c36:	46c0      	nop			; (mov r8, r8)
 8002c38:	20000cdc 	.word	0x20000cdc
 8002c3c:	20000044 	.word	0x20000044

08002c40 <HAL_GetTick>:
  *       implementations in user file.
  * @retval tick value
  */
__weak uint32_t HAL_GetTick(void)
{
  return uwTick;
 8002c40:	4b01      	ldr	r3, [pc, #4]	; (8002c48 <HAL_GetTick+0x8>)
 8002c42:	6818      	ldr	r0, [r3, #0]
}
 8002c44:	4770      	bx	lr
 8002c46:	46c0      	nop			; (mov r8, r8)
 8002c48:	20000cdc 	.word	0x20000cdc

08002c4c <HAL_Delay>:
  *       implementations in user file.
  * @param Delay specifies the delay time length, in milliseconds.
  * @retval None
  */
__weak void HAL_Delay(uint32_t Delay)
{
 8002c4c:	b570      	push	{r4, r5, r6, lr}
 8002c4e:	0004      	movs	r4, r0
  uint32_t tickstart = HAL_GetTick();
 8002c50:	f7ff fff6 	bl	8002c40 <HAL_GetTick>
 8002c54:	0005      	movs	r5, r0
  uint32_t wait = Delay;

  /* Add a freq to guarantee minimum wait */
  if (wait < HAL_MAX_DELAY)
 8002c56:	1c63      	adds	r3, r4, #1
 8002c58:	d002      	beq.n	8002c60 <HAL_Delay+0x14>
  {
    wait += (uint32_t)(uwTickFreq);
 8002c5a:	4b04      	ldr	r3, [pc, #16]	; (8002c6c <HAL_Delay+0x20>)
 8002c5c:	781b      	ldrb	r3, [r3, #0]
 8002c5e:	18e4      	adds	r4, r4, r3
  }

  while((HAL_GetTick() - tickstart) < wait)
 8002c60:	f7ff ffee 	bl	8002c40 <HAL_GetTick>
 8002c64:	1b40      	subs	r0, r0, r5
 8002c66:	42a0      	cmp	r0, r4
 8002c68:	d3fa      	bcc.n	8002c60 <HAL_Delay+0x14>
  {
  }
}
 8002c6a:	bd70      	pop	{r4, r5, r6, pc}
 8002c6c:	20000044 	.word	0x20000044

08002c70 <ADC_DelayMicroSecond>:
  * @retval None
  */
static void ADC_DelayMicroSecond(uint32_t microSecond)
{
  /* Compute number of CPU cycles to wait for */
  __IO uint32_t waitLoopIndex = (microSecond * (SystemCoreClock / 1000000U));
 8002c70:	4b08      	ldr	r3, [pc, #32]	; (8002c94 <ADC_DelayMicroSecond+0x24>)
{
 8002c72:	b513      	push	{r0, r1, r4, lr}
 8002c74:	0004      	movs	r4, r0
  __IO uint32_t waitLoopIndex = (microSecond * (SystemCoreClock / 1000000U));
 8002c76:	4908      	ldr	r1, [pc, #32]	; (8002c98 <ADC_DelayMicroSecond+0x28>)
 8002c78:	6818      	ldr	r0, [r3, #0]
 8002c7a:	f7fd fa63 	bl	8000144 <__udivsi3>
 8002c7e:	4344      	muls	r4, r0
 8002c80:	9401      	str	r4, [sp, #4]

  while(waitLoopIndex != 0U)
 8002c82:	9b01      	ldr	r3, [sp, #4]
 8002c84:	2b00      	cmp	r3, #0
 8002c86:	d100      	bne.n	8002c8a <ADC_DelayMicroSecond+0x1a>
  {
    waitLoopIndex--;
  } 
}
 8002c88:	bd13      	pop	{r0, r1, r4, pc}
    waitLoopIndex--;
 8002c8a:	9b01      	ldr	r3, [sp, #4]
 8002c8c:	3b01      	subs	r3, #1
 8002c8e:	9301      	str	r3, [sp, #4]
 8002c90:	e7f7      	b.n	8002c82 <ADC_DelayMicroSecond+0x12>
 8002c92:	46c0      	nop			; (mov r8, r8)
 8002c94:	20000040 	.word	0x20000040
 8002c98:	000f4240 	.word	0x000f4240

08002c9c <ADC_Enable>:
  if (ADC_IS_ENABLE(hadc) == RESET)
 8002c9c:	2103      	movs	r1, #3
 8002c9e:	6803      	ldr	r3, [r0, #0]
{
 8002ca0:	b570      	push	{r4, r5, r6, lr}
  if (ADC_IS_ENABLE(hadc) == RESET)
 8002ca2:	689a      	ldr	r2, [r3, #8]
{
 8002ca4:	0004      	movs	r4, r0
  if (ADC_IS_ENABLE(hadc) == RESET)
 8002ca6:	400a      	ands	r2, r1
 8002ca8:	2a01      	cmp	r2, #1
 8002caa:	d104      	bne.n	8002cb6 <ADC_Enable+0x1a>
 8002cac:	6819      	ldr	r1, [r3, #0]
 8002cae:	4211      	tst	r1, r2
 8002cb0:	d001      	beq.n	8002cb6 <ADC_Enable+0x1a>
  return HAL_OK;
 8002cb2:	2000      	movs	r0, #0
}
 8002cb4:	bd70      	pop	{r4, r5, r6, pc}
    if (ADC_ENABLING_CONDITIONS(hadc) == RESET)
 8002cb6:	6899      	ldr	r1, [r3, #8]
 8002cb8:	4a15      	ldr	r2, [pc, #84]	; (8002d10 <ADC_Enable+0x74>)
 8002cba:	4211      	tst	r1, r2
 8002cbc:	d008      	beq.n	8002cd0 <ADC_Enable+0x34>
      SET_BIT(hadc->State, HAL_ADC_STATE_ERROR_INTERNAL);
 8002cbe:	2310      	movs	r3, #16
      SET_BIT(hadc->ErrorCode, HAL_ADC_ERROR_INTERNAL);
 8002cc0:	2001      	movs	r0, #1
      SET_BIT(hadc->State, HAL_ADC_STATE_ERROR_INTERNAL);
 8002cc2:	6d62      	ldr	r2, [r4, #84]	; 0x54
 8002cc4:	4313      	orrs	r3, r2
 8002cc6:	6563      	str	r3, [r4, #84]	; 0x54
      SET_BIT(hadc->ErrorCode, HAL_ADC_ERROR_INTERNAL);
 8002cc8:	6da3      	ldr	r3, [r4, #88]	; 0x58
 8002cca:	4303      	orrs	r3, r0
 8002ccc:	65a3      	str	r3, [r4, #88]	; 0x58
      return HAL_ERROR;
 8002cce:	e7f1      	b.n	8002cb4 <ADC_Enable+0x18>
    __HAL_ADC_ENABLE(hadc);
 8002cd0:	2501      	movs	r5, #1
 8002cd2:	689a      	ldr	r2, [r3, #8]
    ADC_DelayMicroSecond(ADC_STAB_DELAY_US);
 8002cd4:	0028      	movs	r0, r5
    __HAL_ADC_ENABLE(hadc);
 8002cd6:	432a      	orrs	r2, r5
 8002cd8:	609a      	str	r2, [r3, #8]
    ADC_DelayMicroSecond(ADC_STAB_DELAY_US);
 8002cda:	f7ff ffc9 	bl	8002c70 <ADC_DelayMicroSecond>
    tickstart = HAL_GetTick();
 8002cde:	f7ff ffaf 	bl	8002c40 <HAL_GetTick>
 8002ce2:	0006      	movs	r6, r0
    while(__HAL_ADC_GET_FLAG(hadc, ADC_FLAG_RDY) == RESET)
 8002ce4:	6823      	ldr	r3, [r4, #0]
 8002ce6:	681b      	ldr	r3, [r3, #0]
 8002ce8:	422b      	tst	r3, r5
 8002cea:	d1e2      	bne.n	8002cb2 <ADC_Enable+0x16>
      if((HAL_GetTick() - tickstart) > ADC_ENABLE_TIMEOUT)
 8002cec:	f7ff ffa8 	bl	8002c40 <HAL_GetTick>
 8002cf0:	1b80      	subs	r0, r0, r6
 8002cf2:	280a      	cmp	r0, #10
 8002cf4:	d9f6      	bls.n	8002ce4 <ADC_Enable+0x48>
        if(__HAL_ADC_GET_FLAG(hadc, ADC_FLAG_RDY) == RESET)
 8002cf6:	6823      	ldr	r3, [r4, #0]
 8002cf8:	681b      	ldr	r3, [r3, #0]
 8002cfa:	422b      	tst	r3, r5
 8002cfc:	d1f2      	bne.n	8002ce4 <ADC_Enable+0x48>
          SET_BIT(hadc->State, HAL_ADC_STATE_ERROR_INTERNAL);
 8002cfe:	2310      	movs	r3, #16
 8002d00:	6d62      	ldr	r2, [r4, #84]	; 0x54
          return HAL_ERROR;
 8002d02:	2001      	movs	r0, #1
          SET_BIT(hadc->State, HAL_ADC_STATE_ERROR_INTERNAL);
 8002d04:	4313      	orrs	r3, r2
 8002d06:	6563      	str	r3, [r4, #84]	; 0x54
          SET_BIT(hadc->ErrorCode, HAL_ADC_ERROR_INTERNAL);
 8002d08:	6da3      	ldr	r3, [r4, #88]	; 0x58
 8002d0a:	431d      	orrs	r5, r3
 8002d0c:	65a5      	str	r5, [r4, #88]	; 0x58
          return HAL_ERROR;
 8002d0e:	e7d1      	b.n	8002cb4 <ADC_Enable+0x18>
 8002d10:	80000017 	.word	0x80000017

08002d14 <HAL_ADC_Init>:
{
 8002d14:	b570      	push	{r4, r5, r6, lr}
 8002d16:	0004      	movs	r4, r0
    return HAL_ERROR;
 8002d18:	2001      	movs	r0, #1
  if(hadc == NULL)
 8002d1a:	2c00      	cmp	r4, #0
 8002d1c:	d01b      	beq.n	8002d56 <HAL_ADC_Init+0x42>
  if(hadc->State == HAL_ADC_STATE_RESET)
 8002d1e:	6d63      	ldr	r3, [r4, #84]	; 0x54
 8002d20:	2b00      	cmp	r3, #0
 8002d22:	d106      	bne.n	8002d32 <HAL_ADC_Init+0x1e>
    hadc->Lock = HAL_UNLOCKED;
 8002d24:	0022      	movs	r2, r4
 8002d26:	3250      	adds	r2, #80	; 0x50
    ADC_CLEAR_ERRORCODE(hadc);
 8002d28:	65a3      	str	r3, [r4, #88]	; 0x58
    HAL_ADC_MspInit(hadc);
 8002d2a:	0020      	movs	r0, r4
    hadc->Lock = HAL_UNLOCKED;
 8002d2c:	7013      	strb	r3, [r2, #0]
    HAL_ADC_MspInit(hadc);
 8002d2e:	f7ff fe35 	bl	800299c <HAL_ADC_MspInit>
  if (HAL_IS_BIT_SET(hadc->State, HAL_ADC_STATE_ERROR_INTERNAL) ||
 8002d32:	6d63      	ldr	r3, [r4, #84]	; 0x54
 8002d34:	06db      	lsls	r3, r3, #27
 8002d36:	d406      	bmi.n	8002d46 <HAL_ADC_Init+0x32>
     (ADC_IS_CONVERSION_ONGOING_REGULAR(hadc) != RESET)  )
 8002d38:	6823      	ldr	r3, [r4, #0]
 8002d3a:	2204      	movs	r2, #4
 8002d3c:	6899      	ldr	r1, [r3, #8]
 8002d3e:	0008      	movs	r0, r1
 8002d40:	4010      	ands	r0, r2
  if (HAL_IS_BIT_SET(hadc->State, HAL_ADC_STATE_ERROR_INTERNAL) ||
 8002d42:	4211      	tst	r1, r2
 8002d44:	d008      	beq.n	8002d58 <HAL_ADC_Init+0x44>
    SET_BIT(hadc->State, HAL_ADC_STATE_ERROR_INTERNAL);
 8002d46:	2310      	movs	r3, #16
 8002d48:	6d62      	ldr	r2, [r4, #84]	; 0x54
    return HAL_ERROR;
 8002d4a:	2001      	movs	r0, #1
    SET_BIT(hadc->State, HAL_ADC_STATE_ERROR_INTERNAL);
 8002d4c:	4313      	orrs	r3, r2
 8002d4e:	6563      	str	r3, [r4, #84]	; 0x54
    __HAL_UNLOCK(hadc);
 8002d50:	2300      	movs	r3, #0
 8002d52:	3450      	adds	r4, #80	; 0x50
 8002d54:	7023      	strb	r3, [r4, #0]
}
 8002d56:	bd70      	pop	{r4, r5, r6, pc}
  ADC_STATE_CLR_SET(hadc->State,
 8002d58:	6d62      	ldr	r2, [r4, #84]	; 0x54
 8002d5a:	4955      	ldr	r1, [pc, #340]	; (8002eb0 <HAL_ADC_Init+0x19c>)
 8002d5c:	4011      	ands	r1, r2
 8002d5e:	2202      	movs	r2, #2
 8002d60:	430a      	orrs	r2, r1
 8002d62:	6562      	str	r2, [r4, #84]	; 0x54
  if (ADC_IS_ENABLE(hadc) == RESET)
 8002d64:	2203      	movs	r2, #3
 8002d66:	6899      	ldr	r1, [r3, #8]
 8002d68:	4011      	ands	r1, r2
 8002d6a:	4a52      	ldr	r2, [pc, #328]	; (8002eb4 <HAL_ADC_Init+0x1a0>)
 8002d6c:	2901      	cmp	r1, #1
 8002d6e:	d102      	bne.n	8002d76 <HAL_ADC_Init+0x62>
 8002d70:	681d      	ldr	r5, [r3, #0]
 8002d72:	420d      	tst	r5, r1
 8002d74:	d119      	bne.n	8002daa <HAL_ADC_Init+0x96>
    __HAL_ADC_CLOCK_PRESCALER(hadc);
 8002d76:	2680      	movs	r6, #128	; 0x80
 8002d78:	6861      	ldr	r1, [r4, #4]
 8002d7a:	05f6      	lsls	r6, r6, #23
 8002d7c:	004d      	lsls	r5, r1, #1
 8002d7e:	086d      	lsrs	r5, r5, #1
 8002d80:	42b5      	cmp	r5, r6
 8002d82:	d003      	beq.n	8002d8c <HAL_ADC_Init+0x78>
 8002d84:	2580      	movs	r5, #128	; 0x80
 8002d86:	062d      	lsls	r5, r5, #24
 8002d88:	42a9      	cmp	r1, r5
 8002d8a:	d176      	bne.n	8002e7a <HAL_ADC_Init+0x166>
 8002d8c:	691d      	ldr	r5, [r3, #16]
 8002d8e:	00ad      	lsls	r5, r5, #2
 8002d90:	08ad      	lsrs	r5, r5, #2
 8002d92:	611d      	str	r5, [r3, #16]
 8002d94:	691d      	ldr	r5, [r3, #16]
 8002d96:	4329      	orrs	r1, r5
 8002d98:	6119      	str	r1, [r3, #16]
    hadc->Instance->CFGR1 &= ~( ADC_CFGR1_RES);
 8002d9a:	2518      	movs	r5, #24
 8002d9c:	68d9      	ldr	r1, [r3, #12]
 8002d9e:	43a9      	bics	r1, r5
 8002da0:	60d9      	str	r1, [r3, #12]
    hadc->Instance->CFGR1 |= hadc->Init.Resolution;    
 8002da2:	68d9      	ldr	r1, [r3, #12]
 8002da4:	68a5      	ldr	r5, [r4, #8]
 8002da6:	4329      	orrs	r1, r5
 8002da8:	60d9      	str	r1, [r3, #12]
  ADC->CCR &= (uint32_t)~ADC_CCR_LFMEN;
 8002daa:	6811      	ldr	r1, [r2, #0]
 8002dac:	4d42      	ldr	r5, [pc, #264]	; (8002eb8 <HAL_ADC_Init+0x1a4>)
 8002dae:	4029      	ands	r1, r5
 8002db0:	6011      	str	r1, [r2, #0]
  ADC->CCR |=__HAL_ADC_CCR_LOWFREQUENCY(hadc->Init.LowPowerFrequencyMode);  
 8002db2:	6b61      	ldr	r1, [r4, #52]	; 0x34
 8002db4:	6815      	ldr	r5, [r2, #0]
 8002db6:	0649      	lsls	r1, r1, #25
 8002db8:	4329      	orrs	r1, r5
 8002dba:	6011      	str	r1, [r2, #0]
  if (HAL_IS_BIT_CLR(hadc->Instance->CR, ADC_CR_ADVREGEN))
 8002dbc:	2280      	movs	r2, #128	; 0x80
 8002dbe:	6899      	ldr	r1, [r3, #8]
 8002dc0:	0552      	lsls	r2, r2, #21
 8002dc2:	4211      	tst	r1, r2
 8002dc4:	d102      	bne.n	8002dcc <HAL_ADC_Init+0xb8>
    hadc->Instance->CR |= ADC_CR_ADVREGEN;
 8002dc6:	6899      	ldr	r1, [r3, #8]
 8002dc8:	430a      	orrs	r2, r1
 8002dca:	609a      	str	r2, [r3, #8]
  hadc->Instance->CFGR1 &= ~(ADC_CFGR1_ALIGN   |
 8002dcc:	68da      	ldr	r2, [r3, #12]
 8002dce:	493b      	ldr	r1, [pc, #236]	; (8002ebc <HAL_ADC_Init+0x1a8>)
 8002dd0:	400a      	ands	r2, r1
                            ADC_SCANDIR(hadc->Init.ScanConvMode)             |
 8002dd2:	6921      	ldr	r1, [r4, #16]
  hadc->Instance->CFGR1 &= ~(ADC_CFGR1_ALIGN   |
 8002dd4:	60da      	str	r2, [r3, #12]
  hadc->Instance->CFGR1 |= (hadc->Init.DataAlign                             |
 8002dd6:	68dd      	ldr	r5, [r3, #12]
 8002dd8:	68e2      	ldr	r2, [r4, #12]
                            ADC_SCANDIR(hadc->Init.ScanConvMode)             |
 8002dda:	2902      	cmp	r1, #2
 8002ddc:	d100      	bne.n	8002de0 <HAL_ADC_Init+0xcc>
 8002dde:	2004      	movs	r0, #4
  hadc->Instance->CFGR1 |= (hadc->Init.DataAlign                             |
 8002de0:	6b26      	ldr	r6, [r4, #48]	; 0x30
                            ADC_CONTINUOUS((uint32_t)hadc->Init.ContinuousConvMode)    |
 8002de2:	1c61      	adds	r1, r4, #1
  hadc->Instance->CFGR1 |= (hadc->Init.DataAlign                             |
 8002de4:	4332      	orrs	r2, r6
 8002de6:	432a      	orrs	r2, r5
                            __HAL_ADC_CFGR1_AutoDelay(hadc->Init.LowPowerAutoWait) |
 8002de8:	69a5      	ldr	r5, [r4, #24]
                            ADC_CONTINUOUS((uint32_t)hadc->Init.ContinuousConvMode)    |
 8002dea:	7fc9      	ldrb	r1, [r1, #31]
                            __HAL_ADC_CFGR1_AutoDelay(hadc->Init.LowPowerAutoWait) |
 8002dec:	03ad      	lsls	r5, r5, #14
  hadc->Instance->CFGR1 |= (hadc->Init.DataAlign                             |
 8002dee:	432a      	orrs	r2, r5
                            __HAL_ADC_CFGR1_AUTOFF(hadc->Init.LowPowerAutoPowerOff));
 8002df0:	69e5      	ldr	r5, [r4, #28]
 8002df2:	03ed      	lsls	r5, r5, #15
  hadc->Instance->CFGR1 |= (hadc->Init.DataAlign                             |
 8002df4:	432a      	orrs	r2, r5
                            ADC_CONTINUOUS((uint32_t)hadc->Init.ContinuousConvMode)    |
 8002df6:	034d      	lsls	r5, r1, #13
  hadc->Instance->CFGR1 |= (hadc->Init.DataAlign                             |
 8002df8:	432a      	orrs	r2, r5
                            ADC_DMACONTREQ((uint32_t)hadc->Init.DMAContinuousRequests) |
 8002dfa:	0025      	movs	r5, r4
 8002dfc:	352c      	adds	r5, #44	; 0x2c
 8002dfe:	782d      	ldrb	r5, [r5, #0]
 8002e00:	006d      	lsls	r5, r5, #1
  hadc->Instance->CFGR1 |= (hadc->Init.DataAlign                             |
 8002e02:	432a      	orrs	r2, r5
 8002e04:	4302      	orrs	r2, r0
  if (hadc->Init.ExternalTrigConv != ADC_SOFTWARE_START)
 8002e06:	20c2      	movs	r0, #194	; 0xc2
  hadc->Instance->CFGR1 |= (hadc->Init.DataAlign                             |
 8002e08:	60da      	str	r2, [r3, #12]
  if (hadc->Init.ExternalTrigConv != ADC_SOFTWARE_START)
 8002e0a:	6a62      	ldr	r2, [r4, #36]	; 0x24
 8002e0c:	30ff      	adds	r0, #255	; 0xff
 8002e0e:	4282      	cmp	r2, r0
 8002e10:	d004      	beq.n	8002e1c <HAL_ADC_Init+0x108>
    hadc->Instance->CFGR1 |= hadc->Init.ExternalTrigConv |
 8002e12:	6aa5      	ldr	r5, [r4, #40]	; 0x28
 8002e14:	68d8      	ldr	r0, [r3, #12]
 8002e16:	432a      	orrs	r2, r5
 8002e18:	4302      	orrs	r2, r0
 8002e1a:	60da      	str	r2, [r3, #12]
  if (hadc->Init.DiscontinuousConvMode == ENABLE)
 8002e1c:	1ca2      	adds	r2, r4, #2
 8002e1e:	7fd2      	ldrb	r2, [r2, #31]
 8002e20:	2a01      	cmp	r2, #1
 8002e22:	d106      	bne.n	8002e32 <HAL_ADC_Init+0x11e>
    if (hadc->Init.ContinuousConvMode == DISABLE)
 8002e24:	2900      	cmp	r1, #0
 8002e26:	d134      	bne.n	8002e92 <HAL_ADC_Init+0x17e>
      hadc->Instance->CFGR1 |= (ADC_CFGR1_DISCEN);
 8002e28:	2280      	movs	r2, #128	; 0x80
 8002e2a:	68d9      	ldr	r1, [r3, #12]
 8002e2c:	0252      	lsls	r2, r2, #9
 8002e2e:	430a      	orrs	r2, r1
 8002e30:	60da      	str	r2, [r3, #12]
  if (hadc->Init.OversamplingMode == ENABLE)
 8002e32:	6be1      	ldr	r1, [r4, #60]	; 0x3c
    hadc->Instance->CFGR2 &= ~( ADC_CFGR2_OVSR |
 8002e34:	691a      	ldr	r2, [r3, #16]
  if (hadc->Init.OversamplingMode == ENABLE)
 8002e36:	2901      	cmp	r1, #1
 8002e38:	d133      	bne.n	8002ea2 <HAL_ADC_Init+0x18e>
    hadc->Instance->CFGR2 &= ~( ADC_CFGR2_OVSR |
 8002e3a:	4821      	ldr	r0, [pc, #132]	; (8002ec0 <HAL_ADC_Init+0x1ac>)
    hadc->Instance->CFGR2 |= ( hadc->Init.Oversample.Ratio         |
 8002e3c:	6c65      	ldr	r5, [r4, #68]	; 0x44
    hadc->Instance->CFGR2 &= ~( ADC_CFGR2_OVSR |
 8002e3e:	4002      	ands	r2, r0
 8002e40:	611a      	str	r2, [r3, #16]
    hadc->Instance->CFGR2 |= ( hadc->Init.Oversample.Ratio         |
 8002e42:	6c22      	ldr	r2, [r4, #64]	; 0x40
 8002e44:	6918      	ldr	r0, [r3, #16]
 8002e46:	432a      	orrs	r2, r5
                               hadc->Init.Oversample.RightBitShift             |
 8002e48:	6ca5      	ldr	r5, [r4, #72]	; 0x48
 8002e4a:	432a      	orrs	r2, r5
    hadc->Instance->CFGR2 |= ( hadc->Init.Oversample.Ratio         |
 8002e4c:	4302      	orrs	r2, r0
 8002e4e:	611a      	str	r2, [r3, #16]
     hadc->Instance->CFGR2 |= ADC_CFGR2_OVSE;
 8002e50:	691a      	ldr	r2, [r3, #16]
 8002e52:	4311      	orrs	r1, r2
 8002e54:	6119      	str	r1, [r3, #16]
  hadc->Instance->SMPR &= (uint32_t)(~ADC_SMPR_SMPR);
 8002e56:	2107      	movs	r1, #7
 8002e58:	695a      	ldr	r2, [r3, #20]
  ADC_CLEAR_ERRORCODE(hadc);
 8002e5a:	2000      	movs	r0, #0
  hadc->Instance->SMPR &= (uint32_t)(~ADC_SMPR_SMPR);
 8002e5c:	438a      	bics	r2, r1
 8002e5e:	615a      	str	r2, [r3, #20]
  hadc->Instance->SMPR |= hadc->Init.SamplingTime;
 8002e60:	695a      	ldr	r2, [r3, #20]
 8002e62:	6ba1      	ldr	r1, [r4, #56]	; 0x38
 8002e64:	430a      	orrs	r2, r1
 8002e66:	615a      	str	r2, [r3, #20]
  ADC_STATE_CLR_SET(hadc->State,
 8002e68:	2203      	movs	r2, #3
  ADC_CLEAR_ERRORCODE(hadc);
 8002e6a:	65a0      	str	r0, [r4, #88]	; 0x58
  ADC_STATE_CLR_SET(hadc->State,
 8002e6c:	6d63      	ldr	r3, [r4, #84]	; 0x54
 8002e6e:	4393      	bics	r3, r2
 8002e70:	001a      	movs	r2, r3
 8002e72:	2301      	movs	r3, #1
 8002e74:	4313      	orrs	r3, r2
 8002e76:	6563      	str	r3, [r4, #84]	; 0x54
  return HAL_OK;
 8002e78:	e76d      	b.n	8002d56 <HAL_ADC_Init+0x42>
    __HAL_ADC_CLOCK_PRESCALER(hadc);
 8002e7a:	691d      	ldr	r5, [r3, #16]
 8002e7c:	4e11      	ldr	r6, [pc, #68]	; (8002ec4 <HAL_ADC_Init+0x1b0>)
 8002e7e:	00ad      	lsls	r5, r5, #2
 8002e80:	08ad      	lsrs	r5, r5, #2
 8002e82:	611d      	str	r5, [r3, #16]
 8002e84:	6815      	ldr	r5, [r2, #0]
 8002e86:	4035      	ands	r5, r6
 8002e88:	6015      	str	r5, [r2, #0]
 8002e8a:	6815      	ldr	r5, [r2, #0]
 8002e8c:	4329      	orrs	r1, r5
 8002e8e:	6011      	str	r1, [r2, #0]
 8002e90:	e783      	b.n	8002d9a <HAL_ADC_Init+0x86>
      SET_BIT(hadc->State, HAL_ADC_STATE_ERROR_CONFIG);
 8002e92:	2120      	movs	r1, #32
 8002e94:	6d60      	ldr	r0, [r4, #84]	; 0x54
 8002e96:	4301      	orrs	r1, r0
 8002e98:	6561      	str	r1, [r4, #84]	; 0x54
      SET_BIT(hadc->ErrorCode, HAL_ADC_ERROR_INTERNAL);
 8002e9a:	6da1      	ldr	r1, [r4, #88]	; 0x58
 8002e9c:	430a      	orrs	r2, r1
 8002e9e:	65a2      	str	r2, [r4, #88]	; 0x58
 8002ea0:	e7c7      	b.n	8002e32 <HAL_ADC_Init+0x11e>
    if(HAL_IS_BIT_SET(hadc->Instance->CFGR2, ADC_CFGR2_OVSE))
 8002ea2:	2101      	movs	r1, #1
 8002ea4:	420a      	tst	r2, r1
 8002ea6:	d0d6      	beq.n	8002e56 <HAL_ADC_Init+0x142>
      hadc->Instance->CFGR2 &= ~ADC_CFGR2_OVSE;
 8002ea8:	691a      	ldr	r2, [r3, #16]
 8002eaa:	438a      	bics	r2, r1
 8002eac:	611a      	str	r2, [r3, #16]
 8002eae:	e7d2      	b.n	8002e56 <HAL_ADC_Init+0x142>
 8002eb0:	fffffefd 	.word	0xfffffefd
 8002eb4:	40012708 	.word	0x40012708
 8002eb8:	fdffffff 	.word	0xfdffffff
 8002ebc:	fffe0219 	.word	0xfffe0219
 8002ec0:	fffffc03 	.word	0xfffffc03
 8002ec4:	ffc3ffff 	.word	0xffc3ffff

08002ec8 <HAL_ADC_Start>:
  if (ADC_IS_CONVERSION_ONGOING_REGULAR(hadc) == RESET)
 8002ec8:	6803      	ldr	r3, [r0, #0]
{
 8002eca:	b570      	push	{r4, r5, r6, lr}
  if (ADC_IS_CONVERSION_ONGOING_REGULAR(hadc) == RESET)
 8002ecc:	689b      	ldr	r3, [r3, #8]
{
 8002ece:	0004      	movs	r4, r0
    tmp_hal_status = HAL_BUSY;
 8002ed0:	2002      	movs	r0, #2
  if (ADC_IS_CONVERSION_ONGOING_REGULAR(hadc) == RESET)
 8002ed2:	075b      	lsls	r3, r3, #29
 8002ed4:	d41a      	bmi.n	8002f0c <HAL_ADC_Start+0x44>
    __HAL_LOCK(hadc);
 8002ed6:	0025      	movs	r5, r4
 8002ed8:	3550      	adds	r5, #80	; 0x50
 8002eda:	782b      	ldrb	r3, [r5, #0]
 8002edc:	2b01      	cmp	r3, #1
 8002ede:	d015      	beq.n	8002f0c <HAL_ADC_Start+0x44>
 8002ee0:	2301      	movs	r3, #1
 8002ee2:	702b      	strb	r3, [r5, #0]
    if (hadc->Init.LowPowerAutoPowerOff != ENABLE)
 8002ee4:	69e3      	ldr	r3, [r4, #28]
 8002ee6:	2b01      	cmp	r3, #1
 8002ee8:	d111      	bne.n	8002f0e <HAL_ADC_Start+0x46>
      ADC_STATE_CLR_SET(hadc->State,
 8002eea:	6d63      	ldr	r3, [r4, #84]	; 0x54
 8002eec:	4a0b      	ldr	r2, [pc, #44]	; (8002f1c <HAL_ADC_Start+0x54>)
      ADC_CLEAR_ERRORCODE(hadc);
 8002eee:	2000      	movs	r0, #0
      ADC_STATE_CLR_SET(hadc->State,
 8002ef0:	401a      	ands	r2, r3
 8002ef2:	2380      	movs	r3, #128	; 0x80
 8002ef4:	005b      	lsls	r3, r3, #1
 8002ef6:	4313      	orrs	r3, r2
      __HAL_ADC_CLEAR_FLAG(hadc, (ADC_FLAG_EOC | ADC_FLAG_EOS | ADC_FLAG_OVR));
 8002ef8:	221c      	movs	r2, #28
      ADC_STATE_CLR_SET(hadc->State,
 8002efa:	6563      	str	r3, [r4, #84]	; 0x54
      ADC_CLEAR_ERRORCODE(hadc);
 8002efc:	65a0      	str	r0, [r4, #88]	; 0x58
      __HAL_UNLOCK(hadc);
 8002efe:	7028      	strb	r0, [r5, #0]
      __HAL_ADC_CLEAR_FLAG(hadc, (ADC_FLAG_EOC | ADC_FLAG_EOS | ADC_FLAG_OVR));
 8002f00:	6823      	ldr	r3, [r4, #0]
 8002f02:	601a      	str	r2, [r3, #0]
      hadc->Instance->CR |= ADC_CR_ADSTART;
 8002f04:	6899      	ldr	r1, [r3, #8]
 8002f06:	3a18      	subs	r2, #24
 8002f08:	430a      	orrs	r2, r1
 8002f0a:	609a      	str	r2, [r3, #8]
}
 8002f0c:	bd70      	pop	{r4, r5, r6, pc}
      tmp_hal_status = ADC_Enable(hadc);
 8002f0e:	0020      	movs	r0, r4
 8002f10:	f7ff fec4 	bl	8002c9c <ADC_Enable>
    if (tmp_hal_status == HAL_OK)
 8002f14:	2800      	cmp	r0, #0
 8002f16:	d0e8      	beq.n	8002eea <HAL_ADC_Start+0x22>
 8002f18:	e7f8      	b.n	8002f0c <HAL_ADC_Start+0x44>
 8002f1a:	46c0      	nop			; (mov r8, r8)
 8002f1c:	fffff0fe 	.word	0xfffff0fe

08002f20 <HAL_ADC_PollForConversion>:
{
 8002f20:	b5f8      	push	{r3, r4, r5, r6, r7, lr}
  if (hadc->Init.EOCSelection == ADC_EOC_SEQ_CONV)
 8002f22:	6945      	ldr	r5, [r0, #20]
{
 8002f24:	0004      	movs	r4, r0
 8002f26:	000e      	movs	r6, r1
  if (hadc->Init.EOCSelection == ADC_EOC_SEQ_CONV)
 8002f28:	2d08      	cmp	r5, #8
 8002f2a:	d00d      	beq.n	8002f48 <HAL_ADC_PollForConversion+0x28>
    if (HAL_IS_BIT_SET(hadc->Instance->CFGR1, ADC_CFGR1_DMAEN))
 8002f2c:	6803      	ldr	r3, [r0, #0]
 8002f2e:	2001      	movs	r0, #1
 8002f30:	68db      	ldr	r3, [r3, #12]
      tmp_Flag_EOC = (ADC_FLAG_EOC | ADC_FLAG_EOS);
 8002f32:	250c      	movs	r5, #12
    if (HAL_IS_BIT_SET(hadc->Instance->CFGR1, ADC_CFGR1_DMAEN))
 8002f34:	4203      	tst	r3, r0
 8002f36:	d007      	beq.n	8002f48 <HAL_ADC_PollForConversion+0x28>
      SET_BIT(hadc->State, HAL_ADC_STATE_ERROR_CONFIG);
 8002f38:	2320      	movs	r3, #32
 8002f3a:	6d62      	ldr	r2, [r4, #84]	; 0x54
      __HAL_UNLOCK(hadc);
 8002f3c:	3450      	adds	r4, #80	; 0x50
      SET_BIT(hadc->State, HAL_ADC_STATE_ERROR_CONFIG);
 8002f3e:	4313      	orrs	r3, r2
 8002f40:	6063      	str	r3, [r4, #4]
      __HAL_UNLOCK(hadc);
 8002f42:	2300      	movs	r3, #0
 8002f44:	7023      	strb	r3, [r4, #0]
}
 8002f46:	bdf8      	pop	{r3, r4, r5, r6, r7, pc}
  tickstart = HAL_GetTick();
 8002f48:	f7ff fe7a 	bl	8002c40 <HAL_GetTick>
 8002f4c:	0007      	movs	r7, r0
  while(HAL_IS_BIT_CLR(hadc->Instance->ISR, tmp_Flag_EOC))
 8002f4e:	6823      	ldr	r3, [r4, #0]
 8002f50:	681a      	ldr	r2, [r3, #0]
 8002f52:	4215      	tst	r5, r2
 8002f54:	d024      	beq.n	8002fa0 <HAL_ADC_PollForConversion+0x80>
  SET_BIT(hadc->State, HAL_ADC_STATE_REG_EOC);
 8002f56:	2280      	movs	r2, #128	; 0x80
 8002f58:	6d61      	ldr	r1, [r4, #84]	; 0x54
 8002f5a:	0092      	lsls	r2, r2, #2
 8002f5c:	430a      	orrs	r2, r1
 8002f5e:	6562      	str	r2, [r4, #84]	; 0x54
  if(ADC_IS_SOFTWARE_START_REGULAR(hadc)        && 
 8002f60:	22c0      	movs	r2, #192	; 0xc0
 8002f62:	68d9      	ldr	r1, [r3, #12]
 8002f64:	0112      	lsls	r2, r2, #4
 8002f66:	4211      	tst	r1, r2
 8002f68:	d113      	bne.n	8002f92 <HAL_ADC_PollForConversion+0x72>
     (hadc->Init.ContinuousConvMode == DISABLE)   )
 8002f6a:	1c62      	adds	r2, r4, #1
  if(ADC_IS_SOFTWARE_START_REGULAR(hadc)        && 
 8002f6c:	7fd2      	ldrb	r2, [r2, #31]
 8002f6e:	2a00      	cmp	r2, #0
 8002f70:	d10f      	bne.n	8002f92 <HAL_ADC_PollForConversion+0x72>
    if( __HAL_ADC_GET_FLAG(hadc, ADC_FLAG_EOS) )
 8002f72:	681a      	ldr	r2, [r3, #0]
 8002f74:	0712      	lsls	r2, r2, #28
 8002f76:	d50c      	bpl.n	8002f92 <HAL_ADC_PollForConversion+0x72>
      if (ADC_IS_CONVERSION_ONGOING_REGULAR(hadc) == RESET)
 8002f78:	689a      	ldr	r2, [r3, #8]
 8002f7a:	0752      	lsls	r2, r2, #29
 8002f7c:	d428      	bmi.n	8002fd0 <HAL_ADC_PollForConversion+0xb0>
        __HAL_ADC_DISABLE_IT(hadc, ADC_IT_EOC | ADC_IT_EOS);
 8002f7e:	210c      	movs	r1, #12
 8002f80:	685a      	ldr	r2, [r3, #4]
 8002f82:	438a      	bics	r2, r1
 8002f84:	605a      	str	r2, [r3, #4]
        ADC_STATE_CLR_SET(hadc->State,
 8002f86:	6d62      	ldr	r2, [r4, #84]	; 0x54
 8002f88:	4916      	ldr	r1, [pc, #88]	; (8002fe4 <HAL_ADC_PollForConversion+0xc4>)
 8002f8a:	4011      	ands	r1, r2
 8002f8c:	2201      	movs	r2, #1
 8002f8e:	430a      	orrs	r2, r1
 8002f90:	6562      	str	r2, [r4, #84]	; 0x54
  return HAL_OK;
 8002f92:	2000      	movs	r0, #0
  if (hadc->Init.LowPowerAutoWait == DISABLE)
 8002f94:	69a2      	ldr	r2, [r4, #24]
 8002f96:	4282      	cmp	r2, r0
 8002f98:	d1d5      	bne.n	8002f46 <HAL_ADC_PollForConversion+0x26>
    __HAL_ADC_CLEAR_FLAG(hadc, (ADC_FLAG_EOC | ADC_FLAG_EOS));
 8002f9a:	220c      	movs	r2, #12
 8002f9c:	601a      	str	r2, [r3, #0]
 8002f9e:	e7d2      	b.n	8002f46 <HAL_ADC_PollForConversion+0x26>
    if(Timeout != HAL_MAX_DELAY)
 8002fa0:	1c72      	adds	r2, r6, #1
 8002fa2:	d0d5      	beq.n	8002f50 <HAL_ADC_PollForConversion+0x30>
      if((Timeout == 0U) || ((HAL_GetTick()-tickstart) > Timeout))
 8002fa4:	2e00      	cmp	r6, #0
 8002fa6:	d10d      	bne.n	8002fc4 <HAL_ADC_PollForConversion+0xa4>
        if(HAL_IS_BIT_CLR(hadc->Instance->ISR, tmp_Flag_EOC))
 8002fa8:	002a      	movs	r2, r5
 8002faa:	6823      	ldr	r3, [r4, #0]
 8002fac:	681b      	ldr	r3, [r3, #0]
 8002fae:	401a      	ands	r2, r3
 8002fb0:	421d      	tst	r5, r3
 8002fb2:	d1cc      	bne.n	8002f4e <HAL_ADC_PollForConversion+0x2e>
          SET_BIT(hadc->State, HAL_ADC_STATE_TIMEOUT);
 8002fb4:	2304      	movs	r3, #4
 8002fb6:	6d61      	ldr	r1, [r4, #84]	; 0x54
          __HAL_UNLOCK(hadc);
 8002fb8:	3450      	adds	r4, #80	; 0x50
          SET_BIT(hadc->State, HAL_ADC_STATE_TIMEOUT);
 8002fba:	430b      	orrs	r3, r1
 8002fbc:	6063      	str	r3, [r4, #4]
          return HAL_TIMEOUT;
 8002fbe:	2003      	movs	r0, #3
          __HAL_UNLOCK(hadc);
 8002fc0:	7022      	strb	r2, [r4, #0]
          return HAL_TIMEOUT;
 8002fc2:	e7c0      	b.n	8002f46 <HAL_ADC_PollForConversion+0x26>
      if((Timeout == 0U) || ((HAL_GetTick()-tickstart) > Timeout))
 8002fc4:	f7ff fe3c 	bl	8002c40 <HAL_GetTick>
 8002fc8:	1bc0      	subs	r0, r0, r7
 8002fca:	42b0      	cmp	r0, r6
 8002fcc:	d8ec      	bhi.n	8002fa8 <HAL_ADC_PollForConversion+0x88>
 8002fce:	e7be      	b.n	8002f4e <HAL_ADC_PollForConversion+0x2e>
        SET_BIT(hadc->State, HAL_ADC_STATE_ERROR_CONFIG);
 8002fd0:	2220      	movs	r2, #32
 8002fd2:	6d61      	ldr	r1, [r4, #84]	; 0x54
 8002fd4:	430a      	orrs	r2, r1
 8002fd6:	6562      	str	r2, [r4, #84]	; 0x54
        SET_BIT(hadc->ErrorCode, HAL_ADC_ERROR_INTERNAL);
 8002fd8:	2201      	movs	r2, #1
 8002fda:	6da1      	ldr	r1, [r4, #88]	; 0x58
 8002fdc:	430a      	orrs	r2, r1
 8002fde:	65a2      	str	r2, [r4, #88]	; 0x58
 8002fe0:	e7d7      	b.n	8002f92 <HAL_ADC_PollForConversion+0x72>
 8002fe2:	46c0      	nop			; (mov r8, r8)
 8002fe4:	fffffefe 	.word	0xfffffefe

08002fe8 <HAL_ADC_GetValue>:
  return hadc->Instance->DR;
 8002fe8:	6803      	ldr	r3, [r0, #0]
 8002fea:	6c18      	ldr	r0, [r3, #64]	; 0x40
}
 8002fec:	4770      	bx	lr
	...

08002ff0 <HAL_ADC_ConfigChannel>:
{
 8002ff0:	b5f8      	push	{r3, r4, r5, r6, r7, lr}
  __HAL_LOCK(hadc);
 8002ff2:	0004      	movs	r4, r0
 8002ff4:	3450      	adds	r4, #80	; 0x50
 8002ff6:	7822      	ldrb	r2, [r4, #0]
{
 8002ff8:	0003      	movs	r3, r0
 8002ffa:	000d      	movs	r5, r1
  __HAL_LOCK(hadc);
 8002ffc:	2002      	movs	r0, #2
 8002ffe:	2a01      	cmp	r2, #1
 8003000:	d00b      	beq.n	800301a <HAL_ADC_ConfigChannel+0x2a>
 8003002:	3801      	subs	r0, #1
 8003004:	7020      	strb	r0, [r4, #0]
  if (ADC_IS_CONVERSION_ONGOING_REGULAR(hadc) != RESET)
 8003006:	681a      	ldr	r2, [r3, #0]
 8003008:	6891      	ldr	r1, [r2, #8]
 800300a:	0749      	lsls	r1, r1, #29
 800300c:	d506      	bpl.n	800301c <HAL_ADC_ConfigChannel+0x2c>
    SET_BIT(hadc->State, HAL_ADC_STATE_ERROR_CONFIG);
 800300e:	2220      	movs	r2, #32
 8003010:	6d59      	ldr	r1, [r3, #84]	; 0x54
 8003012:	430a      	orrs	r2, r1
 8003014:	655a      	str	r2, [r3, #84]	; 0x54
    __HAL_UNLOCK(hadc);
 8003016:	2300      	movs	r3, #0
 8003018:	7023      	strb	r3, [r4, #0]
}
 800301a:	bdf8      	pop	{r3, r4, r5, r6, r7, pc}
    if (((sConfig->Channel & ADC_CHANNEL_MASK) & ADC_CHANNEL_TEMPSENSOR ) == (ADC_CHANNEL_TEMPSENSOR & ADC_CHANNEL_MASK))
 800301c:	2380      	movs	r3, #128	; 0x80
    hadc->Instance->CHSELR |= (uint32_t)(sConfig->Channel & ADC_CHANNEL_MASK);
 800301e:	6828      	ldr	r0, [r5, #0]
  if (sConfig->Rank != ADC_RANK_NONE)
 8003020:	4e19      	ldr	r6, [pc, #100]	; (8003088 <HAL_ADC_ConfigChannel+0x98>)
 8003022:	686f      	ldr	r7, [r5, #4]
    hadc->Instance->CHSELR |= (uint32_t)(sConfig->Channel & ADC_CHANNEL_MASK);
 8003024:	0341      	lsls	r1, r0, #13
    if (((sConfig->Channel & ADC_CHANNEL_MASK) & ADC_CHANNEL_TEMPSENSOR ) == (ADC_CHANNEL_TEMPSENSOR & ADC_CHANNEL_MASK))
 8003026:	02db      	lsls	r3, r3, #11
    hadc->Instance->CHSELR |= (uint32_t)(sConfig->Channel & ADC_CHANNEL_MASK);
 8003028:	0b49      	lsrs	r1, r1, #13
    if (((sConfig->Channel & ADC_CHANNEL_MASK) & ADC_CHANNEL_TEMPSENSOR ) == (ADC_CHANNEL_TEMPSENSOR & ADC_CHANNEL_MASK))
 800302a:	4003      	ands	r3, r0
  if (sConfig->Rank != ADC_RANK_NONE)
 800302c:	42b7      	cmp	r7, r6
 800302e:	d019      	beq.n	8003064 <HAL_ADC_ConfigChannel+0x74>
    hadc->Instance->CHSELR |= (uint32_t)(sConfig->Channel & ADC_CHANNEL_MASK);
 8003030:	6a90      	ldr	r0, [r2, #40]	; 0x28
 8003032:	4301      	orrs	r1, r0
 8003034:	6291      	str	r1, [r2, #40]	; 0x28
    if (((sConfig->Channel & ADC_CHANNEL_MASK) & ADC_CHANNEL_TEMPSENSOR ) == (ADC_CHANNEL_TEMPSENSOR & ADC_CHANNEL_MASK))
 8003036:	2b00      	cmp	r3, #0
 8003038:	d008      	beq.n	800304c <HAL_ADC_ConfigChannel+0x5c>
      ADC->CCR |= ADC_CCR_TSEN;   
 800303a:	2380      	movs	r3, #128	; 0x80
 800303c:	4a13      	ldr	r2, [pc, #76]	; (800308c <HAL_ADC_ConfigChannel+0x9c>)
 800303e:	041b      	lsls	r3, r3, #16
 8003040:	6811      	ldr	r1, [r2, #0]
      ADC_DelayMicroSecond(ADC_TEMPSENSOR_DELAY_US);
 8003042:	200a      	movs	r0, #10
      ADC->CCR |= ADC_CCR_TSEN;   
 8003044:	430b      	orrs	r3, r1
 8003046:	6013      	str	r3, [r2, #0]
      ADC_DelayMicroSecond(ADC_TEMPSENSOR_DELAY_US);
 8003048:	f7ff fe12 	bl	8002c70 <ADC_DelayMicroSecond>
    if (((sConfig->Channel & ADC_CHANNEL_MASK) & ADC_CHANNEL_VREFINT) == (ADC_CHANNEL_VREFINT & ADC_CHANNEL_MASK))
 800304c:	682b      	ldr	r3, [r5, #0]
 800304e:	039b      	lsls	r3, r3, #14
 8003050:	d505      	bpl.n	800305e <HAL_ADC_ConfigChannel+0x6e>
      ADC->CCR |= ADC_CCR_VREFEN;   
 8003052:	2380      	movs	r3, #128	; 0x80
 8003054:	4a0d      	ldr	r2, [pc, #52]	; (800308c <HAL_ADC_ConfigChannel+0x9c>)
 8003056:	03db      	lsls	r3, r3, #15
 8003058:	6811      	ldr	r1, [r2, #0]
 800305a:	430b      	orrs	r3, r1
      ADC->CCR &= ~ADC_CCR_VREFEN;   
 800305c:	6013      	str	r3, [r2, #0]
  __HAL_UNLOCK(hadc);
 800305e:	2000      	movs	r0, #0
 8003060:	7020      	strb	r0, [r4, #0]
  return HAL_OK;
 8003062:	e7da      	b.n	800301a <HAL_ADC_ConfigChannel+0x2a>
    hadc->Instance->CHSELR &= ~((uint32_t)(sConfig->Channel & ADC_CHANNEL_MASK));
 8003064:	6a95      	ldr	r5, [r2, #40]	; 0x28
 8003066:	438d      	bics	r5, r1
 8003068:	6295      	str	r5, [r2, #40]	; 0x28
    if (((sConfig->Channel & ADC_CHANNEL_MASK) & ADC_CHANNEL_TEMPSENSOR ) == (ADC_CHANNEL_TEMPSENSOR & ADC_CHANNEL_MASK))
 800306a:	2b00      	cmp	r3, #0
 800306c:	d004      	beq.n	8003078 <HAL_ADC_ConfigChannel+0x88>
      ADC->CCR &= ~ADC_CCR_TSEN;   
 800306e:	4a07      	ldr	r2, [pc, #28]	; (800308c <HAL_ADC_ConfigChannel+0x9c>)
 8003070:	4907      	ldr	r1, [pc, #28]	; (8003090 <HAL_ADC_ConfigChannel+0xa0>)
 8003072:	6813      	ldr	r3, [r2, #0]
 8003074:	400b      	ands	r3, r1
 8003076:	6013      	str	r3, [r2, #0]
    if (((sConfig->Channel & ADC_CHANNEL_MASK) & ADC_CHANNEL_VREFINT) == (ADC_CHANNEL_VREFINT & ADC_CHANNEL_MASK))
 8003078:	0383      	lsls	r3, r0, #14
 800307a:	d5f0      	bpl.n	800305e <HAL_ADC_ConfigChannel+0x6e>
      ADC->CCR &= ~ADC_CCR_VREFEN;   
 800307c:	4a03      	ldr	r2, [pc, #12]	; (800308c <HAL_ADC_ConfigChannel+0x9c>)
 800307e:	4905      	ldr	r1, [pc, #20]	; (8003094 <HAL_ADC_ConfigChannel+0xa4>)
 8003080:	6813      	ldr	r3, [r2, #0]
 8003082:	400b      	ands	r3, r1
 8003084:	e7ea      	b.n	800305c <HAL_ADC_ConfigChannel+0x6c>
 8003086:	46c0      	nop			; (mov r8, r8)
 8003088:	00001001 	.word	0x00001001
 800308c:	40012708 	.word	0x40012708
 8003090:	ff7fffff 	.word	0xff7fffff
 8003094:	ffbfffff 	.word	0xffbfffff

08003098 <HAL_NVIC_SetPriority>:
  *         with stm32l0xx devices, this parameter is a dummy value and it is ignored, because 
  *         no subpriority supported in Cortex M0+ based products.   
  * @retval None
  */
void HAL_NVIC_SetPriority(IRQn_Type IRQn, uint32_t PreemptPriority, uint32_t SubPriority)
{ 
 8003098:	b530      	push	{r4, r5, lr}
 */
__STATIC_INLINE void __NVIC_SetPriority(IRQn_Type IRQn, uint32_t priority)
{
  if ((int32_t)(IRQn) >= 0)
  {
    NVIC->IP[_IP_IDX(IRQn)]  = ((uint32_t)(NVIC->IP[_IP_IDX(IRQn)]  & ~(0xFFUL << _BIT_SHIFT(IRQn))) |
 800309a:	25ff      	movs	r5, #255	; 0xff
 800309c:	2403      	movs	r4, #3
 800309e:	002a      	movs	r2, r5
 80030a0:	4004      	ands	r4, r0
 80030a2:	00e4      	lsls	r4, r4, #3
 80030a4:	40a2      	lsls	r2, r4
       (((priority << (8U - __NVIC_PRIO_BITS)) & (uint32_t)0xFFUL) << _BIT_SHIFT(IRQn)));
 80030a6:	0189      	lsls	r1, r1, #6
 80030a8:	4029      	ands	r1, r5
    NVIC->IP[_IP_IDX(IRQn)]  = ((uint32_t)(NVIC->IP[_IP_IDX(IRQn)]  & ~(0xFFUL << _BIT_SHIFT(IRQn))) |
 80030aa:	43d2      	mvns	r2, r2
       (((priority << (8U - __NVIC_PRIO_BITS)) & (uint32_t)0xFFUL) << _BIT_SHIFT(IRQn)));
 80030ac:	40a1      	lsls	r1, r4
    NVIC->IP[_IP_IDX(IRQn)]  = ((uint32_t)(NVIC->IP[_IP_IDX(IRQn)]  & ~(0xFFUL << _BIT_SHIFT(IRQn))) |
 80030ae:	b2c3      	uxtb	r3, r0
  if ((int32_t)(IRQn) >= 0)
 80030b0:	2800      	cmp	r0, #0
 80030b2:	db0a      	blt.n	80030ca <HAL_NVIC_SetPriority+0x32>
    NVIC->IP[_IP_IDX(IRQn)]  = ((uint32_t)(NVIC->IP[_IP_IDX(IRQn)]  & ~(0xFFUL << _BIT_SHIFT(IRQn))) |
 80030b4:	24c0      	movs	r4, #192	; 0xc0
 80030b6:	4b0b      	ldr	r3, [pc, #44]	; (80030e4 <HAL_NVIC_SetPriority+0x4c>)
 80030b8:	0880      	lsrs	r0, r0, #2
 80030ba:	0080      	lsls	r0, r0, #2
 80030bc:	18c0      	adds	r0, r0, r3
 80030be:	00a4      	lsls	r4, r4, #2
 80030c0:	5903      	ldr	r3, [r0, r4]
 80030c2:	401a      	ands	r2, r3
 80030c4:	4311      	orrs	r1, r2
 80030c6:	5101      	str	r1, [r0, r4]
    /* Check the parameters */
  assert_param(IS_NVIC_PREEMPTION_PRIORITY(PreemptPriority));
  NVIC_SetPriority(IRQn,PreemptPriority);
}
 80030c8:	bd30      	pop	{r4, r5, pc}
  }
  else
  {
    SCB->SHP[_SHP_IDX(IRQn)] = ((uint32_t)(SCB->SHP[_SHP_IDX(IRQn)] & ~(0xFFUL << _BIT_SHIFT(IRQn))) |
 80030ca:	200f      	movs	r0, #15
 80030cc:	4003      	ands	r3, r0
 80030ce:	3b08      	subs	r3, #8
 80030d0:	4805      	ldr	r0, [pc, #20]	; (80030e8 <HAL_NVIC_SetPriority+0x50>)
 80030d2:	089b      	lsrs	r3, r3, #2
 80030d4:	009b      	lsls	r3, r3, #2
 80030d6:	181b      	adds	r3, r3, r0
 80030d8:	69d8      	ldr	r0, [r3, #28]
 80030da:	4002      	ands	r2, r0
 80030dc:	4311      	orrs	r1, r2
 80030de:	61d9      	str	r1, [r3, #28]
 80030e0:	e7f2      	b.n	80030c8 <HAL_NVIC_SetPriority+0x30>
 80030e2:	46c0      	nop			; (mov r8, r8)
 80030e4:	e000e100 	.word	0xe000e100
 80030e8:	e000ed00 	.word	0xe000ed00

080030ec <HAL_NVIC_EnableIRQ>:
  if ((int32_t)(IRQn) >= 0)
 80030ec:	2800      	cmp	r0, #0
 80030ee:	db05      	blt.n	80030fc <HAL_NVIC_EnableIRQ+0x10>
    NVIC->ISER[0U] = (uint32_t)(1UL << (((uint32_t)IRQn) & 0x1FUL));
 80030f0:	231f      	movs	r3, #31
 80030f2:	4018      	ands	r0, r3
 80030f4:	3b1e      	subs	r3, #30
 80030f6:	4083      	lsls	r3, r0
 80030f8:	4a01      	ldr	r2, [pc, #4]	; (8003100 <HAL_NVIC_EnableIRQ+0x14>)
 80030fa:	6013      	str	r3, [r2, #0]
  /* Check the parameters */
  assert_param(IS_NVIC_DEVICE_IRQ(IRQn));
  
  /* Enable interrupt */
  NVIC_EnableIRQ(IRQn);
}
 80030fc:	4770      	bx	lr
 80030fe:	46c0      	nop			; (mov r8, r8)
 8003100:	e000e100 	.word	0xe000e100

08003104 <HAL_SYSTICK_Config>:
           function <b>SysTick_Config</b> is not included. In this case, the file <b><i>device</i>.h</b>
           must contain a vendor-specific implementation of this function.
 */
__STATIC_INLINE uint32_t SysTick_Config(uint32_t ticks)
{
  if ((ticks - 1UL) > SysTick_LOAD_RELOAD_Msk)
 8003104:	2280      	movs	r2, #128	; 0x80
 8003106:	1e43      	subs	r3, r0, #1
 8003108:	0452      	lsls	r2, r2, #17
  {
    return (1UL);                                                   /* Reload value impossible */
 800310a:	2001      	movs	r0, #1
  if ((ticks - 1UL) > SysTick_LOAD_RELOAD_Msk)
 800310c:	4293      	cmp	r3, r2
 800310e:	d20d      	bcs.n	800312c <HAL_SYSTICK_Config+0x28>
    SCB->SHP[_SHP_IDX(IRQn)] = ((uint32_t)(SCB->SHP[_SHP_IDX(IRQn)] & ~(0xFFUL << _BIT_SHIFT(IRQn))) |
 8003110:	21c0      	movs	r1, #192	; 0xc0
  }

  SysTick->LOAD  = (uint32_t)(ticks - 1UL);                         /* set reload register */
 8003112:	4a07      	ldr	r2, [pc, #28]	; (8003130 <HAL_SYSTICK_Config+0x2c>)
    SCB->SHP[_SHP_IDX(IRQn)] = ((uint32_t)(SCB->SHP[_SHP_IDX(IRQn)] & ~(0xFFUL << _BIT_SHIFT(IRQn))) |
 8003114:	4807      	ldr	r0, [pc, #28]	; (8003134 <HAL_SYSTICK_Config+0x30>)
  SysTick->LOAD  = (uint32_t)(ticks - 1UL);                         /* set reload register */
 8003116:	6053      	str	r3, [r2, #4]
    SCB->SHP[_SHP_IDX(IRQn)] = ((uint32_t)(SCB->SHP[_SHP_IDX(IRQn)] & ~(0xFFUL << _BIT_SHIFT(IRQn))) |
 8003118:	6a03      	ldr	r3, [r0, #32]
 800311a:	0609      	lsls	r1, r1, #24
 800311c:	021b      	lsls	r3, r3, #8
 800311e:	0a1b      	lsrs	r3, r3, #8
 8003120:	430b      	orrs	r3, r1
 8003122:	6203      	str	r3, [r0, #32]
  NVIC_SetPriority (SysTick_IRQn, (1UL << __NVIC_PRIO_BITS) - 1UL); /* set Priority for Systick Interrupt */
  SysTick->VAL   = 0UL;                                             /* Load the SysTick Counter Value */
 8003124:	2000      	movs	r0, #0
  SysTick->CTRL  = SysTick_CTRL_CLKSOURCE_Msk |
 8003126:	2307      	movs	r3, #7
  SysTick->VAL   = 0UL;                                             /* Load the SysTick Counter Value */
 8003128:	6090      	str	r0, [r2, #8]
  SysTick->CTRL  = SysTick_CTRL_CLKSOURCE_Msk |
 800312a:	6013      	str	r3, [r2, #0]
  *                  - 1  Function failed.
  */
uint32_t HAL_SYSTICK_Config(uint32_t TicksNumb)
{
   return SysTick_Config(TicksNumb);
}
 800312c:	4770      	bx	lr
 800312e:	46c0      	nop			; (mov r8, r8)
 8003130:	e000e010 	.word	0xe000e010
 8003134:	e000ed00 	.word	0xe000ed00

08003138 <HAL_DMA_Init>:
  * @param  hdma Pointer to a DMA_HandleTypeDef structure that contains
  *               the configuration information for the specified DMA Channel.
  * @retval HAL status
  */
HAL_StatusTypeDef HAL_DMA_Init(DMA_HandleTypeDef *hdma)
{
 8003138:	b5f8      	push	{r3, r4, r5, r6, r7, lr}
 800313a:	0004      	movs	r4, r0
  uint32_t tmp;

  /* Check the DMA handle allocation */
  if(hdma == NULL)
  {
    return HAL_ERROR;
 800313c:	2001      	movs	r0, #1
  if(hdma == NULL)
 800313e:	2c00      	cmp	r4, #0
 8003140:	d035      	beq.n	80031ae <HAL_DMA_Init+0x76>
  assert_param(IS_DMA_MODE(hdma->Init.Mode));
  assert_param(IS_DMA_PRIORITY(hdma->Init.Priority));

  /* Compute the channel index */
  /* Only one DMA: DMA1 */
  hdma->ChannelIndex = (((uint32_t)hdma->Instance - (uint32_t)DMA1_Channel1) / ((uint32_t)DMA1_Channel2 - (uint32_t)DMA1_Channel1)) << 2;
 8003142:	6825      	ldr	r5, [r4, #0]
 8003144:	4b1a      	ldr	r3, [pc, #104]	; (80031b0 <HAL_DMA_Init+0x78>)
 8003146:	2114      	movs	r1, #20
 8003148:	18e8      	adds	r0, r5, r3
 800314a:	f7fc fffb 	bl	8000144 <__udivsi3>
  hdma->DmaBaseAddress = DMA1;
 800314e:	4b19      	ldr	r3, [pc, #100]	; (80031b4 <HAL_DMA_Init+0x7c>)
  hdma->ChannelIndex = (((uint32_t)hdma->Instance - (uint32_t)DMA1_Channel1) / ((uint32_t)DMA1_Channel2 - (uint32_t)DMA1_Channel1)) << 2;
 8003150:	0080      	lsls	r0, r0, #2
  hdma->DmaBaseAddress = DMA1;
 8003152:	6423      	str	r3, [r4, #64]	; 0x40

  /* Change DMA peripheral state */
  hdma->State = HAL_DMA_STATE_BUSY;
 8003154:	2302      	movs	r3, #2
 8003156:	1da2      	adds	r2, r4, #6
  hdma->ChannelIndex = (((uint32_t)hdma->Instance - (uint32_t)DMA1_Channel1) / ((uint32_t)DMA1_Channel2 - (uint32_t)DMA1_Channel1)) << 2;
 8003158:	6460      	str	r0, [r4, #68]	; 0x44
  hdma->State = HAL_DMA_STATE_BUSY;
 800315a:	77d3      	strb	r3, [r2, #31]

  /* Get the CR register value */
  tmp = hdma->Instance->CCR;
 800315c:	682e      	ldr	r6, [r5, #0]

  /* Clear PL, MSIZE, PSIZE, MINC, PINC, CIRC, DIR and MEM2MEM bits */
  tmp &= ((uint32_t)~(DMA_CCR_PL    | DMA_CCR_MSIZE  | DMA_CCR_PSIZE  |
 800315e:	4b16      	ldr	r3, [pc, #88]	; (80031b8 <HAL_DMA_Init+0x80>)
                      DMA_CCR_MINC  | DMA_CCR_PINC   | DMA_CCR_CIRC   |
                      DMA_CCR_DIR   | DMA_CCR_MEM2MEM));

  /* Prepare the DMA Channel configuration */
  tmp |=  hdma->Init.Direction        |
 8003160:	68a1      	ldr	r1, [r4, #8]
  tmp &= ((uint32_t)~(DMA_CCR_PL    | DMA_CCR_MSIZE  | DMA_CCR_PSIZE  |
 8003162:	401e      	ands	r6, r3
  tmp |=  hdma->Init.Direction        |
 8003164:	68e3      	ldr	r3, [r4, #12]
          hdma->Init.PeriphInc           | hdma->Init.MemInc           |
 8003166:	6927      	ldr	r7, [r4, #16]
  tmp |=  hdma->Init.Direction        |
 8003168:	430b      	orrs	r3, r1
          hdma->Init.PeriphInc           | hdma->Init.MemInc           |
 800316a:	433b      	orrs	r3, r7
 800316c:	6967      	ldr	r7, [r4, #20]
 800316e:	433b      	orrs	r3, r7
          hdma->Init.PeriphDataAlignment | hdma->Init.MemDataAlignment |
 8003170:	69a7      	ldr	r7, [r4, #24]
 8003172:	433b      	orrs	r3, r7
 8003174:	69e7      	ldr	r7, [r4, #28]
 8003176:	433b      	orrs	r3, r7
          hdma->Init.Mode                | hdma->Init.Priority;
 8003178:	6a27      	ldr	r7, [r4, #32]
 800317a:	433b      	orrs	r3, r7
  tmp |=  hdma->Init.Direction        |
 800317c:	4333      	orrs	r3, r6

  /* Write to DMA Channel CR register */
  hdma->Instance->CCR = tmp;
 800317e:	602b      	str	r3, [r5, #0]

  /* Set request selection */
  if(hdma->Init.Direction != DMA_MEMORY_TO_MEMORY)
 8003180:	2380      	movs	r3, #128	; 0x80
 8003182:	01db      	lsls	r3, r3, #7
 8003184:	4299      	cmp	r1, r3
 8003186:	d00c      	beq.n	80031a2 <HAL_DMA_Init+0x6a>
  {
    /* Write to DMA channel selection register */
    /* Reset request selection for DMA1 Channelx */
    DMA1_CSELR->CSELR &= ~(DMA_CSELR_C1S << (hdma->ChannelIndex & 0x1cU));
 8003188:	251c      	movs	r5, #28
 800318a:	4028      	ands	r0, r5
 800318c:	3d0d      	subs	r5, #13
 800318e:	4085      	lsls	r5, r0
 8003190:	490a      	ldr	r1, [pc, #40]	; (80031bc <HAL_DMA_Init+0x84>)
 8003192:	680b      	ldr	r3, [r1, #0]
 8003194:	43ab      	bics	r3, r5
 8003196:	600b      	str	r3, [r1, #0]

    /* Configure request selection for DMA1 Channelx */
    DMA1_CSELR->CSELR |= (uint32_t) (hdma->Init.Request << (hdma->ChannelIndex & 0x1cU));
 8003198:	6863      	ldr	r3, [r4, #4]
 800319a:	680d      	ldr	r5, [r1, #0]
 800319c:	4083      	lsls	r3, r0
 800319e:	432b      	orrs	r3, r5
 80031a0:	600b      	str	r3, [r1, #0]
  }

  /* Initialise the error code */
  hdma->ErrorCode = HAL_DMA_ERROR_NONE;
 80031a2:	2000      	movs	r0, #0

  /* Initialize the DMA state*/
  hdma->State  = HAL_DMA_STATE_READY;
 80031a4:	2301      	movs	r3, #1
  hdma->ErrorCode = HAL_DMA_ERROR_NONE;
 80031a6:	63e0      	str	r0, [r4, #60]	; 0x3c

  /* Allocate lock resource and initialize it */
  hdma->Lock = HAL_UNLOCKED;
 80031a8:	3405      	adds	r4, #5
  hdma->State  = HAL_DMA_STATE_READY;
 80031aa:	77d3      	strb	r3, [r2, #31]
  hdma->Lock = HAL_UNLOCKED;
 80031ac:	77e0      	strb	r0, [r4, #31]

  return HAL_OK;
}
 80031ae:	bdf8      	pop	{r3, r4, r5, r6, r7, pc}
 80031b0:	bffdfff8 	.word	0xbffdfff8
 80031b4:	40020000 	.word	0x40020000
 80031b8:	ffff800f 	.word	0xffff800f
 80031bc:	400200a8 	.word	0x400200a8

080031c0 <HAL_DMA_Start_IT>:
  * @param  DstAddress The destination memory Buffer address
  * @param  DataLength The length of data to be transferred from source to destination
  * @retval HAL status
  */
HAL_StatusTypeDef HAL_DMA_Start_IT(DMA_HandleTypeDef *hdma, uint32_t SrcAddress, uint32_t DstAddress, uint32_t DataLength)
{
 80031c0:	b5f7      	push	{r0, r1, r2, r4, r5, r6, r7, lr}

  /* Check the parameters */
  assert_param(IS_DMA_BUFFER_SIZE(DataLength));

  /* Process locked */
  __HAL_LOCK(hdma);
 80031c2:	1d45      	adds	r5, r0, #5
{
 80031c4:	9301      	str	r3, [sp, #4]
  __HAL_LOCK(hdma);
 80031c6:	7feb      	ldrb	r3, [r5, #31]
{
 80031c8:	0004      	movs	r4, r0
  __HAL_LOCK(hdma);
 80031ca:	2002      	movs	r0, #2
 80031cc:	2b01      	cmp	r3, #1
 80031ce:	d029      	beq.n	8003224 <HAL_DMA_Start_IT+0x64>
 80031d0:	2301      	movs	r3, #1

  if(HAL_DMA_STATE_READY == hdma->State)
 80031d2:	1da7      	adds	r7, r4, #6
  __HAL_LOCK(hdma);
 80031d4:	77eb      	strb	r3, [r5, #31]
  if(HAL_DMA_STATE_READY == hdma->State)
 80031d6:	7ffb      	ldrb	r3, [r7, #31]
 80031d8:	2600      	movs	r6, #0
 80031da:	469c      	mov	ip, r3
 80031dc:	4660      	mov	r0, ip
 80031de:	b2db      	uxtb	r3, r3
 80031e0:	2801      	cmp	r0, #1
 80031e2:	d12a      	bne.n	800323a <HAL_DMA_Start_IT+0x7a>
  {
    /* Change DMA peripheral state */
    hdma->State = HAL_DMA_STATE_BUSY;
 80031e4:	3001      	adds	r0, #1
 80031e6:	77f8      	strb	r0, [r7, #31]
    hdma->ErrorCode = HAL_DMA_ERROR_NONE;

    /* Disable the peripheral */
    __HAL_DMA_DISABLE(hdma);
 80031e8:	6820      	ldr	r0, [r4, #0]
    hdma->ErrorCode = HAL_DMA_ERROR_NONE;
 80031ea:	63e6      	str	r6, [r4, #60]	; 0x3c
  * @retval HAL status
  */
static void DMA_SetConfig(DMA_HandleTypeDef *hdma, uint32_t SrcAddress, uint32_t DstAddress, uint32_t DataLength)
{
  /* Clear all flags */
  hdma->DmaBaseAddress->IFCR = (DMA_ISR_GIF1 << (hdma->ChannelIndex & 0x1cU));
 80031ec:	6c67      	ldr	r7, [r4, #68]	; 0x44
    __HAL_DMA_DISABLE(hdma);
 80031ee:	6805      	ldr	r5, [r0, #0]
  hdma->DmaBaseAddress->IFCR = (DMA_ISR_GIF1 << (hdma->ChannelIndex & 0x1cU));
 80031f0:	361c      	adds	r6, #28
 80031f2:	403e      	ands	r6, r7
    __HAL_DMA_DISABLE(hdma);
 80031f4:	439d      	bics	r5, r3
  hdma->DmaBaseAddress->IFCR = (DMA_ISR_GIF1 << (hdma->ChannelIndex & 0x1cU));
 80031f6:	40b3      	lsls	r3, r6
    __HAL_DMA_DISABLE(hdma);
 80031f8:	6005      	str	r5, [r0, #0]
  hdma->DmaBaseAddress->IFCR = (DMA_ISR_GIF1 << (hdma->ChannelIndex & 0x1cU));
 80031fa:	6c25      	ldr	r5, [r4, #64]	; 0x40
 80031fc:	606b      	str	r3, [r5, #4]

  /* Configure DMA Channel data length */
  hdma->Instance->CNDTR = DataLength;
 80031fe:	9b01      	ldr	r3, [sp, #4]
 8003200:	6043      	str	r3, [r0, #4]

  /* Memory to Peripheral */
  if((hdma->Init.Direction) == DMA_MEMORY_TO_PERIPH)
 8003202:	68a3      	ldr	r3, [r4, #8]
 8003204:	2b10      	cmp	r3, #16
 8003206:	d10e      	bne.n	8003226 <HAL_DMA_Start_IT+0x66>
  {
    /* Configure DMA Channel destination address */
    hdma->Instance->CPAR = DstAddress;
 8003208:	6082      	str	r2, [r0, #8]

    /* Configure DMA Channel source address */
    hdma->Instance->CMAR = SrcAddress;
 800320a:	60c1      	str	r1, [r0, #12]
    if(NULL != hdma->XferHalfCpltCallback )
 800320c:	6b23      	ldr	r3, [r4, #48]	; 0x30
 800320e:	2b00      	cmp	r3, #0
 8003210:	d00c      	beq.n	800322c <HAL_DMA_Start_IT+0x6c>
      __HAL_DMA_ENABLE_IT(hdma, (DMA_IT_TC | DMA_IT_HT | DMA_IT_TE));
 8003212:	230e      	movs	r3, #14
 8003214:	6802      	ldr	r2, [r0, #0]
      __HAL_DMA_ENABLE_IT(hdma, (DMA_IT_TC | DMA_IT_TE));
 8003216:	4313      	orrs	r3, r2
 8003218:	6003      	str	r3, [r0, #0]
    __HAL_DMA_ENABLE(hdma);
 800321a:	2301      	movs	r3, #1
 800321c:	6802      	ldr	r2, [r0, #0]
 800321e:	4313      	orrs	r3, r2
 8003220:	6003      	str	r3, [r0, #0]
  HAL_StatusTypeDef status = HAL_OK;
 8003222:	2000      	movs	r0, #0
}
 8003224:	bdfe      	pop	{r1, r2, r3, r4, r5, r6, r7, pc}
  }
  /* Peripheral to Memory */
  else
  {
    /* Configure DMA Channel source address */
    hdma->Instance->CPAR = SrcAddress;
 8003226:	6081      	str	r1, [r0, #8]

    /* Configure DMA Channel destination address */
    hdma->Instance->CMAR = DstAddress;
 8003228:	60c2      	str	r2, [r0, #12]
 800322a:	e7ef      	b.n	800320c <HAL_DMA_Start_IT+0x4c>
      __HAL_DMA_DISABLE_IT(hdma, DMA_IT_HT);
 800322c:	2204      	movs	r2, #4
 800322e:	6803      	ldr	r3, [r0, #0]
 8003230:	4393      	bics	r3, r2
 8003232:	6003      	str	r3, [r0, #0]
      __HAL_DMA_ENABLE_IT(hdma, (DMA_IT_TC | DMA_IT_TE));
 8003234:	6802      	ldr	r2, [r0, #0]
 8003236:	230a      	movs	r3, #10
 8003238:	e7ed      	b.n	8003216 <HAL_DMA_Start_IT+0x56>
    status = HAL_BUSY;
 800323a:	2002      	movs	r0, #2
    __HAL_UNLOCK(hdma);
 800323c:	77ee      	strb	r6, [r5, #31]
    status = HAL_BUSY;
 800323e:	e7f1      	b.n	8003224 <HAL_DMA_Start_IT+0x64>

08003240 <HAL_DMA_IRQHandler>:
{
 8003240:	b5f8      	push	{r3, r4, r5, r6, r7, lr}
  if ((0U != (flag_it & (DMA_FLAG_HT1 << (hdma->ChannelIndex & 0x1cU)))) && (0U != (source_it & DMA_IT_HT)))
 8003242:	221c      	movs	r2, #28
 8003244:	2704      	movs	r7, #4
 8003246:	6c46      	ldr	r6, [r0, #68]	; 0x44
  uint32_t flag_it = hdma->DmaBaseAddress->ISR;
 8003248:	6c01      	ldr	r1, [r0, #64]	; 0x40
  if ((0U != (flag_it & (DMA_FLAG_HT1 << (hdma->ChannelIndex & 0x1cU)))) && (0U != (source_it & DMA_IT_HT)))
 800324a:	4032      	ands	r2, r6
 800324c:	003e      	movs	r6, r7
 800324e:	4096      	lsls	r6, r2
  uint32_t flag_it = hdma->DmaBaseAddress->ISR;
 8003250:	680d      	ldr	r5, [r1, #0]
  uint32_t source_it = hdma->Instance->CCR;
 8003252:	6803      	ldr	r3, [r0, #0]
 8003254:	681c      	ldr	r4, [r3, #0]
  if ((0U != (flag_it & (DMA_FLAG_HT1 << (hdma->ChannelIndex & 0x1cU)))) && (0U != (source_it & DMA_IT_HT)))
 8003256:	4235      	tst	r5, r6
 8003258:	d00d      	beq.n	8003276 <HAL_DMA_IRQHandler+0x36>
 800325a:	423c      	tst	r4, r7
 800325c:	d00b      	beq.n	8003276 <HAL_DMA_IRQHandler+0x36>
      if((hdma->Instance->CCR & DMA_CCR_CIRC) == 0U)
 800325e:	681a      	ldr	r2, [r3, #0]
 8003260:	0692      	lsls	r2, r2, #26
 8003262:	d402      	bmi.n	800326a <HAL_DMA_IRQHandler+0x2a>
        __HAL_DMA_DISABLE_IT(hdma, DMA_IT_HT);
 8003264:	681a      	ldr	r2, [r3, #0]
 8003266:	43ba      	bics	r2, r7
 8003268:	601a      	str	r2, [r3, #0]
     if(hdma->XferHalfCpltCallback != NULL)
 800326a:	6b03      	ldr	r3, [r0, #48]	; 0x30
      hdma->DmaBaseAddress->IFCR = DMA_ISR_HTIF1 << (hdma->ChannelIndex & 0x1cU);
 800326c:	604e      	str	r6, [r1, #4]
     if(hdma->XferHalfCpltCallback != NULL)
 800326e:	2b00      	cmp	r3, #0
 8003270:	d019      	beq.n	80032a6 <HAL_DMA_IRQHandler+0x66>
      hdma->XferErrorCallback(hdma);
 8003272:	4798      	blx	r3
  return;
 8003274:	e017      	b.n	80032a6 <HAL_DMA_IRQHandler+0x66>
  else if ((0U != (flag_it & (DMA_FLAG_TC1 << (hdma->ChannelIndex & 0x1cU)))) && (0U != (source_it & DMA_IT_TC)))
 8003276:	2702      	movs	r7, #2
 8003278:	003e      	movs	r6, r7
 800327a:	4096      	lsls	r6, r2
 800327c:	4235      	tst	r5, r6
 800327e:	d013      	beq.n	80032a8 <HAL_DMA_IRQHandler+0x68>
 8003280:	423c      	tst	r4, r7
 8003282:	d011      	beq.n	80032a8 <HAL_DMA_IRQHandler+0x68>
    if((hdma->Instance->CCR & DMA_CCR_CIRC) == 0U)
 8003284:	681a      	ldr	r2, [r3, #0]
 8003286:	0692      	lsls	r2, r2, #26
 8003288:	d406      	bmi.n	8003298 <HAL_DMA_IRQHandler+0x58>
      __HAL_DMA_DISABLE_IT(hdma, DMA_IT_TE | DMA_IT_TC);
 800328a:	240a      	movs	r4, #10
 800328c:	681a      	ldr	r2, [r3, #0]
 800328e:	43a2      	bics	r2, r4
 8003290:	601a      	str	r2, [r3, #0]
      hdma->State = HAL_DMA_STATE_READY;
 8003292:	2201      	movs	r2, #1
 8003294:	1d83      	adds	r3, r0, #6
 8003296:	77da      	strb	r2, [r3, #31]
    __HAL_UNLOCK(hdma);
 8003298:	2200      	movs	r2, #0
 800329a:	1d43      	adds	r3, r0, #5
    hdma->DmaBaseAddress->IFCR = (DMA_ISR_TCIF1 << (hdma->ChannelIndex & 0x1cU));
 800329c:	604e      	str	r6, [r1, #4]
    __HAL_UNLOCK(hdma);
 800329e:	77da      	strb	r2, [r3, #31]
    if(hdma->XferCpltCallback != NULL)
 80032a0:	6ac3      	ldr	r3, [r0, #44]	; 0x2c
    if (hdma->XferErrorCallback != NULL)
 80032a2:	4293      	cmp	r3, r2
 80032a4:	d1e5      	bne.n	8003272 <HAL_DMA_IRQHandler+0x32>
}
 80032a6:	bdf8      	pop	{r3, r4, r5, r6, r7, pc}
  else if ((0U != (flag_it & (DMA_FLAG_TE1 << (hdma->ChannelIndex & 0x1cU)))) && (0U != (source_it & DMA_IT_TE)))
 80032a8:	2608      	movs	r6, #8
 80032aa:	0037      	movs	r7, r6
 80032ac:	4097      	lsls	r7, r2
 80032ae:	423d      	tst	r5, r7
 80032b0:	d0f9      	beq.n	80032a6 <HAL_DMA_IRQHandler+0x66>
 80032b2:	4234      	tst	r4, r6
 80032b4:	d0f7      	beq.n	80032a6 <HAL_DMA_IRQHandler+0x66>
    __HAL_DMA_DISABLE_IT(hdma, (DMA_IT_TC | DMA_IT_HT | DMA_IT_TE));
 80032b6:	250e      	movs	r5, #14
 80032b8:	681c      	ldr	r4, [r3, #0]
 80032ba:	43ac      	bics	r4, r5
 80032bc:	601c      	str	r4, [r3, #0]
    hdma->DmaBaseAddress->IFCR = (DMA_ISR_GIF1 << (hdma->ChannelIndex & 0x1cU));
 80032be:	2301      	movs	r3, #1
 80032c0:	001c      	movs	r4, r3
 80032c2:	4094      	lsls	r4, r2
    hdma->State = HAL_DMA_STATE_READY;
 80032c4:	1d82      	adds	r2, r0, #6
    hdma->DmaBaseAddress->IFCR = (DMA_ISR_GIF1 << (hdma->ChannelIndex & 0x1cU));
 80032c6:	604c      	str	r4, [r1, #4]
    hdma->ErrorCode = HAL_DMA_ERROR_TE;
 80032c8:	63c3      	str	r3, [r0, #60]	; 0x3c
    hdma->State = HAL_DMA_STATE_READY;
 80032ca:	77d3      	strb	r3, [r2, #31]
    __HAL_UNLOCK(hdma);
 80032cc:	2200      	movs	r2, #0
 80032ce:	1d43      	adds	r3, r0, #5
 80032d0:	77da      	strb	r2, [r3, #31]
    if (hdma->XferErrorCallback != NULL)
 80032d2:	6b43      	ldr	r3, [r0, #52]	; 0x34
 80032d4:	e7e5      	b.n	80032a2 <HAL_DMA_IRQHandler+0x62>
	...

080032d8 <FLASH_SetErrorCode>:
  */
static void FLASH_SetErrorCode(void)
{
  uint32_t flags = 0;
  
  if(__HAL_FLASH_GET_FLAG(FLASH_FLAG_WRPERR))
 80032d8:	4a28      	ldr	r2, [pc, #160]	; (800337c <FLASH_SetErrorCode+0xa4>)
 80032da:	2180      	movs	r1, #128	; 0x80
 80032dc:	6990      	ldr	r0, [r2, #24]
 80032de:	0049      	lsls	r1, r1, #1
 80032e0:	0003      	movs	r3, r0
{
 80032e2:	b530      	push	{r4, r5, lr}
  if(__HAL_FLASH_GET_FLAG(FLASH_FLAG_WRPERR))
 80032e4:	400b      	ands	r3, r1
 80032e6:	4208      	tst	r0, r1
 80032e8:	d005      	beq.n	80032f6 <FLASH_SetErrorCode+0x1e>
  {
    pFlash.ErrorCode |= HAL_FLASH_ERROR_WRP;
 80032ea:	2302      	movs	r3, #2
 80032ec:	4824      	ldr	r0, [pc, #144]	; (8003380 <FLASH_SetErrorCode+0xa8>)
 80032ee:	6944      	ldr	r4, [r0, #20]
 80032f0:	4323      	orrs	r3, r4
 80032f2:	6143      	str	r3, [r0, #20]
    flags |= FLASH_FLAG_WRPERR;
 80032f4:	000b      	movs	r3, r1
  }
  if(__HAL_FLASH_GET_FLAG(FLASH_FLAG_PGAERR))
 80032f6:	2080      	movs	r0, #128	; 0x80
 80032f8:	6991      	ldr	r1, [r2, #24]
 80032fa:	0080      	lsls	r0, r0, #2
 80032fc:	4201      	tst	r1, r0
 80032fe:	d005      	beq.n	800330c <FLASH_SetErrorCode+0x34>
  {
    pFlash.ErrorCode |= HAL_FLASH_ERROR_PGA;
 8003300:	2101      	movs	r1, #1
 8003302:	4c1f      	ldr	r4, [pc, #124]	; (8003380 <FLASH_SetErrorCode+0xa8>)
    flags |= FLASH_FLAG_PGAERR;
 8003304:	4303      	orrs	r3, r0
    pFlash.ErrorCode |= HAL_FLASH_ERROR_PGA;
 8003306:	6965      	ldr	r5, [r4, #20]
 8003308:	4329      	orrs	r1, r5
 800330a:	6161      	str	r1, [r4, #20]
  }
  if(__HAL_FLASH_GET_FLAG(FLASH_FLAG_SIZERR))
 800330c:	2080      	movs	r0, #128	; 0x80
 800330e:	6991      	ldr	r1, [r2, #24]
 8003310:	00c0      	lsls	r0, r0, #3
 8003312:	4201      	tst	r1, r0
 8003314:	d005      	beq.n	8003322 <FLASH_SetErrorCode+0x4a>
  { 
    pFlash.ErrorCode |= HAL_FLASH_ERROR_SIZE;
 8003316:	2108      	movs	r1, #8
 8003318:	4c19      	ldr	r4, [pc, #100]	; (8003380 <FLASH_SetErrorCode+0xa8>)
    flags |= FLASH_FLAG_SIZERR;
 800331a:	4303      	orrs	r3, r0
    pFlash.ErrorCode |= HAL_FLASH_ERROR_SIZE;
 800331c:	6965      	ldr	r5, [r4, #20]
 800331e:	4329      	orrs	r1, r5
 8003320:	6161      	str	r1, [r4, #20]
  }
  if(__HAL_FLASH_GET_FLAG(FLASH_FLAG_OPTVERR))
 8003322:	2080      	movs	r0, #128	; 0x80
 8003324:	6991      	ldr	r1, [r2, #24]
 8003326:	0100      	lsls	r0, r0, #4
 8003328:	4201      	tst	r1, r0
 800332a:	d005      	beq.n	8003338 <FLASH_SetErrorCode+0x60>
     *           cut of the STM32L031xx device or the first cut of the STM32L041xx
     *           device, this error should be ignored. The revId of the device
     *           can be retrieved via the HAL_GetREVID() function.
     *
     */
    pFlash.ErrorCode |= HAL_FLASH_ERROR_OPTV;
 800332c:	2104      	movs	r1, #4
 800332e:	4c14      	ldr	r4, [pc, #80]	; (8003380 <FLASH_SetErrorCode+0xa8>)
    flags |= FLASH_FLAG_OPTVERR;
 8003330:	4303      	orrs	r3, r0
    pFlash.ErrorCode |= HAL_FLASH_ERROR_OPTV;
 8003332:	6965      	ldr	r5, [r4, #20]
 8003334:	4329      	orrs	r1, r5
 8003336:	6161      	str	r1, [r4, #20]
  }

  if(__HAL_FLASH_GET_FLAG(FLASH_FLAG_RDERR))
 8003338:	2080      	movs	r0, #128	; 0x80
 800333a:	6991      	ldr	r1, [r2, #24]
 800333c:	0180      	lsls	r0, r0, #6
 800333e:	4201      	tst	r1, r0
 8003340:	d005      	beq.n	800334e <FLASH_SetErrorCode+0x76>
  {
    pFlash.ErrorCode |= HAL_FLASH_ERROR_RD;
 8003342:	2110      	movs	r1, #16
 8003344:	4c0e      	ldr	r4, [pc, #56]	; (8003380 <FLASH_SetErrorCode+0xa8>)
    flags |= FLASH_FLAG_RDERR;
 8003346:	4303      	orrs	r3, r0
    pFlash.ErrorCode |= HAL_FLASH_ERROR_RD;
 8003348:	6965      	ldr	r5, [r4, #20]
 800334a:	4329      	orrs	r1, r5
 800334c:	6161      	str	r1, [r4, #20]
  }
  if(__HAL_FLASH_GET_FLAG(FLASH_FLAG_FWWERR))
 800334e:	6991      	ldr	r1, [r2, #24]
 8003350:	0389      	lsls	r1, r1, #14
 8003352:	d505      	bpl.n	8003360 <FLASH_SetErrorCode+0x88>
  { 
    pFlash.ErrorCode |= HAL_FLASH_ERROR_FWWERR;
 8003354:	2020      	movs	r0, #32
 8003356:	4c0a      	ldr	r4, [pc, #40]	; (8003380 <FLASH_SetErrorCode+0xa8>)
    flags |= HAL_FLASH_ERROR_FWWERR;
 8003358:	4303      	orrs	r3, r0
    pFlash.ErrorCode |= HAL_FLASH_ERROR_FWWERR;
 800335a:	6961      	ldr	r1, [r4, #20]
 800335c:	4301      	orrs	r1, r0
 800335e:	6161      	str	r1, [r4, #20]
  }
  if(__HAL_FLASH_GET_FLAG(FLASH_FLAG_NOTZEROERR))
 8003360:	2080      	movs	r0, #128	; 0x80
 8003362:	6991      	ldr	r1, [r2, #24]
 8003364:	0240      	lsls	r0, r0, #9
 8003366:	4201      	tst	r1, r0
 8003368:	d005      	beq.n	8003376 <FLASH_SetErrorCode+0x9e>
  { 
    pFlash.ErrorCode |= HAL_FLASH_ERROR_NOTZERO;
 800336a:	2140      	movs	r1, #64	; 0x40
 800336c:	4c04      	ldr	r4, [pc, #16]	; (8003380 <FLASH_SetErrorCode+0xa8>)
    flags |= FLASH_FLAG_NOTZEROERR;
 800336e:	4303      	orrs	r3, r0
    pFlash.ErrorCode |= HAL_FLASH_ERROR_NOTZERO;
 8003370:	6965      	ldr	r5, [r4, #20]
 8003372:	4329      	orrs	r1, r5
 8003374:	6161      	str	r1, [r4, #20]
  }

  /* Clear FLASH error pending bits */
  __HAL_FLASH_CLEAR_FLAG(flags);
 8003376:	6193      	str	r3, [r2, #24]
}  
 8003378:	bd30      	pop	{r4, r5, pc}
 800337a:	46c0      	nop			; (mov r8, r8)
 800337c:	40022000 	.word	0x40022000
 8003380:	20000ce0 	.word	0x20000ce0

08003384 <FLASH_WaitForLastOperation>:
{
 8003384:	b570      	push	{r4, r5, r6, lr}
 8003386:	0004      	movs	r4, r0
  uint32_t tickstart = HAL_GetTick();
 8003388:	f7ff fc5a 	bl	8002c40 <HAL_GetTick>
  while(__HAL_FLASH_GET_FLAG(FLASH_FLAG_BSY)) 
 800338c:	2601      	movs	r6, #1
  uint32_t tickstart = HAL_GetTick();
 800338e:	0005      	movs	r5, r0
  while(__HAL_FLASH_GET_FLAG(FLASH_FLAG_BSY)) 
 8003390:	4b18      	ldr	r3, [pc, #96]	; (80033f4 <FLASH_WaitForLastOperation+0x70>)
 8003392:	699a      	ldr	r2, [r3, #24]
 8003394:	4232      	tst	r2, r6
 8003396:	d121      	bne.n	80033dc <FLASH_WaitForLastOperation+0x58>
  if (__HAL_FLASH_GET_FLAG(FLASH_FLAG_EOP))
 8003398:	2202      	movs	r2, #2
 800339a:	6999      	ldr	r1, [r3, #24]
 800339c:	4211      	tst	r1, r2
 800339e:	d000      	beq.n	80033a2 <FLASH_WaitForLastOperation+0x1e>
    __HAL_FLASH_CLEAR_FLAG(FLASH_FLAG_EOP);
 80033a0:	619a      	str	r2, [r3, #24]
  if( __HAL_FLASH_GET_FLAG(FLASH_FLAG_WRPERR)     || 
 80033a2:	699a      	ldr	r2, [r3, #24]
 80033a4:	05d2      	lsls	r2, r2, #23
 80033a6:	d415      	bmi.n	80033d4 <FLASH_WaitForLastOperation+0x50>
      __HAL_FLASH_GET_FLAG(FLASH_FLAG_PGAERR)     || 
 80033a8:	699a      	ldr	r2, [r3, #24]
  if( __HAL_FLASH_GET_FLAG(FLASH_FLAG_WRPERR)     || 
 80033aa:	0592      	lsls	r2, r2, #22
 80033ac:	d412      	bmi.n	80033d4 <FLASH_WaitForLastOperation+0x50>
      __HAL_FLASH_GET_FLAG(FLASH_FLAG_SIZERR)     || 
 80033ae:	699a      	ldr	r2, [r3, #24]
      __HAL_FLASH_GET_FLAG(FLASH_FLAG_PGAERR)     || 
 80033b0:	0552      	lsls	r2, r2, #21
 80033b2:	d40f      	bmi.n	80033d4 <FLASH_WaitForLastOperation+0x50>
      __HAL_FLASH_GET_FLAG(FLASH_FLAG_OPTVERR)    || 
 80033b4:	699a      	ldr	r2, [r3, #24]
      __HAL_FLASH_GET_FLAG(FLASH_FLAG_SIZERR)     || 
 80033b6:	0512      	lsls	r2, r2, #20
 80033b8:	d40c      	bmi.n	80033d4 <FLASH_WaitForLastOperation+0x50>
      __HAL_FLASH_GET_FLAG(FLASH_FLAG_RDERR)      || 
 80033ba:	699a      	ldr	r2, [r3, #24]
      __HAL_FLASH_GET_FLAG(FLASH_FLAG_OPTVERR)    || 
 80033bc:	0492      	lsls	r2, r2, #18
 80033be:	d409      	bmi.n	80033d4 <FLASH_WaitForLastOperation+0x50>
      __HAL_FLASH_GET_FLAG(FLASH_FLAG_FWWERR)     || 
 80033c0:	6999      	ldr	r1, [r3, #24]
 80033c2:	2280      	movs	r2, #128	; 0x80
 80033c4:	0008      	movs	r0, r1
 80033c6:	0292      	lsls	r2, r2, #10
 80033c8:	4010      	ands	r0, r2
      __HAL_FLASH_GET_FLAG(FLASH_FLAG_RDERR)      || 
 80033ca:	4211      	tst	r1, r2
 80033cc:	d102      	bne.n	80033d4 <FLASH_WaitForLastOperation+0x50>
      __HAL_FLASH_GET_FLAG(FLASH_FLAG_NOTZEROERR) )
 80033ce:	699b      	ldr	r3, [r3, #24]
      __HAL_FLASH_GET_FLAG(FLASH_FLAG_FWWERR)     || 
 80033d0:	03db      	lsls	r3, r3, #15
 80033d2:	d508      	bpl.n	80033e6 <FLASH_WaitForLastOperation+0x62>
    FLASH_SetErrorCode();
 80033d4:	f7ff ff80 	bl	80032d8 <FLASH_SetErrorCode>
    return HAL_ERROR;
 80033d8:	2001      	movs	r0, #1
 80033da:	e004      	b.n	80033e6 <FLASH_WaitForLastOperation+0x62>
    if (Timeout != HAL_MAX_DELAY)
 80033dc:	1c62      	adds	r2, r4, #1
 80033de:	d0d8      	beq.n	8003392 <FLASH_WaitForLastOperation+0xe>
      if((Timeout == 0U) || ((HAL_GetTick()-tickstart) > Timeout))
 80033e0:	2c00      	cmp	r4, #0
 80033e2:	d101      	bne.n	80033e8 <FLASH_WaitForLastOperation+0x64>
        return HAL_TIMEOUT;
 80033e4:	2003      	movs	r0, #3
}
 80033e6:	bd70      	pop	{r4, r5, r6, pc}
      if((Timeout == 0U) || ((HAL_GetTick()-tickstart) > Timeout))
 80033e8:	f7ff fc2a 	bl	8002c40 <HAL_GetTick>
 80033ec:	1b40      	subs	r0, r0, r5
 80033ee:	42a0      	cmp	r0, r4
 80033f0:	d9ce      	bls.n	8003390 <FLASH_WaitForLastOperation+0xc>
 80033f2:	e7f7      	b.n	80033e4 <FLASH_WaitForLastOperation+0x60>
 80033f4:	40022000 	.word	0x40022000

080033f8 <HAL_FLASHEx_DATAEEPROM_Unlock>:
  */
HAL_StatusTypeDef HAL_FLASHEx_DATAEEPROM_Unlock(void)
{
  uint32_t primask_bit;

  if((FLASH->PECR & FLASH_PECR_PELOCK) != RESET)
 80033f8:	2201      	movs	r2, #1
 80033fa:	4b08      	ldr	r3, [pc, #32]	; (800341c <HAL_FLASHEx_DATAEEPROM_Unlock+0x24>)
    {
      return HAL_ERROR;
    }
  }

  return HAL_OK;  
 80033fc:	2000      	movs	r0, #0
  if((FLASH->PECR & FLASH_PECR_PELOCK) != RESET)
 80033fe:	6859      	ldr	r1, [r3, #4]
 8003400:	4211      	tst	r1, r2
 8003402:	d00a      	beq.n	800341a <HAL_FLASHEx_DATAEEPROM_Unlock+0x22>
 */
__STATIC_FORCEINLINE uint32_t __get_PRIMASK(void)
{
  uint32_t result;

  __ASM volatile ("MRS %0, primask" : "=r" (result) :: "memory");
 8003404:	f3ef 8110 	mrs	r1, PRIMASK
  __ASM volatile ("cpsid i" : : : "memory");
 8003408:	b672      	cpsid	i
    FLASH->PEKEYR = FLASH_PEKEY1;
 800340a:	4805      	ldr	r0, [pc, #20]	; (8003420 <HAL_FLASHEx_DATAEEPROM_Unlock+0x28>)
 800340c:	60d8      	str	r0, [r3, #12]
    FLASH->PEKEYR = FLASH_PEKEY2;
 800340e:	4805      	ldr	r0, [pc, #20]	; (8003424 <HAL_FLASHEx_DATAEEPROM_Unlock+0x2c>)
 8003410:	60d8      	str	r0, [r3, #12]
  \details Assigns the given value to the Priority Mask Register.
  \param [in]    priMask  Priority Mask
 */
__STATIC_FORCEINLINE void __set_PRIMASK(uint32_t priMask)
{
  __ASM volatile ("MSR primask, %0" : : "r" (priMask) : "memory");
 8003412:	f381 8810 	msr	PRIMASK, r1
    if((FLASH->PECR & FLASH_PECR_PELOCK) != RESET)
 8003416:	6858      	ldr	r0, [r3, #4]
 8003418:	4010      	ands	r0, r2
}
 800341a:	4770      	bx	lr
 800341c:	40022000 	.word	0x40022000
 8003420:	89abcdef 	.word	0x89abcdef
 8003424:	02030405 	.word	0x02030405

08003428 <HAL_FLASHEx_DATAEEPROM_Lock>:
  * @retval HAL_StatusTypeDef HAL Status
  */
HAL_StatusTypeDef HAL_FLASHEx_DATAEEPROM_Lock(void)
{
  /* Set the PELOCK Bit to lock the data memory and FLASH_PECR register access */
  SET_BIT(FLASH->PECR, FLASH_PECR_PELOCK);
 8003428:	2301      	movs	r3, #1
 800342a:	4a03      	ldr	r2, [pc, #12]	; (8003438 <HAL_FLASHEx_DATAEEPROM_Lock+0x10>)
  
  return HAL_OK;
}
 800342c:	2000      	movs	r0, #0
  SET_BIT(FLASH->PECR, FLASH_PECR_PELOCK);
 800342e:	6851      	ldr	r1, [r2, #4]
 8003430:	430b      	orrs	r3, r1
 8003432:	6053      	str	r3, [r2, #4]
}
 8003434:	4770      	bx	lr
 8003436:	46c0      	nop			; (mov r8, r8)
 8003438:	40022000 	.word	0x40022000

0800343c <HAL_FLASHEx_DATAEEPROM_Program>:
  * 
  * @retval HAL_StatusTypeDef HAL Status
  */

HAL_StatusTypeDef   HAL_FLASHEx_DATAEEPROM_Program(uint32_t TypeProgram, uint32_t Address, uint32_t Data)
{
 800343c:	b5f8      	push	{r3, r4, r5, r6, r7, lr}
  HAL_StatusTypeDef status = HAL_ERROR;
  
  /* Process Locked */
  __HAL_LOCK(&pFlash);
 800343e:	4f12      	ldr	r7, [pc, #72]	; (8003488 <HAL_FLASHEx_DATAEEPROM_Program+0x4c>)
{
 8003440:	0006      	movs	r6, r0
  __HAL_LOCK(&pFlash);
 8003442:	7c3b      	ldrb	r3, [r7, #16]
{
 8003444:	000d      	movs	r5, r1
 8003446:	0014      	movs	r4, r2
  __HAL_LOCK(&pFlash);
 8003448:	2002      	movs	r0, #2
 800344a:	2b01      	cmp	r3, #1
 800344c:	d00c      	beq.n	8003468 <HAL_FLASHEx_DATAEEPROM_Program+0x2c>
 800344e:	2301      	movs	r3, #1
  /* Check the parameters */
  assert_param(IS_TYPEPROGRAMDATA(TypeProgram));
  assert_param(IS_FLASH_DATA_ADDRESS(Address));

  /* Wait for last operation to be completed */
  status = FLASH_WaitForLastOperation(FLASH_TIMEOUT_VALUE);
 8003450:	480e      	ldr	r0, [pc, #56]	; (800348c <HAL_FLASHEx_DATAEEPROM_Program+0x50>)
  __HAL_LOCK(&pFlash);
 8003452:	743b      	strb	r3, [r7, #16]
  status = FLASH_WaitForLastOperation(FLASH_TIMEOUT_VALUE);
 8003454:	f7ff ff96 	bl	8003384 <FLASH_WaitForLastOperation>
  
  if(status == HAL_OK)
 8003458:	2800      	cmp	r0, #0
 800345a:	d103      	bne.n	8003464 <HAL_FLASHEx_DATAEEPROM_Program+0x28>
  {
    /* Clean the error context */
    pFlash.ErrorCode = HAL_FLASH_ERROR_NONE;
 800345c:	6178      	str	r0, [r7, #20]

    if(TypeProgram == FLASH_TYPEPROGRAMDATA_WORD)
 800345e:	2e02      	cmp	r6, #2
 8003460:	d103      	bne.n	800346a <HAL_FLASHEx_DATAEEPROM_Program+0x2e>
    {
      /* Program word (32-bit) at a specified address.*/
      *(__IO uint32_t *)Address = Data;
 8003462:	602c      	str	r4, [r5, #0]
      status = FLASH_WaitForLastOperation(FLASH_TIMEOUT_VALUE);
    }
  }

  /* Process Unlocked */
  __HAL_UNLOCK(&pFlash);
 8003464:	2300      	movs	r3, #0
 8003466:	743b      	strb	r3, [r7, #16]

  return status;
}
 8003468:	bdf8      	pop	{r3, r4, r5, r6, r7, pc}
    else if(TypeProgram == FLASH_TYPEPROGRAMDATA_HALFWORD)
 800346a:	2e01      	cmp	r6, #1
 800346c:	d102      	bne.n	8003474 <HAL_FLASHEx_DATAEEPROM_Program+0x38>
      *(__IO uint16_t *)Address = (uint16_t) Data;
 800346e:	b2a4      	uxth	r4, r4
 8003470:	802c      	strh	r4, [r5, #0]
 8003472:	e7f7      	b.n	8003464 <HAL_FLASHEx_DATAEEPROM_Program+0x28>
    else if(TypeProgram == FLASH_TYPEPROGRAMDATA_BYTE)
 8003474:	2e00      	cmp	r6, #0
 8003476:	d003      	beq.n	8003480 <HAL_FLASHEx_DATAEEPROM_Program+0x44>
      status = FLASH_WaitForLastOperation(FLASH_TIMEOUT_VALUE);
 8003478:	4804      	ldr	r0, [pc, #16]	; (800348c <HAL_FLASHEx_DATAEEPROM_Program+0x50>)
 800347a:	f7ff ff83 	bl	8003384 <FLASH_WaitForLastOperation>
 800347e:	e7f1      	b.n	8003464 <HAL_FLASHEx_DATAEEPROM_Program+0x28>
      *(__IO uint8_t *)Address = (uint8_t) Data;
 8003480:	b2e4      	uxtb	r4, r4
 8003482:	702c      	strb	r4, [r5, #0]
 8003484:	e7ee      	b.n	8003464 <HAL_FLASHEx_DATAEEPROM_Program+0x28>
 8003486:	46c0      	nop			; (mov r8, r8)
 8003488:	20000ce0 	.word	0x20000ce0
 800348c:	0000c350 	.word	0x0000c350

08003490 <HAL_GPIO_Init>:
        /* Enable SYSCFG Clock */
        __HAL_RCC_SYSCFG_CLK_ENABLE();

        temp = SYSCFG->EXTICR[position >> 2U];
        CLEAR_BIT(temp, (0x0FUL) << (4U * (position & 0x03U)));
        SET_BIT(temp, (GPIO_GET_INDEX(GPIOx)) << (4 * (position & 0x03U)));
 8003490:	4a58      	ldr	r2, [pc, #352]	; (80035f4 <HAL_GPIO_Init+0x164>)
{
 8003492:	b5f0      	push	{r4, r5, r6, r7, lr}
        SET_BIT(temp, (GPIO_GET_INDEX(GPIOx)) << (4 * (position & 0x03U)));
 8003494:	1882      	adds	r2, r0, r2
 8003496:	1e54      	subs	r4, r2, #1
 8003498:	41a2      	sbcs	r2, r4
  uint32_t position = 0x00U;
 800349a:	2300      	movs	r3, #0
{
 800349c:	b087      	sub	sp, #28
        SET_BIT(temp, (GPIO_GET_INDEX(GPIOx)) << (4 * (position & 0x03U)));
 800349e:	3205      	adds	r2, #5
{
 80034a0:	9103      	str	r1, [sp, #12]
        SET_BIT(temp, (GPIO_GET_INDEX(GPIOx)) << (4 * (position & 0x03U)));
 80034a2:	9205      	str	r2, [sp, #20]
  while (((GPIO_Init->Pin) >> position) != 0)
 80034a4:	9a03      	ldr	r2, [sp, #12]
 80034a6:	6812      	ldr	r2, [r2, #0]
 80034a8:	0014      	movs	r4, r2
 80034aa:	40dc      	lsrs	r4, r3
 80034ac:	d101      	bne.n	80034b2 <HAL_GPIO_Init+0x22>
        EXTI->FTSR = temp;
      }
    }
    position++;
  }
}
 80034ae:	b007      	add	sp, #28
 80034b0:	bdf0      	pop	{r4, r5, r6, r7, pc}
    iocurrent = (GPIO_Init->Pin) & (1U << position);
 80034b2:	2101      	movs	r1, #1
 80034b4:	000d      	movs	r5, r1
 80034b6:	0014      	movs	r4, r2
 80034b8:	409d      	lsls	r5, r3
 80034ba:	402c      	ands	r4, r5
 80034bc:	468c      	mov	ip, r1
 80034be:	9402      	str	r4, [sp, #8]
    if (iocurrent)
 80034c0:	422a      	tst	r2, r5
 80034c2:	d100      	bne.n	80034c6 <HAL_GPIO_Init+0x36>
 80034c4:	e094      	b.n	80035f0 <HAL_GPIO_Init+0x160>
      if (((GPIO_Init->Mode & GPIO_MODE) == MODE_OUTPUT) ||
 80034c6:	2403      	movs	r4, #3
 80034c8:	9a03      	ldr	r2, [sp, #12]
 80034ca:	005e      	lsls	r6, r3, #1
 80034cc:	6852      	ldr	r2, [r2, #4]
 80034ce:	9201      	str	r2, [sp, #4]
 80034d0:	4022      	ands	r2, r4
        temp &= ~(GPIO_OSPEEDER_OSPEED0 << (position * 2U));
 80034d2:	40b4      	lsls	r4, r6
 80034d4:	43e1      	mvns	r1, r4
      if (((GPIO_Init->Mode & GPIO_MODE) == MODE_OUTPUT) ||
 80034d6:	1e54      	subs	r4, r2, #1
        temp &= ~(GPIO_OSPEEDER_OSPEED0 << (position * 2U));
 80034d8:	9104      	str	r1, [sp, #16]
      if (((GPIO_Init->Mode & GPIO_MODE) == MODE_OUTPUT) ||
 80034da:	4564      	cmp	r4, ip
 80034dc:	d82a      	bhi.n	8003534 <HAL_GPIO_Init+0xa4>
        temp = GPIOx->OSPEEDR;
 80034de:	6887      	ldr	r7, [r0, #8]
        temp &= ~(GPIO_OSPEEDER_OSPEED0 << (position * 2U));
 80034e0:	400f      	ands	r7, r1
        temp |= (GPIO_Init->Speed << (position * 2U));
 80034e2:	9903      	ldr	r1, [sp, #12]
 80034e4:	68cc      	ldr	r4, [r1, #12]
        temp |= (((GPIO_Init->Mode & OUTPUT_TYPE) >> OUTPUT_TYPE_Pos) << position);
 80034e6:	9901      	ldr	r1, [sp, #4]
        temp |= (GPIO_Init->Speed << (position * 2U));
 80034e8:	40b4      	lsls	r4, r6
 80034ea:	433c      	orrs	r4, r7
        GPIOx->OSPEEDR = temp;
 80034ec:	6084      	str	r4, [r0, #8]
        temp = GPIOx->OTYPER;
 80034ee:	6844      	ldr	r4, [r0, #4]
        temp &= ~(GPIO_OTYPER_OT_0 << position) ;
 80034f0:	43ac      	bics	r4, r5
 80034f2:	0025      	movs	r5, r4
        temp |= (((GPIO_Init->Mode & OUTPUT_TYPE) >> OUTPUT_TYPE_Pos) << position);
 80034f4:	090c      	lsrs	r4, r1, #4
 80034f6:	4661      	mov	r1, ip
 80034f8:	400c      	ands	r4, r1
 80034fa:	409c      	lsls	r4, r3
 80034fc:	432c      	orrs	r4, r5
        GPIOx->OTYPER = temp;
 80034fe:	6044      	str	r4, [r0, #4]
        temp = GPIOx->PUPDR;
 8003500:	68c5      	ldr	r5, [r0, #12]
        temp &= ~(GPIO_PUPDR_PUPD0 << (position * 2U));
 8003502:	9904      	ldr	r1, [sp, #16]
 8003504:	400d      	ands	r5, r1
        temp |= ((GPIO_Init->Pull) << (position * 2U));
 8003506:	9903      	ldr	r1, [sp, #12]
 8003508:	688c      	ldr	r4, [r1, #8]
 800350a:	40b4      	lsls	r4, r6
 800350c:	432c      	orrs	r4, r5
        GPIOx->PUPDR = temp;
 800350e:	60c4      	str	r4, [r0, #12]
      if ((GPIO_Init->Mode & GPIO_MODE) == MODE_AF)
 8003510:	2a02      	cmp	r2, #2
 8003512:	d111      	bne.n	8003538 <HAL_GPIO_Init+0xa8>
        temp &= ~(0xFUL << ((uint32_t)(position & 0x07UL) * 4U));
 8003514:	2507      	movs	r5, #7
 8003516:	210f      	movs	r1, #15
 8003518:	401d      	ands	r5, r3
 800351a:	00ad      	lsls	r5, r5, #2
 800351c:	40a9      	lsls	r1, r5
        temp = GPIOx->AFR[position >> 3U];
 800351e:	08dc      	lsrs	r4, r3, #3
 8003520:	00a4      	lsls	r4, r4, #2
 8003522:	1904      	adds	r4, r0, r4
 8003524:	6a27      	ldr	r7, [r4, #32]
        temp &= ~(0xFUL << ((uint32_t)(position & 0x07UL) * 4U));
 8003526:	438f      	bics	r7, r1
        temp |= ((uint32_t)(GPIO_Init->Alternate) << (((uint32_t)position & (uint32_t)0x07U) * 4U));
 8003528:	9903      	ldr	r1, [sp, #12]
 800352a:	6909      	ldr	r1, [r1, #16]
 800352c:	40a9      	lsls	r1, r5
 800352e:	430f      	orrs	r7, r1
        GPIOx->AFR[position >> 3U] = temp;
 8003530:	6227      	str	r7, [r4, #32]
 8003532:	e001      	b.n	8003538 <HAL_GPIO_Init+0xa8>
      if ((GPIO_Init->Mode & GPIO_MODE) != MODE_ANALOG)
 8003534:	2a03      	cmp	r2, #3
 8003536:	d1e3      	bne.n	8003500 <HAL_GPIO_Init+0x70>
      temp |= ((GPIO_Init->Mode & GPIO_MODE) << (position * 2U));
 8003538:	40b2      	lsls	r2, r6
      temp = GPIOx->MODER;
 800353a:	6804      	ldr	r4, [r0, #0]
      temp &= ~(GPIO_MODER_MODE0 << (position * 2U));
 800353c:	9904      	ldr	r1, [sp, #16]
 800353e:	4021      	ands	r1, r4
      temp |= ((GPIO_Init->Mode & GPIO_MODE) << (position * 2U));
 8003540:	430a      	orrs	r2, r1
      GPIOx->MODER = temp;
 8003542:	6002      	str	r2, [r0, #0]
      if ((GPIO_Init->Mode & EXTI_MODE) != 0x00U)
 8003544:	22c0      	movs	r2, #192	; 0xc0
 8003546:	9901      	ldr	r1, [sp, #4]
 8003548:	0292      	lsls	r2, r2, #10
 800354a:	4211      	tst	r1, r2
 800354c:	d050      	beq.n	80035f0 <HAL_GPIO_Init+0x160>
        __HAL_RCC_SYSCFG_CLK_ENABLE();
 800354e:	2701      	movs	r7, #1
 8003550:	4c29      	ldr	r4, [pc, #164]	; (80035f8 <HAL_GPIO_Init+0x168>)
        CLEAR_BIT(temp, (0x0FUL) << (4U * (position & 0x03U)));
 8003552:	2603      	movs	r6, #3
        __HAL_RCC_SYSCFG_CLK_ENABLE();
 8003554:	6b62      	ldr	r2, [r4, #52]	; 0x34
        CLEAR_BIT(temp, (0x0FUL) << (4U * (position & 0x03U)));
 8003556:	001d      	movs	r5, r3
        __HAL_RCC_SYSCFG_CLK_ENABLE();
 8003558:	433a      	orrs	r2, r7
 800355a:	6362      	str	r2, [r4, #52]	; 0x34
        temp = SYSCFG->EXTICR[position >> 2U];
 800355c:	4a27      	ldr	r2, [pc, #156]	; (80035fc <HAL_GPIO_Init+0x16c>)
 800355e:	089c      	lsrs	r4, r3, #2
 8003560:	00a4      	lsls	r4, r4, #2
 8003562:	18a4      	adds	r4, r4, r2
 8003564:	68a2      	ldr	r2, [r4, #8]
        CLEAR_BIT(temp, (0x0FUL) << (4U * (position & 0x03U)));
 8003566:	4035      	ands	r5, r6
        temp = SYSCFG->EXTICR[position >> 2U];
 8003568:	4694      	mov	ip, r2
        CLEAR_BIT(temp, (0x0FUL) << (4U * (position & 0x03U)));
 800356a:	220f      	movs	r2, #15
 800356c:	00ad      	lsls	r5, r5, #2
 800356e:	40aa      	lsls	r2, r5
 8003570:	4661      	mov	r1, ip
 8003572:	4391      	bics	r1, r2
        SET_BIT(temp, (GPIO_GET_INDEX(GPIOx)) << (4 * (position & 0x03U)));
 8003574:	22a0      	movs	r2, #160	; 0xa0
 8003576:	05d2      	lsls	r2, r2, #23
 8003578:	4694      	mov	ip, r2
 800357a:	2200      	movs	r2, #0
 800357c:	4560      	cmp	r0, ip
 800357e:	d00d      	beq.n	800359c <HAL_GPIO_Init+0x10c>
 8003580:	4a1f      	ldr	r2, [pc, #124]	; (8003600 <HAL_GPIO_Init+0x170>)
 8003582:	4694      	mov	ip, r2
 8003584:	003a      	movs	r2, r7
 8003586:	4560      	cmp	r0, ip
 8003588:	d008      	beq.n	800359c <HAL_GPIO_Init+0x10c>
 800358a:	4f1e      	ldr	r7, [pc, #120]	; (8003604 <HAL_GPIO_Init+0x174>)
 800358c:	1892      	adds	r2, r2, r2
 800358e:	42b8      	cmp	r0, r7
 8003590:	d004      	beq.n	800359c <HAL_GPIO_Init+0x10c>
 8003592:	4f1d      	ldr	r7, [pc, #116]	; (8003608 <HAL_GPIO_Init+0x178>)
 8003594:	0032      	movs	r2, r6
 8003596:	42b8      	cmp	r0, r7
 8003598:	d000      	beq.n	800359c <HAL_GPIO_Init+0x10c>
 800359a:	9a05      	ldr	r2, [sp, #20]
 800359c:	40aa      	lsls	r2, r5
 800359e:	430a      	orrs	r2, r1
        temp &= ~((uint32_t)iocurrent);
 80035a0:	9902      	ldr	r1, [sp, #8]
        SYSCFG->EXTICR[position >> 2U] = temp;
 80035a2:	60a2      	str	r2, [r4, #8]
          temp |= iocurrent;
 80035a4:	000d      	movs	r5, r1
        temp = EXTI->IMR;
 80035a6:	4a19      	ldr	r2, [pc, #100]	; (800360c <HAL_GPIO_Init+0x17c>)
        temp &= ~((uint32_t)iocurrent);
 80035a8:	43cc      	mvns	r4, r1
        temp = EXTI->IMR;
 80035aa:	6816      	ldr	r6, [r2, #0]
        if ((GPIO_Init->Mode & EXTI_IT) != 0x00U)
 80035ac:	9901      	ldr	r1, [sp, #4]
          temp |= iocurrent;
 80035ae:	4335      	orrs	r5, r6
        if ((GPIO_Init->Mode & EXTI_IT) != 0x00U)
 80035b0:	03c9      	lsls	r1, r1, #15
 80035b2:	d401      	bmi.n	80035b8 <HAL_GPIO_Init+0x128>
        temp &= ~((uint32_t)iocurrent);
 80035b4:	0035      	movs	r5, r6
 80035b6:	4025      	ands	r5, r4
        EXTI->IMR = temp;
 80035b8:	6015      	str	r5, [r2, #0]
        temp = EXTI->EMR;
 80035ba:	6856      	ldr	r6, [r2, #4]
          temp |= iocurrent;
 80035bc:	9d02      	ldr	r5, [sp, #8]
        if ((GPIO_Init->Mode & EXTI_EVT) != 0x00U)
 80035be:	9901      	ldr	r1, [sp, #4]
          temp |= iocurrent;
 80035c0:	4335      	orrs	r5, r6
        if ((GPIO_Init->Mode & EXTI_EVT) != 0x00U)
 80035c2:	0389      	lsls	r1, r1, #14
 80035c4:	d401      	bmi.n	80035ca <HAL_GPIO_Init+0x13a>
        temp &= ~((uint32_t)iocurrent);
 80035c6:	0035      	movs	r5, r6
 80035c8:	4025      	ands	r5, r4
        EXTI->EMR = temp;
 80035ca:	6055      	str	r5, [r2, #4]
        temp = EXTI->RTSR;
 80035cc:	6896      	ldr	r6, [r2, #8]
          temp |= iocurrent;
 80035ce:	9d02      	ldr	r5, [sp, #8]
        if ((GPIO_Init->Mode & TRIGGER_RISING) != 0x00U)
 80035d0:	9901      	ldr	r1, [sp, #4]
          temp |= iocurrent;
 80035d2:	4335      	orrs	r5, r6
        if ((GPIO_Init->Mode & TRIGGER_RISING) != 0x00U)
 80035d4:	02c9      	lsls	r1, r1, #11
 80035d6:	d401      	bmi.n	80035dc <HAL_GPIO_Init+0x14c>
        temp &= ~((uint32_t)iocurrent);
 80035d8:	0035      	movs	r5, r6
 80035da:	4025      	ands	r5, r4
        EXTI->RTSR = temp;
 80035dc:	6095      	str	r5, [r2, #8]
        temp = EXTI->FTSR;
 80035de:	68d5      	ldr	r5, [r2, #12]
          temp |= iocurrent;
 80035e0:	9e02      	ldr	r6, [sp, #8]
        if ((GPIO_Init->Mode & TRIGGER_FALLING) != 0x00U)
 80035e2:	9901      	ldr	r1, [sp, #4]
          temp |= iocurrent;
 80035e4:	432e      	orrs	r6, r5
        if ((GPIO_Init->Mode & TRIGGER_FALLING) != 0x00U)
 80035e6:	0289      	lsls	r1, r1, #10
 80035e8:	d401      	bmi.n	80035ee <HAL_GPIO_Init+0x15e>
        temp &= ~((uint32_t)iocurrent);
 80035ea:	4025      	ands	r5, r4
 80035ec:	002e      	movs	r6, r5
        EXTI->FTSR = temp;
 80035ee:	60d6      	str	r6, [r2, #12]
    position++;
 80035f0:	3301      	adds	r3, #1
 80035f2:	e757      	b.n	80034a4 <HAL_GPIO_Init+0x14>
 80035f4:	afffe400 	.word	0xafffe400
 80035f8:	40021000 	.word	0x40021000
 80035fc:	40010000 	.word	0x40010000
 8003600:	50000400 	.word	0x50000400
 8003604:	50000800 	.word	0x50000800
 8003608:	50000c00 	.word	0x50000c00
 800360c:	40010400 	.word	0x40010400

08003610 <HAL_GPIO_ReadPin>:
  GPIO_PinState bitstatus;

  /* Check the parameters */
  assert_param(IS_GPIO_PIN_AVAILABLE(GPIOx, GPIO_Pin));

  if ((GPIOx->IDR & GPIO_Pin) != (uint32_t)GPIO_PIN_RESET)
 8003610:	6900      	ldr	r0, [r0, #16]
 8003612:	4008      	ands	r0, r1
 8003614:	1e43      	subs	r3, r0, #1
 8003616:	4198      	sbcs	r0, r3
  }
  else
  {
    bitstatus = GPIO_PIN_RESET;
  }
  return bitstatus;
 8003618:	b2c0      	uxtb	r0, r0
}
 800361a:	4770      	bx	lr

0800361c <HAL_GPIO_WritePin>:
{
  /* Check the parameters */
  assert_param(IS_GPIO_PIN_AVAILABLE(GPIOx, GPIO_Pin));
  assert_param(IS_GPIO_PIN_ACTION(PinState));

  if (PinState != GPIO_PIN_RESET)
 800361c:	2a00      	cmp	r2, #0
 800361e:	d001      	beq.n	8003624 <HAL_GPIO_WritePin+0x8>
  {
    GPIOx->BSRR = GPIO_Pin;
 8003620:	6181      	str	r1, [r0, #24]
  }
  else
  {
    GPIOx->BRR = GPIO_Pin ;
  }
}
 8003622:	4770      	bx	lr
    GPIOx->BRR = GPIO_Pin ;
 8003624:	6281      	str	r1, [r0, #40]	; 0x28
}
 8003626:	e7fc      	b.n	8003622 <HAL_GPIO_WritePin+0x6>

08003628 <I2C_Flush_TXDR>:
  */
static void I2C_Flush_TXDR(I2C_HandleTypeDef *hi2c)
{
  /* If a pending TXIS flag is set */
  /* Write a dummy data in TXDR to clear it */
  if (__HAL_I2C_GET_FLAG(hi2c, I2C_FLAG_TXIS) != RESET)
 8003628:	6803      	ldr	r3, [r0, #0]
 800362a:	699a      	ldr	r2, [r3, #24]
 800362c:	0792      	lsls	r2, r2, #30
 800362e:	d501      	bpl.n	8003634 <I2C_Flush_TXDR+0xc>
  {
    hi2c->Instance->TXDR = 0x00U;
 8003630:	2200      	movs	r2, #0
 8003632:	629a      	str	r2, [r3, #40]	; 0x28
  }

  /* Flush TX register if not empty */
  if (__HAL_I2C_GET_FLAG(hi2c, I2C_FLAG_TXE) == RESET)
 8003634:	2201      	movs	r2, #1
 8003636:	6999      	ldr	r1, [r3, #24]
 8003638:	4211      	tst	r1, r2
 800363a:	d102      	bne.n	8003642 <I2C_Flush_TXDR+0x1a>
  {
    __HAL_I2C_CLEAR_FLAG(hi2c, I2C_FLAG_TXE);
 800363c:	6999      	ldr	r1, [r3, #24]
 800363e:	430a      	orrs	r2, r1
 8003640:	619a      	str	r2, [r3, #24]
  }
}
 8003642:	4770      	bx	lr

08003644 <I2C_TransferConfig>:
  *     @arg @ref I2C_GENERATE_START_WRITE Generate Restart for write request.
  * @retval None
  */
static void I2C_TransferConfig(I2C_HandleTypeDef *hi2c, uint16_t DevAddress, uint8_t Size, uint32_t Mode,
                               uint32_t Request)
{
 8003644:	b530      	push	{r4, r5, lr}
 8003646:	9c03      	ldr	r4, [sp, #12]
  assert_param(IS_I2C_ALL_INSTANCE(hi2c->Instance));
  assert_param(IS_TRANSFER_MODE(Mode));
  assert_param(IS_TRANSFER_REQUEST(Request));

  /* update CR2 register */
  MODIFY_REG(hi2c->Instance->CR2,
 8003648:	0412      	lsls	r2, r2, #16
 800364a:	6800      	ldr	r0, [r0, #0]
 800364c:	4322      	orrs	r2, r4
 800364e:	431a      	orrs	r2, r3
 8003650:	4b05      	ldr	r3, [pc, #20]	; (8003668 <I2C_TransferConfig+0x24>)
 8003652:	6845      	ldr	r5, [r0, #4]
 8003654:	0589      	lsls	r1, r1, #22
 8003656:	0d64      	lsrs	r4, r4, #21
 8003658:	0d89      	lsrs	r1, r1, #22
 800365a:	431c      	orrs	r4, r3
 800365c:	43a5      	bics	r5, r4
 800365e:	430a      	orrs	r2, r1
 8003660:	432a      	orrs	r2, r5
 8003662:	6042      	str	r2, [r0, #4]
               (I2C_CR2_RD_WRN & (uint32_t)(Request >> (31U - I2C_CR2_RD_WRN_Pos))) | \
               I2C_CR2_START | I2C_CR2_STOP)), \
             (uint32_t)(((uint32_t)DevAddress & I2C_CR2_SADD) | \
                        (((uint32_t)Size << I2C_CR2_NBYTES_Pos) & I2C_CR2_NBYTES) | \
                        (uint32_t)Mode | (uint32_t)Request));
}
 8003664:	bd30      	pop	{r4, r5, pc}
 8003666:	46c0      	nop			; (mov r8, r8)
 8003668:	03ff63ff 	.word	0x03ff63ff

0800366c <I2C_IsAcknowledgeFailed>:
{
 800366c:	b5f8      	push	{r3, r4, r5, r6, r7, lr}
  if (__HAL_I2C_GET_FLAG(hi2c, I2C_FLAG_AF) == SET)
 800366e:	6803      	ldr	r3, [r0, #0]
{
 8003670:	0016      	movs	r6, r2
  if (__HAL_I2C_GET_FLAG(hi2c, I2C_FLAG_AF) == SET)
 8003672:	699a      	ldr	r2, [r3, #24]
{
 8003674:	0004      	movs	r4, r0
 8003676:	000d      	movs	r5, r1
  return HAL_OK;
 8003678:	2000      	movs	r0, #0
  if (__HAL_I2C_GET_FLAG(hi2c, I2C_FLAG_AF) == SET)
 800367a:	06d2      	lsls	r2, r2, #27
 800367c:	d536      	bpl.n	80036ec <I2C_IsAcknowledgeFailed+0x80>
    if (I2C_GET_STOP_MODE(hi2c) != I2C_AUTOEND_MODE)
 800367e:	685a      	ldr	r2, [r3, #4]
 8003680:	0192      	lsls	r2, r2, #6
 8003682:	d404      	bmi.n	800368e <I2C_IsAcknowledgeFailed+0x22>
      hi2c->Instance->CR2 |= I2C_CR2_STOP;
 8003684:	2280      	movs	r2, #128	; 0x80
 8003686:	6859      	ldr	r1, [r3, #4]
 8003688:	01d2      	lsls	r2, r2, #7
 800368a:	430a      	orrs	r2, r1
 800368c:	605a      	str	r2, [r3, #4]
    while (__HAL_I2C_GET_FLAG(hi2c, I2C_FLAG_STOPF) == RESET)
 800368e:	2720      	movs	r7, #32
 8003690:	6823      	ldr	r3, [r4, #0]
 8003692:	699a      	ldr	r2, [r3, #24]
 8003694:	423a      	tst	r2, r7
 8003696:	d012      	beq.n	80036be <I2C_IsAcknowledgeFailed+0x52>
    __HAL_I2C_CLEAR_FLAG(hi2c, I2C_FLAG_AF);
 8003698:	2210      	movs	r2, #16
    I2C_Flush_TXDR(hi2c);
 800369a:	0020      	movs	r0, r4
    __HAL_I2C_CLEAR_FLAG(hi2c, I2C_FLAG_AF);
 800369c:	61da      	str	r2, [r3, #28]
    __HAL_I2C_CLEAR_FLAG(hi2c, I2C_FLAG_STOPF);
 800369e:	61df      	str	r7, [r3, #28]
    I2C_Flush_TXDR(hi2c);
 80036a0:	f7ff ffc2 	bl	8003628 <I2C_Flush_TXDR>
    I2C_RESET_CR2(hi2c);
 80036a4:	6822      	ldr	r2, [r4, #0]
 80036a6:	4912      	ldr	r1, [pc, #72]	; (80036f0 <I2C_IsAcknowledgeFailed+0x84>)
 80036a8:	6853      	ldr	r3, [r2, #4]
 80036aa:	400b      	ands	r3, r1
 80036ac:	6053      	str	r3, [r2, #4]
    hi2c->ErrorCode |= HAL_I2C_ERROR_AF;
 80036ae:	2304      	movs	r3, #4
 80036b0:	6c62      	ldr	r2, [r4, #68]	; 0x44
 80036b2:	4313      	orrs	r3, r2
 80036b4:	6463      	str	r3, [r4, #68]	; 0x44
    hi2c->State = HAL_I2C_STATE_READY;
 80036b6:	0023      	movs	r3, r4
 80036b8:	3341      	adds	r3, #65	; 0x41
 80036ba:	701f      	strb	r7, [r3, #0]
 80036bc:	e00f      	b.n	80036de <I2C_IsAcknowledgeFailed+0x72>
      if (Timeout != HAL_MAX_DELAY)
 80036be:	1c6a      	adds	r2, r5, #1
 80036c0:	d0e7      	beq.n	8003692 <I2C_IsAcknowledgeFailed+0x26>
        if (((HAL_GetTick() - Tickstart) > Timeout) || (Timeout == 0U))
 80036c2:	f7ff fabd 	bl	8002c40 <HAL_GetTick>
 80036c6:	1b80      	subs	r0, r0, r6
 80036c8:	4285      	cmp	r5, r0
 80036ca:	d301      	bcc.n	80036d0 <I2C_IsAcknowledgeFailed+0x64>
 80036cc:	2d00      	cmp	r5, #0
 80036ce:	d1df      	bne.n	8003690 <I2C_IsAcknowledgeFailed+0x24>
          hi2c->ErrorCode |= HAL_I2C_ERROR_TIMEOUT;
 80036d0:	2220      	movs	r2, #32
 80036d2:	6c63      	ldr	r3, [r4, #68]	; 0x44
 80036d4:	4313      	orrs	r3, r2
 80036d6:	6463      	str	r3, [r4, #68]	; 0x44
          hi2c->State = HAL_I2C_STATE_READY;
 80036d8:	0023      	movs	r3, r4
 80036da:	3341      	adds	r3, #65	; 0x41
 80036dc:	701a      	strb	r2, [r3, #0]
    hi2c->Mode = HAL_I2C_MODE_NONE;
 80036de:	0022      	movs	r2, r4
 80036e0:	2300      	movs	r3, #0
    return HAL_ERROR;
 80036e2:	2001      	movs	r0, #1
    hi2c->Mode = HAL_I2C_MODE_NONE;
 80036e4:	3242      	adds	r2, #66	; 0x42
    __HAL_UNLOCK(hi2c);
 80036e6:	3440      	adds	r4, #64	; 0x40
    hi2c->Mode = HAL_I2C_MODE_NONE;
 80036e8:	7013      	strb	r3, [r2, #0]
    __HAL_UNLOCK(hi2c);
 80036ea:	7023      	strb	r3, [r4, #0]
}
 80036ec:	bdf8      	pop	{r3, r4, r5, r6, r7, pc}
 80036ee:	46c0      	nop			; (mov r8, r8)
 80036f0:	fe00e800 	.word	0xfe00e800

080036f4 <I2C_WaitOnTXISFlagUntilTimeout>:
{
 80036f4:	b5f8      	push	{r3, r4, r5, r6, r7, lr}
 80036f6:	0004      	movs	r4, r0
 80036f8:	000d      	movs	r5, r1
 80036fa:	0016      	movs	r6, r2
  while (__HAL_I2C_GET_FLAG(hi2c, I2C_FLAG_TXIS) == RESET)
 80036fc:	2702      	movs	r7, #2
 80036fe:	6823      	ldr	r3, [r4, #0]
 8003700:	699b      	ldr	r3, [r3, #24]
 8003702:	423b      	tst	r3, r7
 8003704:	d001      	beq.n	800370a <I2C_WaitOnTXISFlagUntilTimeout+0x16>
  return HAL_OK;
 8003706:	2000      	movs	r0, #0
}
 8003708:	bdf8      	pop	{r3, r4, r5, r6, r7, pc}
    if (I2C_IsAcknowledgeFailed(hi2c, Timeout, Tickstart) != HAL_OK)
 800370a:	0032      	movs	r2, r6
 800370c:	0029      	movs	r1, r5
 800370e:	0020      	movs	r0, r4
 8003710:	f7ff ffac 	bl	800366c <I2C_IsAcknowledgeFailed>
 8003714:	2800      	cmp	r0, #0
 8003716:	d115      	bne.n	8003744 <I2C_WaitOnTXISFlagUntilTimeout+0x50>
    if (Timeout != HAL_MAX_DELAY)
 8003718:	1c6b      	adds	r3, r5, #1
 800371a:	d0f0      	beq.n	80036fe <I2C_WaitOnTXISFlagUntilTimeout+0xa>
      if (((HAL_GetTick() - Tickstart) > Timeout) || (Timeout == 0U))
 800371c:	f7ff fa90 	bl	8002c40 <HAL_GetTick>
 8003720:	1b80      	subs	r0, r0, r6
 8003722:	42a8      	cmp	r0, r5
 8003724:	d801      	bhi.n	800372a <I2C_WaitOnTXISFlagUntilTimeout+0x36>
 8003726:	2d00      	cmp	r5, #0
 8003728:	d1e9      	bne.n	80036fe <I2C_WaitOnTXISFlagUntilTimeout+0xa>
        hi2c->ErrorCode |= HAL_I2C_ERROR_TIMEOUT;
 800372a:	2220      	movs	r2, #32
 800372c:	6c63      	ldr	r3, [r4, #68]	; 0x44
 800372e:	4313      	orrs	r3, r2
 8003730:	6463      	str	r3, [r4, #68]	; 0x44
        hi2c->State = HAL_I2C_STATE_READY;
 8003732:	0023      	movs	r3, r4
 8003734:	3341      	adds	r3, #65	; 0x41
 8003736:	701a      	strb	r2, [r3, #0]
        hi2c->Mode = HAL_I2C_MODE_NONE;
 8003738:	0022      	movs	r2, r4
 800373a:	2300      	movs	r3, #0
 800373c:	3242      	adds	r2, #66	; 0x42
        __HAL_UNLOCK(hi2c);
 800373e:	3440      	adds	r4, #64	; 0x40
        hi2c->Mode = HAL_I2C_MODE_NONE;
 8003740:	7013      	strb	r3, [r2, #0]
        __HAL_UNLOCK(hi2c);
 8003742:	7023      	strb	r3, [r4, #0]
      return HAL_ERROR;
 8003744:	2001      	movs	r0, #1
 8003746:	e7df      	b.n	8003708 <I2C_WaitOnTXISFlagUntilTimeout+0x14>

08003748 <I2C_WaitOnRXNEFlagUntilTimeout>:
{
 8003748:	b5f8      	push	{r3, r4, r5, r6, r7, lr}
 800374a:	0004      	movs	r4, r0
 800374c:	000d      	movs	r5, r1
 800374e:	0016      	movs	r6, r2
    if (__HAL_I2C_GET_FLAG(hi2c, I2C_FLAG_STOPF) == SET)
 8003750:	2720      	movs	r7, #32
  while (__HAL_I2C_GET_FLAG(hi2c, I2C_FLAG_RXNE) == RESET)
 8003752:	2204      	movs	r2, #4
 8003754:	6823      	ldr	r3, [r4, #0]
 8003756:	699b      	ldr	r3, [r3, #24]
 8003758:	4213      	tst	r3, r2
 800375a:	d111      	bne.n	8003780 <I2C_WaitOnRXNEFlagUntilTimeout+0x38>
    if (I2C_IsAcknowledgeFailed(hi2c, Timeout, Tickstart) != HAL_OK)
 800375c:	0032      	movs	r2, r6
 800375e:	0029      	movs	r1, r5
 8003760:	0020      	movs	r0, r4
 8003762:	f7ff ff83 	bl	800366c <I2C_IsAcknowledgeFailed>
 8003766:	2800      	cmp	r0, #0
 8003768:	d119      	bne.n	800379e <I2C_WaitOnRXNEFlagUntilTimeout+0x56>
    if (__HAL_I2C_GET_FLAG(hi2c, I2C_FLAG_STOPF) == SET)
 800376a:	6823      	ldr	r3, [r4, #0]
 800376c:	699a      	ldr	r2, [r3, #24]
 800376e:	423a      	tst	r2, r7
 8003770:	d017      	beq.n	80037a2 <I2C_WaitOnRXNEFlagUntilTimeout+0x5a>
      if ((__HAL_I2C_GET_FLAG(hi2c, I2C_FLAG_RXNE) == SET) && (hi2c->XferSize > 0U))
 8003772:	2104      	movs	r1, #4
 8003774:	699a      	ldr	r2, [r3, #24]
 8003776:	420a      	tst	r2, r1
 8003778:	d004      	beq.n	8003784 <I2C_WaitOnRXNEFlagUntilTimeout+0x3c>
 800377a:	8d22      	ldrh	r2, [r4, #40]	; 0x28
 800377c:	2a00      	cmp	r2, #0
 800377e:	d001      	beq.n	8003784 <I2C_WaitOnRXNEFlagUntilTimeout+0x3c>
        return HAL_OK;
 8003780:	2000      	movs	r0, #0
}
 8003782:	bdf8      	pop	{r3, r4, r5, r6, r7, pc}
        __HAL_I2C_CLEAR_FLAG(hi2c, I2C_FLAG_STOPF);
 8003784:	61df      	str	r7, [r3, #28]
        I2C_RESET_CR2(hi2c);
 8003786:	685a      	ldr	r2, [r3, #4]
 8003788:	490e      	ldr	r1, [pc, #56]	; (80037c4 <I2C_WaitOnRXNEFlagUntilTimeout+0x7c>)
 800378a:	400a      	ands	r2, r1
 800378c:	605a      	str	r2, [r3, #4]
        hi2c->State = HAL_I2C_STATE_READY;
 800378e:	0022      	movs	r2, r4
        hi2c->ErrorCode = HAL_I2C_ERROR_NONE;
 8003790:	2300      	movs	r3, #0
        hi2c->State = HAL_I2C_STATE_READY;
 8003792:	3241      	adds	r2, #65	; 0x41
        hi2c->ErrorCode = HAL_I2C_ERROR_NONE;
 8003794:	6463      	str	r3, [r4, #68]	; 0x44
        hi2c->State = HAL_I2C_STATE_READY;
 8003796:	7017      	strb	r7, [r2, #0]
        __HAL_UNLOCK(hi2c);
 8003798:	3440      	adds	r4, #64	; 0x40
        hi2c->Mode = HAL_I2C_MODE_NONE;
 800379a:	7053      	strb	r3, [r2, #1]
      __HAL_UNLOCK(hi2c);
 800379c:	7023      	strb	r3, [r4, #0]
      return HAL_ERROR;
 800379e:	2001      	movs	r0, #1
 80037a0:	e7ef      	b.n	8003782 <I2C_WaitOnRXNEFlagUntilTimeout+0x3a>
    if (((HAL_GetTick() - Tickstart) > Timeout) || (Timeout == 0U))
 80037a2:	f7ff fa4d 	bl	8002c40 <HAL_GetTick>
 80037a6:	1b80      	subs	r0, r0, r6
 80037a8:	42a8      	cmp	r0, r5
 80037aa:	d801      	bhi.n	80037b0 <I2C_WaitOnRXNEFlagUntilTimeout+0x68>
 80037ac:	2d00      	cmp	r5, #0
 80037ae:	d1d0      	bne.n	8003752 <I2C_WaitOnRXNEFlagUntilTimeout+0xa>
      hi2c->ErrorCode |= HAL_I2C_ERROR_TIMEOUT;
 80037b0:	2220      	movs	r2, #32
 80037b2:	6c63      	ldr	r3, [r4, #68]	; 0x44
 80037b4:	4313      	orrs	r3, r2
 80037b6:	6463      	str	r3, [r4, #68]	; 0x44
      hi2c->State = HAL_I2C_STATE_READY;
 80037b8:	0023      	movs	r3, r4
 80037ba:	3341      	adds	r3, #65	; 0x41
 80037bc:	701a      	strb	r2, [r3, #0]
      __HAL_UNLOCK(hi2c);
 80037be:	3440      	adds	r4, #64	; 0x40
 80037c0:	2300      	movs	r3, #0
 80037c2:	e7eb      	b.n	800379c <I2C_WaitOnRXNEFlagUntilTimeout+0x54>
 80037c4:	fe00e800 	.word	0xfe00e800

080037c8 <I2C_WaitOnFlagUntilTimeout>:
{
 80037c8:	b5f8      	push	{r3, r4, r5, r6, r7, lr}
 80037ca:	0004      	movs	r4, r0
 80037cc:	000e      	movs	r6, r1
 80037ce:	0017      	movs	r7, r2
 80037d0:	001d      	movs	r5, r3
  while (__HAL_I2C_GET_FLAG(hi2c, Flag) == Status)
 80037d2:	6822      	ldr	r2, [r4, #0]
 80037d4:	6993      	ldr	r3, [r2, #24]
 80037d6:	4033      	ands	r3, r6
 80037d8:	1b9b      	subs	r3, r3, r6
 80037da:	4259      	negs	r1, r3
 80037dc:	414b      	adcs	r3, r1
 80037de:	42bb      	cmp	r3, r7
 80037e0:	d001      	beq.n	80037e6 <I2C_WaitOnFlagUntilTimeout+0x1e>
  return HAL_OK;
 80037e2:	2000      	movs	r0, #0
 80037e4:	e017      	b.n	8003816 <I2C_WaitOnFlagUntilTimeout+0x4e>
    if (Timeout != HAL_MAX_DELAY)
 80037e6:	1c6b      	adds	r3, r5, #1
 80037e8:	d0f4      	beq.n	80037d4 <I2C_WaitOnFlagUntilTimeout+0xc>
      if (((HAL_GetTick() - Tickstart) > Timeout) || (Timeout == 0U))
 80037ea:	f7ff fa29 	bl	8002c40 <HAL_GetTick>
 80037ee:	9b06      	ldr	r3, [sp, #24]
 80037f0:	1ac0      	subs	r0, r0, r3
 80037f2:	42a8      	cmp	r0, r5
 80037f4:	d801      	bhi.n	80037fa <I2C_WaitOnFlagUntilTimeout+0x32>
 80037f6:	2d00      	cmp	r5, #0
 80037f8:	d1eb      	bne.n	80037d2 <I2C_WaitOnFlagUntilTimeout+0xa>
        hi2c->ErrorCode |= HAL_I2C_ERROR_TIMEOUT;
 80037fa:	2220      	movs	r2, #32
 80037fc:	6c63      	ldr	r3, [r4, #68]	; 0x44
        __HAL_UNLOCK(hi2c);
 80037fe:	2001      	movs	r0, #1
        hi2c->ErrorCode |= HAL_I2C_ERROR_TIMEOUT;
 8003800:	4313      	orrs	r3, r2
 8003802:	6463      	str	r3, [r4, #68]	; 0x44
        hi2c->State = HAL_I2C_STATE_READY;
 8003804:	0023      	movs	r3, r4
 8003806:	3341      	adds	r3, #65	; 0x41
 8003808:	701a      	strb	r2, [r3, #0]
        hi2c->Mode = HAL_I2C_MODE_NONE;
 800380a:	0022      	movs	r2, r4
 800380c:	2300      	movs	r3, #0
 800380e:	3242      	adds	r2, #66	; 0x42
        __HAL_UNLOCK(hi2c);
 8003810:	3440      	adds	r4, #64	; 0x40
        hi2c->Mode = HAL_I2C_MODE_NONE;
 8003812:	7013      	strb	r3, [r2, #0]
        __HAL_UNLOCK(hi2c);
 8003814:	7023      	strb	r3, [r4, #0]
}
 8003816:	bdf8      	pop	{r3, r4, r5, r6, r7, pc}

08003818 <I2C_WaitOnSTOPFlagUntilTimeout>:
{
 8003818:	b5f8      	push	{r3, r4, r5, r6, r7, lr}
 800381a:	0004      	movs	r4, r0
 800381c:	000d      	movs	r5, r1
 800381e:	0016      	movs	r6, r2
  while (__HAL_I2C_GET_FLAG(hi2c, I2C_FLAG_STOPF) == RESET)
 8003820:	2720      	movs	r7, #32
 8003822:	6823      	ldr	r3, [r4, #0]
 8003824:	699b      	ldr	r3, [r3, #24]
 8003826:	423b      	tst	r3, r7
 8003828:	d001      	beq.n	800382e <I2C_WaitOnSTOPFlagUntilTimeout+0x16>
  return HAL_OK;
 800382a:	2000      	movs	r0, #0
}
 800382c:	bdf8      	pop	{r3, r4, r5, r6, r7, pc}
    if (I2C_IsAcknowledgeFailed(hi2c, Timeout, Tickstart) != HAL_OK)
 800382e:	0032      	movs	r2, r6
 8003830:	0029      	movs	r1, r5
 8003832:	0020      	movs	r0, r4
 8003834:	f7ff ff1a 	bl	800366c <I2C_IsAcknowledgeFailed>
 8003838:	2800      	cmp	r0, #0
 800383a:	d113      	bne.n	8003864 <I2C_WaitOnSTOPFlagUntilTimeout+0x4c>
    if (((HAL_GetTick() - Tickstart) > Timeout) || (Timeout == 0U))
 800383c:	f7ff fa00 	bl	8002c40 <HAL_GetTick>
 8003840:	1b80      	subs	r0, r0, r6
 8003842:	42a8      	cmp	r0, r5
 8003844:	d801      	bhi.n	800384a <I2C_WaitOnSTOPFlagUntilTimeout+0x32>
 8003846:	2d00      	cmp	r5, #0
 8003848:	d1eb      	bne.n	8003822 <I2C_WaitOnSTOPFlagUntilTimeout+0xa>
        hi2c->ErrorCode |= HAL_I2C_ERROR_TIMEOUT;
 800384a:	2220      	movs	r2, #32
 800384c:	6c63      	ldr	r3, [r4, #68]	; 0x44
 800384e:	4313      	orrs	r3, r2
 8003850:	6463      	str	r3, [r4, #68]	; 0x44
        hi2c->State = HAL_I2C_STATE_READY;
 8003852:	0023      	movs	r3, r4
 8003854:	3341      	adds	r3, #65	; 0x41
 8003856:	701a      	strb	r2, [r3, #0]
        hi2c->Mode = HAL_I2C_MODE_NONE;
 8003858:	0022      	movs	r2, r4
 800385a:	2300      	movs	r3, #0
 800385c:	3242      	adds	r2, #66	; 0x42
        __HAL_UNLOCK(hi2c);
 800385e:	3440      	adds	r4, #64	; 0x40
        hi2c->Mode = HAL_I2C_MODE_NONE;
 8003860:	7013      	strb	r3, [r2, #0]
        __HAL_UNLOCK(hi2c);
 8003862:	7023      	strb	r3, [r4, #0]
      return HAL_ERROR;
 8003864:	2001      	movs	r0, #1
 8003866:	e7e1      	b.n	800382c <I2C_WaitOnSTOPFlagUntilTimeout+0x14>

08003868 <HAL_I2C_Init>:
{
 8003868:	b570      	push	{r4, r5, r6, lr}
 800386a:	0004      	movs	r4, r0
    return HAL_ERROR;
 800386c:	2001      	movs	r0, #1
  if (hi2c == NULL)
 800386e:	2c00      	cmp	r4, #0
 8003870:	d03f      	beq.n	80038f2 <HAL_I2C_Init+0x8a>
  if (hi2c->State == HAL_I2C_STATE_RESET)
 8003872:	0025      	movs	r5, r4
 8003874:	3541      	adds	r5, #65	; 0x41
 8003876:	782b      	ldrb	r3, [r5, #0]
 8003878:	b2da      	uxtb	r2, r3
 800387a:	2b00      	cmp	r3, #0
 800387c:	d105      	bne.n	800388a <HAL_I2C_Init+0x22>
    hi2c->Lock = HAL_UNLOCKED;
 800387e:	0023      	movs	r3, r4
 8003880:	3340      	adds	r3, #64	; 0x40
    HAL_I2C_MspInit(hi2c);
 8003882:	0020      	movs	r0, r4
    hi2c->Lock = HAL_UNLOCKED;
 8003884:	701a      	strb	r2, [r3, #0]
    HAL_I2C_MspInit(hi2c);
 8003886:	f7ff f8b1 	bl	80029ec <HAL_I2C_MspInit>
  hi2c->State = HAL_I2C_STATE_BUSY;
 800388a:	2324      	movs	r3, #36	; 0x24
  __HAL_I2C_DISABLE(hi2c);
 800388c:	2101      	movs	r1, #1
  hi2c->State = HAL_I2C_STATE_BUSY;
 800388e:	702b      	strb	r3, [r5, #0]
  __HAL_I2C_DISABLE(hi2c);
 8003890:	6823      	ldr	r3, [r4, #0]
  hi2c->Instance->OAR1 &= ~I2C_OAR1_OA1EN;
 8003892:	481d      	ldr	r0, [pc, #116]	; (8003908 <HAL_I2C_Init+0xa0>)
  __HAL_I2C_DISABLE(hi2c);
 8003894:	681a      	ldr	r2, [r3, #0]
    hi2c->Instance->OAR1 = (I2C_OAR1_OA1EN | hi2c->Init.OwnAddress1);
 8003896:	68a6      	ldr	r6, [r4, #8]
  __HAL_I2C_DISABLE(hi2c);
 8003898:	438a      	bics	r2, r1
 800389a:	601a      	str	r2, [r3, #0]
  hi2c->Instance->TIMINGR = hi2c->Init.Timing & TIMING_CLEAR_MASK;
 800389c:	6861      	ldr	r1, [r4, #4]
 800389e:	4a1b      	ldr	r2, [pc, #108]	; (800390c <HAL_I2C_Init+0xa4>)
 80038a0:	400a      	ands	r2, r1
 80038a2:	611a      	str	r2, [r3, #16]
  hi2c->Instance->OAR1 &= ~I2C_OAR1_OA1EN;
 80038a4:	689a      	ldr	r2, [r3, #8]
 80038a6:	4002      	ands	r2, r0
 80038a8:	609a      	str	r2, [r3, #8]
  if (hi2c->Init.AddressingMode == I2C_ADDRESSINGMODE_7BIT)
 80038aa:	68e2      	ldr	r2, [r4, #12]
 80038ac:	2a01      	cmp	r2, #1
 80038ae:	d121      	bne.n	80038f4 <HAL_I2C_Init+0x8c>
    hi2c->Instance->OAR1 = (I2C_OAR1_OA1EN | hi2c->Init.OwnAddress1);
 80038b0:	2180      	movs	r1, #128	; 0x80
 80038b2:	0209      	lsls	r1, r1, #8
 80038b4:	4331      	orrs	r1, r6
 80038b6:	6099      	str	r1, [r3, #8]
  hi2c->Instance->CR2 |= (I2C_CR2_AUTOEND | I2C_CR2_NACK);
 80038b8:	685a      	ldr	r2, [r3, #4]
 80038ba:	4915      	ldr	r1, [pc, #84]	; (8003910 <HAL_I2C_Init+0xa8>)
 80038bc:	4311      	orrs	r1, r2
 80038be:	6059      	str	r1, [r3, #4]
  hi2c->Instance->OAR2 &= ~I2C_DUALADDRESS_ENABLE;
 80038c0:	68da      	ldr	r2, [r3, #12]
  hi2c->Instance->OAR2 = (hi2c->Init.DualAddressMode | hi2c->Init.OwnAddress2 | \
 80038c2:	6961      	ldr	r1, [r4, #20]
  hi2c->Instance->OAR2 &= ~I2C_DUALADDRESS_ENABLE;
 80038c4:	4002      	ands	r2, r0
 80038c6:	60da      	str	r2, [r3, #12]
  hi2c->Instance->OAR2 = (hi2c->Init.DualAddressMode | hi2c->Init.OwnAddress2 | \
 80038c8:	6922      	ldr	r2, [r4, #16]
  hi2c->ErrorCode = HAL_I2C_ERROR_NONE;
 80038ca:	2000      	movs	r0, #0
  hi2c->Instance->OAR2 = (hi2c->Init.DualAddressMode | hi2c->Init.OwnAddress2 | \
 80038cc:	430a      	orrs	r2, r1
                          (hi2c->Init.OwnAddress2Masks << 8));
 80038ce:	69a1      	ldr	r1, [r4, #24]
 80038d0:	0209      	lsls	r1, r1, #8
  hi2c->Instance->OAR2 = (hi2c->Init.DualAddressMode | hi2c->Init.OwnAddress2 | \
 80038d2:	430a      	orrs	r2, r1
 80038d4:	60da      	str	r2, [r3, #12]
  hi2c->Instance->CR1 = (hi2c->Init.GeneralCallMode | hi2c->Init.NoStretchMode);
 80038d6:	6a21      	ldr	r1, [r4, #32]
 80038d8:	69e2      	ldr	r2, [r4, #28]
 80038da:	430a      	orrs	r2, r1
 80038dc:	601a      	str	r2, [r3, #0]
  __HAL_I2C_ENABLE(hi2c);
 80038de:	2201      	movs	r2, #1
 80038e0:	6819      	ldr	r1, [r3, #0]
 80038e2:	430a      	orrs	r2, r1
 80038e4:	601a      	str	r2, [r3, #0]
  hi2c->State = HAL_I2C_STATE_READY;
 80038e6:	2320      	movs	r3, #32
  hi2c->ErrorCode = HAL_I2C_ERROR_NONE;
 80038e8:	6460      	str	r0, [r4, #68]	; 0x44
  hi2c->State = HAL_I2C_STATE_READY;
 80038ea:	702b      	strb	r3, [r5, #0]
  hi2c->PreviousState = I2C_STATE_NONE;
 80038ec:	6320      	str	r0, [r4, #48]	; 0x30
  hi2c->Mode = HAL_I2C_MODE_NONE;
 80038ee:	3442      	adds	r4, #66	; 0x42
 80038f0:	7020      	strb	r0, [r4, #0]
}
 80038f2:	bd70      	pop	{r4, r5, r6, pc}
    hi2c->Instance->OAR1 = (I2C_OAR1_OA1EN | I2C_OAR1_OA1MODE | hi2c->Init.OwnAddress1);
 80038f4:	2184      	movs	r1, #132	; 0x84
 80038f6:	0209      	lsls	r1, r1, #8
 80038f8:	4331      	orrs	r1, r6
 80038fa:	6099      	str	r1, [r3, #8]
  if (hi2c->Init.AddressingMode == I2C_ADDRESSINGMODE_10BIT)
 80038fc:	2a02      	cmp	r2, #2
 80038fe:	d1db      	bne.n	80038b8 <HAL_I2C_Init+0x50>
    hi2c->Instance->CR2 = (I2C_CR2_ADD10);
 8003900:	2280      	movs	r2, #128	; 0x80
 8003902:	0112      	lsls	r2, r2, #4
 8003904:	605a      	str	r2, [r3, #4]
 8003906:	e7d7      	b.n	80038b8 <HAL_I2C_Init+0x50>
 8003908:	ffff7fff 	.word	0xffff7fff
 800390c:	f0ffffff 	.word	0xf0ffffff
 8003910:	02008000 	.word	0x02008000

08003914 <HAL_I2C_Master_Transmit>:
{
 8003914:	b5f0      	push	{r4, r5, r6, r7, lr}
 8003916:	b087      	sub	sp, #28
 8003918:	9305      	str	r3, [sp, #20]
  if (hi2c->State == HAL_I2C_STATE_READY)
 800391a:	0003      	movs	r3, r0
 800391c:	3341      	adds	r3, #65	; 0x41
{
 800391e:	9204      	str	r2, [sp, #16]
  if (hi2c->State == HAL_I2C_STATE_READY)
 8003920:	9303      	str	r3, [sp, #12]
 8003922:	781b      	ldrb	r3, [r3, #0]
{
 8003924:	0004      	movs	r4, r0
 8003926:	000f      	movs	r7, r1
    return HAL_BUSY;
 8003928:	2002      	movs	r0, #2
  if (hi2c->State == HAL_I2C_STATE_READY)
 800392a:	2b20      	cmp	r3, #32
 800392c:	d114      	bne.n	8003958 <HAL_I2C_Master_Transmit+0x44>
    __HAL_LOCK(hi2c);
 800392e:	0023      	movs	r3, r4
 8003930:	3340      	adds	r3, #64	; 0x40
 8003932:	781a      	ldrb	r2, [r3, #0]
 8003934:	2a01      	cmp	r2, #1
 8003936:	d00f      	beq.n	8003958 <HAL_I2C_Master_Transmit+0x44>
 8003938:	2601      	movs	r6, #1
 800393a:	701e      	strb	r6, [r3, #0]
    tickstart = HAL_GetTick();
 800393c:	f7ff f980 	bl	8002c40 <HAL_GetTick>
    if (I2C_WaitOnFlagUntilTimeout(hi2c, I2C_FLAG_BUSY, SET, I2C_TIMEOUT_BUSY, tickstart) != HAL_OK)
 8003940:	2180      	movs	r1, #128	; 0x80
    tickstart = HAL_GetTick();
 8003942:	0005      	movs	r5, r0
    if (I2C_WaitOnFlagUntilTimeout(hi2c, I2C_FLAG_BUSY, SET, I2C_TIMEOUT_BUSY, tickstart) != HAL_OK)
 8003944:	9000      	str	r0, [sp, #0]
 8003946:	2319      	movs	r3, #25
 8003948:	0032      	movs	r2, r6
 800394a:	0020      	movs	r0, r4
 800394c:	0209      	lsls	r1, r1, #8
 800394e:	f7ff ff3b 	bl	80037c8 <I2C_WaitOnFlagUntilTimeout>
 8003952:	2800      	cmp	r0, #0
 8003954:	d002      	beq.n	800395c <HAL_I2C_Master_Transmit+0x48>
      return HAL_ERROR;
 8003956:	2001      	movs	r0, #1
}
 8003958:	b007      	add	sp, #28
 800395a:	bdf0      	pop	{r4, r5, r6, r7, pc}
    hi2c->State     = HAL_I2C_STATE_BUSY_TX;
 800395c:	2321      	movs	r3, #33	; 0x21
    hi2c->Mode      = HAL_I2C_MODE_MASTER;
 800395e:	0026      	movs	r6, r4
    hi2c->State     = HAL_I2C_STATE_BUSY_TX;
 8003960:	9a03      	ldr	r2, [sp, #12]
    hi2c->Mode      = HAL_I2C_MODE_MASTER;
 8003962:	3642      	adds	r6, #66	; 0x42
    hi2c->State     = HAL_I2C_STATE_BUSY_TX;
 8003964:	7013      	strb	r3, [r2, #0]
    hi2c->Mode      = HAL_I2C_MODE_MASTER;
 8003966:	3b11      	subs	r3, #17
 8003968:	7033      	strb	r3, [r6, #0]
    hi2c->pBuffPtr  = pData;
 800396a:	9b04      	ldr	r3, [sp, #16]
    hi2c->ErrorCode = HAL_I2C_ERROR_NONE;
 800396c:	6460      	str	r0, [r4, #68]	; 0x44
    hi2c->pBuffPtr  = pData;
 800396e:	6263      	str	r3, [r4, #36]	; 0x24
    hi2c->XferCount = Size;
 8003970:	9b05      	ldr	r3, [sp, #20]
    hi2c->XferISR   = NULL;
 8003972:	6360      	str	r0, [r4, #52]	; 0x34
    hi2c->XferCount = Size;
 8003974:	8563      	strh	r3, [r4, #42]	; 0x2a
    if (hi2c->XferCount > MAX_NBYTE_SIZE)
 8003976:	8d62      	ldrh	r2, [r4, #42]	; 0x2a
 8003978:	4b2d      	ldr	r3, [pc, #180]	; (8003a30 <HAL_I2C_Master_Transmit+0x11c>)
 800397a:	2aff      	cmp	r2, #255	; 0xff
 800397c:	d920      	bls.n	80039c0 <HAL_I2C_Master_Transmit+0xac>
      hi2c->XferSize = MAX_NBYTE_SIZE;
 800397e:	22ff      	movs	r2, #255	; 0xff
 8003980:	8522      	strh	r2, [r4, #40]	; 0x28
      I2C_TransferConfig(hi2c, DevAddress, (uint8_t)hi2c->XferSize, I2C_RELOAD_MODE,
 8003982:	9300      	str	r3, [sp, #0]
 8003984:	2380      	movs	r3, #128	; 0x80
 8003986:	045b      	lsls	r3, r3, #17
          I2C_TransferConfig(hi2c, DevAddress, (uint8_t)hi2c->XferSize, I2C_AUTOEND_MODE,
 8003988:	0039      	movs	r1, r7
 800398a:	0020      	movs	r0, r4
 800398c:	f7ff fe5a 	bl	8003644 <I2C_TransferConfig>
    while (hi2c->XferCount > 0U)
 8003990:	8d63      	ldrh	r3, [r4, #42]	; 0x2a
      if (I2C_WaitOnTXISFlagUntilTimeout(hi2c, Timeout, tickstart) != HAL_OK)
 8003992:	002a      	movs	r2, r5
 8003994:	0020      	movs	r0, r4
 8003996:	990c      	ldr	r1, [sp, #48]	; 0x30
    while (hi2c->XferCount > 0U)
 8003998:	2b00      	cmp	r3, #0
 800399a:	d119      	bne.n	80039d0 <HAL_I2C_Master_Transmit+0xbc>
    if (I2C_WaitOnSTOPFlagUntilTimeout(hi2c, Timeout, tickstart) != HAL_OK)
 800399c:	f7ff ff3c 	bl	8003818 <I2C_WaitOnSTOPFlagUntilTimeout>
 80039a0:	2800      	cmp	r0, #0
 80039a2:	d1d8      	bne.n	8003956 <HAL_I2C_Master_Transmit+0x42>
    __HAL_I2C_CLEAR_FLAG(hi2c, I2C_FLAG_STOPF);
 80039a4:	2120      	movs	r1, #32
 80039a6:	6823      	ldr	r3, [r4, #0]
    I2C_RESET_CR2(hi2c);
 80039a8:	4d22      	ldr	r5, [pc, #136]	; (8003a34 <HAL_I2C_Master_Transmit+0x120>)
    __HAL_I2C_CLEAR_FLAG(hi2c, I2C_FLAG_STOPF);
 80039aa:	61d9      	str	r1, [r3, #28]
    I2C_RESET_CR2(hi2c);
 80039ac:	685a      	ldr	r2, [r3, #4]
 80039ae:	402a      	ands	r2, r5
 80039b0:	605a      	str	r2, [r3, #4]
    hi2c->State = HAL_I2C_STATE_READY;
 80039b2:	0023      	movs	r3, r4
    __HAL_UNLOCK(hi2c);
 80039b4:	3440      	adds	r4, #64	; 0x40
    hi2c->State = HAL_I2C_STATE_READY;
 80039b6:	3341      	adds	r3, #65	; 0x41
 80039b8:	7019      	strb	r1, [r3, #0]
    hi2c->Mode  = HAL_I2C_MODE_NONE;
 80039ba:	7030      	strb	r0, [r6, #0]
    __HAL_UNLOCK(hi2c);
 80039bc:	7020      	strb	r0, [r4, #0]
    return HAL_OK;
 80039be:	e7cb      	b.n	8003958 <HAL_I2C_Master_Transmit+0x44>
      hi2c->XferSize = hi2c->XferCount;
 80039c0:	8d62      	ldrh	r2, [r4, #42]	; 0x2a
 80039c2:	b292      	uxth	r2, r2
 80039c4:	8522      	strh	r2, [r4, #40]	; 0x28
      I2C_TransferConfig(hi2c, DevAddress, (uint8_t)hi2c->XferSize, I2C_AUTOEND_MODE,
 80039c6:	b2d2      	uxtb	r2, r2
 80039c8:	9300      	str	r3, [sp, #0]
          I2C_TransferConfig(hi2c, DevAddress, (uint8_t)hi2c->XferSize, I2C_AUTOEND_MODE,
 80039ca:	2380      	movs	r3, #128	; 0x80
 80039cc:	049b      	lsls	r3, r3, #18
 80039ce:	e7db      	b.n	8003988 <HAL_I2C_Master_Transmit+0x74>
      if (I2C_WaitOnTXISFlagUntilTimeout(hi2c, Timeout, tickstart) != HAL_OK)
 80039d0:	f7ff fe90 	bl	80036f4 <I2C_WaitOnTXISFlagUntilTimeout>
 80039d4:	2800      	cmp	r0, #0
 80039d6:	d1be      	bne.n	8003956 <HAL_I2C_Master_Transmit+0x42>
      hi2c->Instance->TXDR = *hi2c->pBuffPtr;
 80039d8:	6a63      	ldr	r3, [r4, #36]	; 0x24
 80039da:	6822      	ldr	r2, [r4, #0]
 80039dc:	7819      	ldrb	r1, [r3, #0]
      hi2c->pBuffPtr++;
 80039de:	3301      	adds	r3, #1
      hi2c->Instance->TXDR = *hi2c->pBuffPtr;
 80039e0:	6291      	str	r1, [r2, #40]	; 0x28
      hi2c->pBuffPtr++;
 80039e2:	6263      	str	r3, [r4, #36]	; 0x24
      hi2c->XferCount--;
 80039e4:	8d63      	ldrh	r3, [r4, #42]	; 0x2a
      hi2c->XferSize--;
 80039e6:	8d22      	ldrh	r2, [r4, #40]	; 0x28
      hi2c->XferCount--;
 80039e8:	3b01      	subs	r3, #1
 80039ea:	b29b      	uxth	r3, r3
 80039ec:	8563      	strh	r3, [r4, #42]	; 0x2a
      hi2c->XferSize--;
 80039ee:	3a01      	subs	r2, #1
      if ((hi2c->XferCount != 0U) && (hi2c->XferSize == 0U))
 80039f0:	8d63      	ldrh	r3, [r4, #42]	; 0x2a
      hi2c->XferSize--;
 80039f2:	b292      	uxth	r2, r2
 80039f4:	8522      	strh	r2, [r4, #40]	; 0x28
      if ((hi2c->XferCount != 0U) && (hi2c->XferSize == 0U))
 80039f6:	2b00      	cmp	r3, #0
 80039f8:	d0ca      	beq.n	8003990 <HAL_I2C_Master_Transmit+0x7c>
 80039fa:	2a00      	cmp	r2, #0
 80039fc:	d1c8      	bne.n	8003990 <HAL_I2C_Master_Transmit+0x7c>
        if (I2C_WaitOnFlagUntilTimeout(hi2c, I2C_FLAG_TCR, RESET, Timeout, tickstart) != HAL_OK)
 80039fe:	2180      	movs	r1, #128	; 0x80
 8003a00:	0020      	movs	r0, r4
 8003a02:	9b0c      	ldr	r3, [sp, #48]	; 0x30
 8003a04:	9500      	str	r5, [sp, #0]
 8003a06:	f7ff fedf 	bl	80037c8 <I2C_WaitOnFlagUntilTimeout>
 8003a0a:	2800      	cmp	r0, #0
 8003a0c:	d1a3      	bne.n	8003956 <HAL_I2C_Master_Transmit+0x42>
        if (hi2c->XferCount > MAX_NBYTE_SIZE)
 8003a0e:	8d63      	ldrh	r3, [r4, #42]	; 0x2a
 8003a10:	2bff      	cmp	r3, #255	; 0xff
 8003a12:	d906      	bls.n	8003a22 <HAL_I2C_Master_Transmit+0x10e>
          hi2c->XferSize = MAX_NBYTE_SIZE;
 8003a14:	23ff      	movs	r3, #255	; 0xff
 8003a16:	8523      	strh	r3, [r4, #40]	; 0x28
          I2C_TransferConfig(hi2c, DevAddress, (uint8_t)hi2c->XferSize, I2C_RELOAD_MODE,
 8003a18:	2380      	movs	r3, #128	; 0x80
 8003a1a:	22ff      	movs	r2, #255	; 0xff
 8003a1c:	9000      	str	r0, [sp, #0]
 8003a1e:	045b      	lsls	r3, r3, #17
 8003a20:	e7b2      	b.n	8003988 <HAL_I2C_Master_Transmit+0x74>
          hi2c->XferSize = hi2c->XferCount;
 8003a22:	8d62      	ldrh	r2, [r4, #42]	; 0x2a
 8003a24:	b292      	uxth	r2, r2
 8003a26:	8522      	strh	r2, [r4, #40]	; 0x28
          I2C_TransferConfig(hi2c, DevAddress, (uint8_t)hi2c->XferSize, I2C_AUTOEND_MODE,
 8003a28:	b2d2      	uxtb	r2, r2
 8003a2a:	9000      	str	r0, [sp, #0]
 8003a2c:	e7cd      	b.n	80039ca <HAL_I2C_Master_Transmit+0xb6>
 8003a2e:	46c0      	nop			; (mov r8, r8)
 8003a30:	80002000 	.word	0x80002000
 8003a34:	fe00e800 	.word	0xfe00e800

08003a38 <HAL_I2C_Master_Receive>:
{
 8003a38:	b5f0      	push	{r4, r5, r6, r7, lr}
 8003a3a:	b087      	sub	sp, #28
 8003a3c:	9305      	str	r3, [sp, #20]
  if (hi2c->State == HAL_I2C_STATE_READY)
 8003a3e:	0003      	movs	r3, r0
 8003a40:	3341      	adds	r3, #65	; 0x41
{
 8003a42:	9204      	str	r2, [sp, #16]
  if (hi2c->State == HAL_I2C_STATE_READY)
 8003a44:	9303      	str	r3, [sp, #12]
 8003a46:	781b      	ldrb	r3, [r3, #0]
{
 8003a48:	0004      	movs	r4, r0
 8003a4a:	000f      	movs	r7, r1
    return HAL_BUSY;
 8003a4c:	2002      	movs	r0, #2
  if (hi2c->State == HAL_I2C_STATE_READY)
 8003a4e:	2b20      	cmp	r3, #32
 8003a50:	d114      	bne.n	8003a7c <HAL_I2C_Master_Receive+0x44>
    __HAL_LOCK(hi2c);
 8003a52:	0023      	movs	r3, r4
 8003a54:	3340      	adds	r3, #64	; 0x40
 8003a56:	781a      	ldrb	r2, [r3, #0]
 8003a58:	2a01      	cmp	r2, #1
 8003a5a:	d00f      	beq.n	8003a7c <HAL_I2C_Master_Receive+0x44>
 8003a5c:	2601      	movs	r6, #1
 8003a5e:	701e      	strb	r6, [r3, #0]
    tickstart = HAL_GetTick();
 8003a60:	f7ff f8ee 	bl	8002c40 <HAL_GetTick>
    if (I2C_WaitOnFlagUntilTimeout(hi2c, I2C_FLAG_BUSY, SET, I2C_TIMEOUT_BUSY, tickstart) != HAL_OK)
 8003a64:	2180      	movs	r1, #128	; 0x80
    tickstart = HAL_GetTick();
 8003a66:	0005      	movs	r5, r0
    if (I2C_WaitOnFlagUntilTimeout(hi2c, I2C_FLAG_BUSY, SET, I2C_TIMEOUT_BUSY, tickstart) != HAL_OK)
 8003a68:	9000      	str	r0, [sp, #0]
 8003a6a:	2319      	movs	r3, #25
 8003a6c:	0032      	movs	r2, r6
 8003a6e:	0020      	movs	r0, r4
 8003a70:	0209      	lsls	r1, r1, #8
 8003a72:	f7ff fea9 	bl	80037c8 <I2C_WaitOnFlagUntilTimeout>
 8003a76:	2800      	cmp	r0, #0
 8003a78:	d002      	beq.n	8003a80 <HAL_I2C_Master_Receive+0x48>
      return HAL_ERROR;
 8003a7a:	2001      	movs	r0, #1
}
 8003a7c:	b007      	add	sp, #28
 8003a7e:	bdf0      	pop	{r4, r5, r6, r7, pc}
    hi2c->State     = HAL_I2C_STATE_BUSY_RX;
 8003a80:	2322      	movs	r3, #34	; 0x22
    hi2c->Mode      = HAL_I2C_MODE_MASTER;
 8003a82:	0026      	movs	r6, r4
    hi2c->State     = HAL_I2C_STATE_BUSY_RX;
 8003a84:	9a03      	ldr	r2, [sp, #12]
    hi2c->Mode      = HAL_I2C_MODE_MASTER;
 8003a86:	3642      	adds	r6, #66	; 0x42
    hi2c->State     = HAL_I2C_STATE_BUSY_RX;
 8003a88:	7013      	strb	r3, [r2, #0]
    hi2c->Mode      = HAL_I2C_MODE_MASTER;
 8003a8a:	3b12      	subs	r3, #18
 8003a8c:	7033      	strb	r3, [r6, #0]
    hi2c->pBuffPtr  = pData;
 8003a8e:	9b04      	ldr	r3, [sp, #16]
    hi2c->ErrorCode = HAL_I2C_ERROR_NONE;
 8003a90:	6460      	str	r0, [r4, #68]	; 0x44
    hi2c->pBuffPtr  = pData;
 8003a92:	6263      	str	r3, [r4, #36]	; 0x24
    hi2c->XferCount = Size;
 8003a94:	9b05      	ldr	r3, [sp, #20]
    hi2c->XferISR   = NULL;
 8003a96:	6360      	str	r0, [r4, #52]	; 0x34
    hi2c->XferCount = Size;
 8003a98:	8563      	strh	r3, [r4, #42]	; 0x2a
    if (hi2c->XferCount > MAX_NBYTE_SIZE)
 8003a9a:	8d62      	ldrh	r2, [r4, #42]	; 0x2a
 8003a9c:	4b2d      	ldr	r3, [pc, #180]	; (8003b54 <HAL_I2C_Master_Receive+0x11c>)
 8003a9e:	2aff      	cmp	r2, #255	; 0xff
 8003aa0:	d920      	bls.n	8003ae4 <HAL_I2C_Master_Receive+0xac>
      hi2c->XferSize = MAX_NBYTE_SIZE;
 8003aa2:	22ff      	movs	r2, #255	; 0xff
 8003aa4:	8522      	strh	r2, [r4, #40]	; 0x28
      I2C_TransferConfig(hi2c, DevAddress, (uint8_t)hi2c->XferSize, I2C_RELOAD_MODE,
 8003aa6:	9300      	str	r3, [sp, #0]
 8003aa8:	2380      	movs	r3, #128	; 0x80
 8003aaa:	045b      	lsls	r3, r3, #17
          I2C_TransferConfig(hi2c, DevAddress, (uint8_t)hi2c->XferSize, I2C_AUTOEND_MODE,
 8003aac:	0039      	movs	r1, r7
 8003aae:	0020      	movs	r0, r4
 8003ab0:	f7ff fdc8 	bl	8003644 <I2C_TransferConfig>
    while (hi2c->XferCount > 0U)
 8003ab4:	8d63      	ldrh	r3, [r4, #42]	; 0x2a
      if (I2C_WaitOnRXNEFlagUntilTimeout(hi2c, Timeout, tickstart) != HAL_OK)
 8003ab6:	002a      	movs	r2, r5
 8003ab8:	0020      	movs	r0, r4
 8003aba:	990c      	ldr	r1, [sp, #48]	; 0x30
    while (hi2c->XferCount > 0U)
 8003abc:	2b00      	cmp	r3, #0
 8003abe:	d119      	bne.n	8003af4 <HAL_I2C_Master_Receive+0xbc>
    if (I2C_WaitOnSTOPFlagUntilTimeout(hi2c, Timeout, tickstart) != HAL_OK)
 8003ac0:	f7ff feaa 	bl	8003818 <I2C_WaitOnSTOPFlagUntilTimeout>
 8003ac4:	2800      	cmp	r0, #0
 8003ac6:	d1d8      	bne.n	8003a7a <HAL_I2C_Master_Receive+0x42>
    __HAL_I2C_CLEAR_FLAG(hi2c, I2C_FLAG_STOPF);
 8003ac8:	2120      	movs	r1, #32
 8003aca:	6823      	ldr	r3, [r4, #0]
    I2C_RESET_CR2(hi2c);
 8003acc:	4d22      	ldr	r5, [pc, #136]	; (8003b58 <HAL_I2C_Master_Receive+0x120>)
    __HAL_I2C_CLEAR_FLAG(hi2c, I2C_FLAG_STOPF);
 8003ace:	61d9      	str	r1, [r3, #28]
    I2C_RESET_CR2(hi2c);
 8003ad0:	685a      	ldr	r2, [r3, #4]
 8003ad2:	402a      	ands	r2, r5
 8003ad4:	605a      	str	r2, [r3, #4]
    hi2c->State = HAL_I2C_STATE_READY;
 8003ad6:	0023      	movs	r3, r4
    __HAL_UNLOCK(hi2c);
 8003ad8:	3440      	adds	r4, #64	; 0x40
    hi2c->State = HAL_I2C_STATE_READY;
 8003ada:	3341      	adds	r3, #65	; 0x41
 8003adc:	7019      	strb	r1, [r3, #0]
    hi2c->Mode  = HAL_I2C_MODE_NONE;
 8003ade:	7030      	strb	r0, [r6, #0]
    __HAL_UNLOCK(hi2c);
 8003ae0:	7020      	strb	r0, [r4, #0]
    return HAL_OK;
 8003ae2:	e7cb      	b.n	8003a7c <HAL_I2C_Master_Receive+0x44>
      hi2c->XferSize = hi2c->XferCount;
 8003ae4:	8d62      	ldrh	r2, [r4, #42]	; 0x2a
 8003ae6:	b292      	uxth	r2, r2
 8003ae8:	8522      	strh	r2, [r4, #40]	; 0x28
      I2C_TransferConfig(hi2c, DevAddress, (uint8_t)hi2c->XferSize, I2C_AUTOEND_MODE,
 8003aea:	b2d2      	uxtb	r2, r2
 8003aec:	9300      	str	r3, [sp, #0]
          I2C_TransferConfig(hi2c, DevAddress, (uint8_t)hi2c->XferSize, I2C_AUTOEND_MODE,
 8003aee:	2380      	movs	r3, #128	; 0x80
 8003af0:	049b      	lsls	r3, r3, #18
 8003af2:	e7db      	b.n	8003aac <HAL_I2C_Master_Receive+0x74>
      if (I2C_WaitOnRXNEFlagUntilTimeout(hi2c, Timeout, tickstart) != HAL_OK)
 8003af4:	f7ff fe28 	bl	8003748 <I2C_WaitOnRXNEFlagUntilTimeout>
 8003af8:	2800      	cmp	r0, #0
 8003afa:	d1be      	bne.n	8003a7a <HAL_I2C_Master_Receive+0x42>
      *hi2c->pBuffPtr = (uint8_t)hi2c->Instance->RXDR;
 8003afc:	6823      	ldr	r3, [r4, #0]
 8003afe:	6a62      	ldr	r2, [r4, #36]	; 0x24
 8003b00:	6a5b      	ldr	r3, [r3, #36]	; 0x24
 8003b02:	7013      	strb	r3, [r2, #0]
      hi2c->pBuffPtr++;
 8003b04:	6a63      	ldr	r3, [r4, #36]	; 0x24
      hi2c->XferSize--;
 8003b06:	8d22      	ldrh	r2, [r4, #40]	; 0x28
      hi2c->pBuffPtr++;
 8003b08:	3301      	adds	r3, #1
 8003b0a:	6263      	str	r3, [r4, #36]	; 0x24
      hi2c->XferCount--;
 8003b0c:	8d63      	ldrh	r3, [r4, #42]	; 0x2a
      hi2c->XferSize--;
 8003b0e:	3a01      	subs	r2, #1
      hi2c->XferCount--;
 8003b10:	3b01      	subs	r3, #1
 8003b12:	b29b      	uxth	r3, r3
 8003b14:	8563      	strh	r3, [r4, #42]	; 0x2a
      if ((hi2c->XferCount != 0U) && (hi2c->XferSize == 0U))
 8003b16:	8d63      	ldrh	r3, [r4, #42]	; 0x2a
      hi2c->XferSize--;
 8003b18:	b292      	uxth	r2, r2
 8003b1a:	8522      	strh	r2, [r4, #40]	; 0x28
      if ((hi2c->XferCount != 0U) && (hi2c->XferSize == 0U))
 8003b1c:	2b00      	cmp	r3, #0
 8003b1e:	d0c9      	beq.n	8003ab4 <HAL_I2C_Master_Receive+0x7c>
 8003b20:	2a00      	cmp	r2, #0
 8003b22:	d1c7      	bne.n	8003ab4 <HAL_I2C_Master_Receive+0x7c>
        if (I2C_WaitOnFlagUntilTimeout(hi2c, I2C_FLAG_TCR, RESET, Timeout, tickstart) != HAL_OK)
 8003b24:	2180      	movs	r1, #128	; 0x80
 8003b26:	0020      	movs	r0, r4
 8003b28:	9b0c      	ldr	r3, [sp, #48]	; 0x30
 8003b2a:	9500      	str	r5, [sp, #0]
 8003b2c:	f7ff fe4c 	bl	80037c8 <I2C_WaitOnFlagUntilTimeout>
 8003b30:	2800      	cmp	r0, #0
 8003b32:	d1a2      	bne.n	8003a7a <HAL_I2C_Master_Receive+0x42>
        if (hi2c->XferCount > MAX_NBYTE_SIZE)
 8003b34:	8d63      	ldrh	r3, [r4, #42]	; 0x2a
 8003b36:	2bff      	cmp	r3, #255	; 0xff
 8003b38:	d906      	bls.n	8003b48 <HAL_I2C_Master_Receive+0x110>
          hi2c->XferSize = MAX_NBYTE_SIZE;
 8003b3a:	23ff      	movs	r3, #255	; 0xff
 8003b3c:	8523      	strh	r3, [r4, #40]	; 0x28
          I2C_TransferConfig(hi2c, DevAddress, (uint8_t)hi2c->XferSize, I2C_RELOAD_MODE,
 8003b3e:	2380      	movs	r3, #128	; 0x80
 8003b40:	22ff      	movs	r2, #255	; 0xff
 8003b42:	9000      	str	r0, [sp, #0]
 8003b44:	045b      	lsls	r3, r3, #17
 8003b46:	e7b1      	b.n	8003aac <HAL_I2C_Master_Receive+0x74>
          hi2c->XferSize = hi2c->XferCount;
 8003b48:	8d62      	ldrh	r2, [r4, #42]	; 0x2a
 8003b4a:	b292      	uxth	r2, r2
 8003b4c:	8522      	strh	r2, [r4, #40]	; 0x28
          I2C_TransferConfig(hi2c, DevAddress, (uint8_t)hi2c->XferSize, I2C_AUTOEND_MODE,
 8003b4e:	b2d2      	uxtb	r2, r2
 8003b50:	9000      	str	r0, [sp, #0]
 8003b52:	e7cc      	b.n	8003aee <HAL_I2C_Master_Receive+0xb6>
 8003b54:	80002400 	.word	0x80002400
 8003b58:	fe00e800 	.word	0xfe00e800

08003b5c <HAL_I2C_IsDeviceReady>:
{
 8003b5c:	b5f0      	push	{r4, r5, r6, r7, lr}
 8003b5e:	001e      	movs	r6, r3
  __IO uint32_t I2C_Trials = 0UL;
 8003b60:	2300      	movs	r3, #0
{
 8003b62:	b089      	sub	sp, #36	; 0x24
  __IO uint32_t I2C_Trials = 0UL;
 8003b64:	9307      	str	r3, [sp, #28]
  if (hi2c->State == HAL_I2C_STATE_READY)
 8003b66:	0003      	movs	r3, r0
{
 8003b68:	9205      	str	r2, [sp, #20]
  if (hi2c->State == HAL_I2C_STATE_READY)
 8003b6a:	3341      	adds	r3, #65	; 0x41
 8003b6c:	781a      	ldrb	r2, [r3, #0]
{
 8003b6e:	0004      	movs	r4, r0
    return HAL_BUSY;
 8003b70:	2502      	movs	r5, #2
  if (hi2c->State == HAL_I2C_STATE_READY)
 8003b72:	2a20      	cmp	r2, #32
 8003b74:	d15b      	bne.n	8003c2e <HAL_I2C_IsDeviceReady+0xd2>
    if (__HAL_I2C_GET_FLAG(hi2c, I2C_FLAG_BUSY) == SET)
 8003b76:	6802      	ldr	r2, [r0, #0]
 8003b78:	6997      	ldr	r7, [r2, #24]
 8003b7a:	2280      	movs	r2, #128	; 0x80
 8003b7c:	0038      	movs	r0, r7
 8003b7e:	0212      	lsls	r2, r2, #8
 8003b80:	4010      	ands	r0, r2
 8003b82:	4217      	tst	r7, r2
 8003b84:	d153      	bne.n	8003c2e <HAL_I2C_IsDeviceReady+0xd2>
    __HAL_LOCK(hi2c);
 8003b86:	0022      	movs	r2, r4
 8003b88:	3240      	adds	r2, #64	; 0x40
 8003b8a:	7817      	ldrb	r7, [r2, #0]
 8003b8c:	2f01      	cmp	r7, #1
 8003b8e:	d04e      	beq.n	8003c2e <HAL_I2C_IsDeviceReady+0xd2>
 8003b90:	3d01      	subs	r5, #1
 8003b92:	7015      	strb	r5, [r2, #0]
    hi2c->State = HAL_I2C_STATE_BUSY;
 8003b94:	2224      	movs	r2, #36	; 0x24
 8003b96:	0589      	lsls	r1, r1, #22
 8003b98:	701a      	strb	r2, [r3, #0]
    hi2c->ErrorCode = HAL_I2C_ERROR_NONE;
 8003b9a:	0d8b      	lsrs	r3, r1, #22
 8003b9c:	6460      	str	r0, [r4, #68]	; 0x44
 8003b9e:	9304      	str	r3, [sp, #16]
      hi2c->Instance->CR2 = I2C_GENERATE_START(hi2c->Init.AddressingMode, DevAddress);
 8003ba0:	68e3      	ldr	r3, [r4, #12]
 8003ba2:	2b01      	cmp	r3, #1
 8003ba4:	d12b      	bne.n	8003bfe <HAL_I2C_IsDeviceReady+0xa2>
 8003ba6:	4b3e      	ldr	r3, [pc, #248]	; (8003ca0 <HAL_I2C_IsDeviceReady+0x144>)
 8003ba8:	9a04      	ldr	r2, [sp, #16]
 8003baa:	4313      	orrs	r3, r2
 8003bac:	6822      	ldr	r2, [r4, #0]
 8003bae:	6053      	str	r3, [r2, #4]
      tickstart = HAL_GetTick();
 8003bb0:	f7ff f846 	bl	8002c40 <HAL_GetTick>
 8003bb4:	9003      	str	r0, [sp, #12]
        tmp1 = __HAL_I2C_GET_FLAG(hi2c, I2C_FLAG_STOPF);
 8003bb6:	2201      	movs	r2, #1
 8003bb8:	6823      	ldr	r3, [r4, #0]
 8003bba:	699d      	ldr	r5, [r3, #24]
        tmp2 = __HAL_I2C_GET_FLAG(hi2c, I2C_FLAG_AF);
 8003bbc:	699b      	ldr	r3, [r3, #24]
        tmp1 = __HAL_I2C_GET_FLAG(hi2c, I2C_FLAG_STOPF);
 8003bbe:	096d      	lsrs	r5, r5, #5
        tmp2 = __HAL_I2C_GET_FLAG(hi2c, I2C_FLAG_AF);
 8003bc0:	091b      	lsrs	r3, r3, #4
        tmp1 = __HAL_I2C_GET_FLAG(hi2c, I2C_FLAG_STOPF);
 8003bc2:	4015      	ands	r5, r2
        tmp2 = __HAL_I2C_GET_FLAG(hi2c, I2C_FLAG_AF);
 8003bc4:	4013      	ands	r3, r2
      while ((tmp1 == RESET) && (tmp2 == RESET))
 8003bc6:	431d      	orrs	r5, r3
 8003bc8:	d01c      	beq.n	8003c04 <HAL_I2C_IsDeviceReady+0xa8>
      if (__HAL_I2C_GET_FLAG(hi2c, I2C_FLAG_AF) == RESET)
 8003bca:	6823      	ldr	r3, [r4, #0]
 8003bcc:	2710      	movs	r7, #16
 8003bce:	699b      	ldr	r3, [r3, #24]
 8003bd0:	001a      	movs	r2, r3
 8003bd2:	403a      	ands	r2, r7
 8003bd4:	423b      	tst	r3, r7
 8003bd6:	d12d      	bne.n	8003c34 <HAL_I2C_IsDeviceReady+0xd8>
        if (I2C_WaitOnFlagUntilTimeout(hi2c, I2C_FLAG_STOPF, RESET, Timeout, tickstart) != HAL_OK)
 8003bd8:	9b03      	ldr	r3, [sp, #12]
 8003bda:	2120      	movs	r1, #32
 8003bdc:	9300      	str	r3, [sp, #0]
 8003bde:	0020      	movs	r0, r4
 8003be0:	0033      	movs	r3, r6
 8003be2:	f7ff fdf1 	bl	80037c8 <I2C_WaitOnFlagUntilTimeout>
 8003be6:	2800      	cmp	r0, #0
 8003be8:	d121      	bne.n	8003c2e <HAL_I2C_IsDeviceReady+0xd2>
        __HAL_I2C_CLEAR_FLAG(hi2c, I2C_FLAG_STOPF);
 8003bea:	2320      	movs	r3, #32
 8003bec:	6822      	ldr	r2, [r4, #0]
        return HAL_OK;
 8003bee:	0005      	movs	r5, r0
        __HAL_I2C_CLEAR_FLAG(hi2c, I2C_FLAG_STOPF);
 8003bf0:	61d3      	str	r3, [r2, #28]
        hi2c->State = HAL_I2C_STATE_READY;
 8003bf2:	0022      	movs	r2, r4
        __HAL_UNLOCK(hi2c);
 8003bf4:	3440      	adds	r4, #64	; 0x40
        hi2c->State = HAL_I2C_STATE_READY;
 8003bf6:	3241      	adds	r2, #65	; 0x41
 8003bf8:	7013      	strb	r3, [r2, #0]
        __HAL_UNLOCK(hi2c);
 8003bfa:	7020      	strb	r0, [r4, #0]
        return HAL_OK;
 8003bfc:	e017      	b.n	8003c2e <HAL_I2C_IsDeviceReady+0xd2>
      hi2c->Instance->CR2 = I2C_GENERATE_START(hi2c->Init.AddressingMode, DevAddress);
 8003bfe:	23a0      	movs	r3, #160	; 0xa0
 8003c00:	019b      	lsls	r3, r3, #6
 8003c02:	e7d1      	b.n	8003ba8 <HAL_I2C_IsDeviceReady+0x4c>
        if (Timeout != HAL_MAX_DELAY)
 8003c04:	1c73      	adds	r3, r6, #1
 8003c06:	d0d6      	beq.n	8003bb6 <HAL_I2C_IsDeviceReady+0x5a>
          if (((HAL_GetTick() - tickstart) > Timeout) || (Timeout == 0U))
 8003c08:	f7ff f81a 	bl	8002c40 <HAL_GetTick>
 8003c0c:	9b03      	ldr	r3, [sp, #12]
 8003c0e:	1ac0      	subs	r0, r0, r3
 8003c10:	42b0      	cmp	r0, r6
 8003c12:	d801      	bhi.n	8003c18 <HAL_I2C_IsDeviceReady+0xbc>
 8003c14:	2e00      	cmp	r6, #0
 8003c16:	d1ce      	bne.n	8003bb6 <HAL_I2C_IsDeviceReady+0x5a>
            hi2c->State = HAL_I2C_STATE_READY;
 8003c18:	0022      	movs	r2, r4
 8003c1a:	2320      	movs	r3, #32
 8003c1c:	3241      	adds	r2, #65	; 0x41
 8003c1e:	7013      	strb	r3, [r2, #0]
            hi2c->ErrorCode |= HAL_I2C_ERROR_TIMEOUT;
 8003c20:	6c62      	ldr	r2, [r4, #68]	; 0x44
            return HAL_ERROR;
 8003c22:	2501      	movs	r5, #1
            hi2c->ErrorCode |= HAL_I2C_ERROR_TIMEOUT;
 8003c24:	4313      	orrs	r3, r2
 8003c26:	6463      	str	r3, [r4, #68]	; 0x44
            __HAL_UNLOCK(hi2c);
 8003c28:	2300      	movs	r3, #0
 8003c2a:	3440      	adds	r4, #64	; 0x40
 8003c2c:	7023      	strb	r3, [r4, #0]
}
 8003c2e:	0028      	movs	r0, r5
 8003c30:	b009      	add	sp, #36	; 0x24
 8003c32:	bdf0      	pop	{r4, r5, r6, r7, pc}
        if (I2C_WaitOnFlagUntilTimeout(hi2c, I2C_FLAG_STOPF, RESET, Timeout, tickstart) != HAL_OK)
 8003c34:	9b03      	ldr	r3, [sp, #12]
 8003c36:	2200      	movs	r2, #0
 8003c38:	9300      	str	r3, [sp, #0]
 8003c3a:	2120      	movs	r1, #32
 8003c3c:	0033      	movs	r3, r6
 8003c3e:	0020      	movs	r0, r4
 8003c40:	f7ff fdc2 	bl	80037c8 <I2C_WaitOnFlagUntilTimeout>
 8003c44:	1e02      	subs	r2, r0, #0
 8003c46:	d1f2      	bne.n	8003c2e <HAL_I2C_IsDeviceReady+0xd2>
        __HAL_I2C_CLEAR_FLAG(hi2c, I2C_FLAG_AF);
 8003c48:	6823      	ldr	r3, [r4, #0]
      if (I2C_Trials == Trials)
 8003c4a:	9805      	ldr	r0, [sp, #20]
        __HAL_I2C_CLEAR_FLAG(hi2c, I2C_FLAG_AF);
 8003c4c:	61df      	str	r7, [r3, #28]
        __HAL_I2C_CLEAR_FLAG(hi2c, I2C_FLAG_STOPF);
 8003c4e:	2720      	movs	r7, #32
 8003c50:	61df      	str	r7, [r3, #28]
      if (I2C_Trials == Trials)
 8003c52:	9907      	ldr	r1, [sp, #28]
 8003c54:	4281      	cmp	r1, r0
 8003c56:	d10f      	bne.n	8003c78 <HAL_I2C_IsDeviceReady+0x11c>
        hi2c->Instance->CR2 |= I2C_CR2_STOP;
 8003c58:	2180      	movs	r1, #128	; 0x80
 8003c5a:	6858      	ldr	r0, [r3, #4]
 8003c5c:	01c9      	lsls	r1, r1, #7
 8003c5e:	4301      	orrs	r1, r0
 8003c60:	6059      	str	r1, [r3, #4]
        if (I2C_WaitOnFlagUntilTimeout(hi2c, I2C_FLAG_STOPF, RESET, Timeout, tickstart) != HAL_OK)
 8003c62:	9b03      	ldr	r3, [sp, #12]
 8003c64:	0039      	movs	r1, r7
 8003c66:	9300      	str	r3, [sp, #0]
 8003c68:	0020      	movs	r0, r4
 8003c6a:	0033      	movs	r3, r6
 8003c6c:	f7ff fdac 	bl	80037c8 <I2C_WaitOnFlagUntilTimeout>
 8003c70:	2800      	cmp	r0, #0
 8003c72:	d1dc      	bne.n	8003c2e <HAL_I2C_IsDeviceReady+0xd2>
        __HAL_I2C_CLEAR_FLAG(hi2c, I2C_FLAG_STOPF);
 8003c74:	6823      	ldr	r3, [r4, #0]
 8003c76:	61df      	str	r7, [r3, #28]
      I2C_Trials++;
 8003c78:	9b07      	ldr	r3, [sp, #28]
    } while (I2C_Trials < Trials);
 8003c7a:	9a05      	ldr	r2, [sp, #20]
      I2C_Trials++;
 8003c7c:	3301      	adds	r3, #1
 8003c7e:	9307      	str	r3, [sp, #28]
    } while (I2C_Trials < Trials);
 8003c80:	9b07      	ldr	r3, [sp, #28]
 8003c82:	4293      	cmp	r3, r2
 8003c84:	d200      	bcs.n	8003c88 <HAL_I2C_IsDeviceReady+0x12c>
 8003c86:	e78b      	b.n	8003ba0 <HAL_I2C_IsDeviceReady+0x44>
    hi2c->State = HAL_I2C_STATE_READY;
 8003c88:	0022      	movs	r2, r4
 8003c8a:	2320      	movs	r3, #32
 8003c8c:	3241      	adds	r2, #65	; 0x41
 8003c8e:	7013      	strb	r3, [r2, #0]
    hi2c->ErrorCode |= HAL_I2C_ERROR_TIMEOUT;
 8003c90:	6c62      	ldr	r2, [r4, #68]	; 0x44
    __HAL_UNLOCK(hi2c);
 8003c92:	3440      	adds	r4, #64	; 0x40
    hi2c->ErrorCode |= HAL_I2C_ERROR_TIMEOUT;
 8003c94:	4313      	orrs	r3, r2
 8003c96:	6063      	str	r3, [r4, #4]
    __HAL_UNLOCK(hi2c);
 8003c98:	2300      	movs	r3, #0
 8003c9a:	7023      	strb	r3, [r4, #0]
    return HAL_ERROR;
 8003c9c:	e7c7      	b.n	8003c2e <HAL_I2C_IsDeviceReady+0xd2>
 8003c9e:	46c0      	nop			; (mov r8, r8)
 8003ca0:	02002000 	.word	0x02002000

08003ca4 <HAL_I2CEx_ConfigAnalogFilter>:
  *                the configuration information for the specified I2Cx peripheral.
  * @param  AnalogFilter New state of the Analog filter.
  * @retval HAL status
  */
HAL_StatusTypeDef HAL_I2CEx_ConfigAnalogFilter(I2C_HandleTypeDef *hi2c, uint32_t AnalogFilter)
{
 8003ca4:	b5f0      	push	{r4, r5, r6, r7, lr}
  /* Check the parameters */
  assert_param(IS_I2C_ALL_INSTANCE(hi2c->Instance));
  assert_param(IS_I2C_ANALOG_FILTER(AnalogFilter));

  if (hi2c->State == HAL_I2C_STATE_READY)
 8003ca6:	0004      	movs	r4, r0
 8003ca8:	3441      	adds	r4, #65	; 0x41
 8003caa:	7822      	ldrb	r2, [r4, #0]
{
 8003cac:	0003      	movs	r3, r0
 8003cae:	000f      	movs	r7, r1

    return HAL_OK;
  }
  else
  {
    return HAL_BUSY;
 8003cb0:	2002      	movs	r0, #2
  if (hi2c->State == HAL_I2C_STATE_READY)
 8003cb2:	b2d6      	uxtb	r6, r2
 8003cb4:	2a20      	cmp	r2, #32
 8003cb6:	d118      	bne.n	8003cea <HAL_I2CEx_ConfigAnalogFilter+0x46>
    __HAL_LOCK(hi2c);
 8003cb8:	001d      	movs	r5, r3
 8003cba:	3540      	adds	r5, #64	; 0x40
 8003cbc:	782a      	ldrb	r2, [r5, #0]
 8003cbe:	2a01      	cmp	r2, #1
 8003cc0:	d013      	beq.n	8003cea <HAL_I2CEx_ConfigAnalogFilter+0x46>
    hi2c->State = HAL_I2C_STATE_BUSY;
 8003cc2:	2224      	movs	r2, #36	; 0x24
 8003cc4:	7022      	strb	r2, [r4, #0]
    __HAL_I2C_DISABLE(hi2c);
 8003cc6:	681b      	ldr	r3, [r3, #0]
 8003cc8:	3a23      	subs	r2, #35	; 0x23
 8003cca:	6819      	ldr	r1, [r3, #0]
    hi2c->Instance->CR1 &= ~(I2C_CR1_ANFOFF);
 8003ccc:	4807      	ldr	r0, [pc, #28]	; (8003cec <HAL_I2CEx_ConfigAnalogFilter+0x48>)
    __HAL_I2C_DISABLE(hi2c);
 8003cce:	4391      	bics	r1, r2
 8003cd0:	6019      	str	r1, [r3, #0]
    hi2c->Instance->CR1 &= ~(I2C_CR1_ANFOFF);
 8003cd2:	6819      	ldr	r1, [r3, #0]
 8003cd4:	4001      	ands	r1, r0
    __HAL_UNLOCK(hi2c);
 8003cd6:	2000      	movs	r0, #0
    hi2c->Instance->CR1 &= ~(I2C_CR1_ANFOFF);
 8003cd8:	6019      	str	r1, [r3, #0]
    hi2c->Instance->CR1 |= AnalogFilter;
 8003cda:	6819      	ldr	r1, [r3, #0]
 8003cdc:	4339      	orrs	r1, r7
 8003cde:	6019      	str	r1, [r3, #0]
    __HAL_I2C_ENABLE(hi2c);
 8003ce0:	6819      	ldr	r1, [r3, #0]
 8003ce2:	430a      	orrs	r2, r1
 8003ce4:	601a      	str	r2, [r3, #0]
    hi2c->State = HAL_I2C_STATE_READY;
 8003ce6:	7026      	strb	r6, [r4, #0]
    __HAL_UNLOCK(hi2c);
 8003ce8:	7028      	strb	r0, [r5, #0]
  }
}
 8003cea:	bdf0      	pop	{r4, r5, r6, r7, pc}
 8003cec:	ffffefff 	.word	0xffffefff

08003cf0 <HAL_I2CEx_ConfigDigitalFilter>:

  /* Check the parameters */
  assert_param(IS_I2C_ALL_INSTANCE(hi2c->Instance));
  assert_param(IS_I2C_DIGITAL_FILTER(DigitalFilter));

  if (hi2c->State == HAL_I2C_STATE_READY)
 8003cf0:	0002      	movs	r2, r0
{
 8003cf2:	b5f0      	push	{r4, r5, r6, r7, lr}
  if (hi2c->State == HAL_I2C_STATE_READY)
 8003cf4:	3241      	adds	r2, #65	; 0x41
 8003cf6:	7814      	ldrb	r4, [r2, #0]
{
 8003cf8:	0003      	movs	r3, r0
  if (hi2c->State == HAL_I2C_STATE_READY)
 8003cfa:	b2e5      	uxtb	r5, r4

    return HAL_OK;
  }
  else
  {
    return HAL_BUSY;
 8003cfc:	2002      	movs	r0, #2
  if (hi2c->State == HAL_I2C_STATE_READY)
 8003cfe:	2c20      	cmp	r4, #32
 8003d00:	d117      	bne.n	8003d32 <HAL_I2CEx_ConfigDigitalFilter+0x42>
    __HAL_LOCK(hi2c);
 8003d02:	001c      	movs	r4, r3
 8003d04:	3440      	adds	r4, #64	; 0x40
 8003d06:	7826      	ldrb	r6, [r4, #0]
 8003d08:	2e01      	cmp	r6, #1
 8003d0a:	d012      	beq.n	8003d32 <HAL_I2CEx_ConfigDigitalFilter+0x42>
    hi2c->State = HAL_I2C_STATE_BUSY;
 8003d0c:	3022      	adds	r0, #34	; 0x22
 8003d0e:	7010      	strb	r0, [r2, #0]
    __HAL_I2C_DISABLE(hi2c);
 8003d10:	681b      	ldr	r3, [r3, #0]
 8003d12:	3823      	subs	r0, #35	; 0x23
 8003d14:	681e      	ldr	r6, [r3, #0]
    tmpreg &= ~(I2C_CR1_DNF);
 8003d16:	4f07      	ldr	r7, [pc, #28]	; (8003d34 <HAL_I2CEx_ConfigDigitalFilter+0x44>)
    __HAL_I2C_DISABLE(hi2c);
 8003d18:	4386      	bics	r6, r0
 8003d1a:	601e      	str	r6, [r3, #0]
    tmpreg = hi2c->Instance->CR1;
 8003d1c:	681e      	ldr	r6, [r3, #0]
    tmpreg |= DigitalFilter << 8U;
 8003d1e:	0209      	lsls	r1, r1, #8
    tmpreg &= ~(I2C_CR1_DNF);
 8003d20:	403e      	ands	r6, r7
    tmpreg |= DigitalFilter << 8U;
 8003d22:	4331      	orrs	r1, r6
    hi2c->Instance->CR1 = tmpreg;
 8003d24:	6019      	str	r1, [r3, #0]
    __HAL_I2C_ENABLE(hi2c);
 8003d26:	6819      	ldr	r1, [r3, #0]
 8003d28:	4308      	orrs	r0, r1
 8003d2a:	6018      	str	r0, [r3, #0]
    __HAL_UNLOCK(hi2c);
 8003d2c:	2000      	movs	r0, #0
    hi2c->State = HAL_I2C_STATE_READY;
 8003d2e:	7015      	strb	r5, [r2, #0]
    __HAL_UNLOCK(hi2c);
 8003d30:	7020      	strb	r0, [r4, #0]
  }
}
 8003d32:	bdf0      	pop	{r4, r5, r6, r7, pc}
 8003d34:	fffff0ff 	.word	0xfffff0ff

08003d38 <HAL_RCC_GetSysClockFreq>:
  uint32_t sysclockfreq;

  tmpreg = RCC->CFGR;

  /* Get SYSCLK source -------------------------------------------------------*/
  switch (tmpreg & RCC_CFGR_SWS)
 8003d38:	220c      	movs	r2, #12
  tmpreg = RCC->CFGR;
 8003d3a:	4b1d      	ldr	r3, [pc, #116]	; (8003db0 <HAL_RCC_GetSysClockFreq+0x78>)
{
 8003d3c:	b570      	push	{r4, r5, r6, lr}
  tmpreg = RCC->CFGR;
 8003d3e:	68dc      	ldr	r4, [r3, #12]
  switch (tmpreg & RCC_CFGR_SWS)
 8003d40:	4022      	ands	r2, r4
 8003d42:	2a08      	cmp	r2, #8
 8003d44:	d031      	beq.n	8003daa <HAL_RCC_GetSysClockFreq+0x72>
 8003d46:	2a0c      	cmp	r2, #12
 8003d48:	d009      	beq.n	8003d5e <HAL_RCC_GetSysClockFreq+0x26>
 8003d4a:	2a04      	cmp	r2, #4
 8003d4c:	d125      	bne.n	8003d9a <HAL_RCC_GetSysClockFreq+0x62>
  {
    case RCC_SYSCLKSOURCE_STATUS_HSI:  /* HSI used as system clock source */
    {
      if ((RCC->CR & RCC_CR_HSIDIVF) != 0U)
 8003d4e:	6818      	ldr	r0, [r3, #0]
      {
        sysclockfreq =  (HSI_VALUE >> 2);
      }
      else
      {
        sysclockfreq =  HSI_VALUE;
 8003d50:	4b18      	ldr	r3, [pc, #96]	; (8003db4 <HAL_RCC_GetSysClockFreq+0x7c>)
      if ((RCC->CR & RCC_CR_HSIDIVF) != 0U)
 8003d52:	06c0      	lsls	r0, r0, #27
        sysclockfreq =  HSI_VALUE;
 8003d54:	17c0      	asrs	r0, r0, #31
 8003d56:	4018      	ands	r0, r3
 8003d58:	4b17      	ldr	r3, [pc, #92]	; (8003db8 <HAL_RCC_GetSysClockFreq+0x80>)
 8003d5a:	18c0      	adds	r0, r0, r3
      sysclockfreq = (32768U * (1UL << (msiclkrange + 1U)));
      break;
    }
  }
  return sysclockfreq;
}
 8003d5c:	bd70      	pop	{r4, r5, r6, pc}
      pllm = PLLMulTable[(uint32_t)(tmpreg & RCC_CFGR_PLLMUL) >> RCC_CFGR_PLLMUL_Pos];
 8003d5e:	02a2      	lsls	r2, r4, #10
        pllvco = (uint32_t)(((uint64_t)HSE_VALUE * (uint64_t)pllm) / (uint64_t)plld);
 8003d60:	4816      	ldr	r0, [pc, #88]	; (8003dbc <HAL_RCC_GetSysClockFreq+0x84>)
      pllm = PLLMulTable[(uint32_t)(tmpreg & RCC_CFGR_PLLMUL) >> RCC_CFGR_PLLMUL_Pos];
 8003d62:	0f12      	lsrs	r2, r2, #28
        pllvco = (uint32_t)(((uint64_t)HSE_VALUE * (uint64_t)pllm) / (uint64_t)plld);
 8003d64:	5c80      	ldrb	r0, [r0, r2]
      if (__HAL_RCC_GET_PLL_OSCSOURCE() != RCC_PLLSOURCE_HSI)
 8003d66:	2280      	movs	r2, #128	; 0x80
      plld = ((uint32_t)(tmpreg & RCC_CFGR_PLLDIV) >> RCC_CFGR_PLLDIV_Pos) + 1U;
 8003d68:	0224      	lsls	r4, r4, #8
      if (__HAL_RCC_GET_PLL_OSCSOURCE() != RCC_PLLSOURCE_HSI)
 8003d6a:	68d9      	ldr	r1, [r3, #12]
      plld = ((uint32_t)(tmpreg & RCC_CFGR_PLLDIV) >> RCC_CFGR_PLLDIV_Pos) + 1U;
 8003d6c:	0fa4      	lsrs	r4, r4, #30
      if (__HAL_RCC_GET_PLL_OSCSOURCE() != RCC_PLLSOURCE_HSI)
 8003d6e:	0252      	lsls	r2, r2, #9
      plld = ((uint32_t)(tmpreg & RCC_CFGR_PLLDIV) >> RCC_CFGR_PLLDIV_Pos) + 1U;
 8003d70:	3401      	adds	r4, #1
      if (__HAL_RCC_GET_PLL_OSCSOURCE() != RCC_PLLSOURCE_HSI)
 8003d72:	4211      	tst	r1, r2
 8003d74:	d009      	beq.n	8003d8a <HAL_RCC_GetSysClockFreq+0x52>
        pllvco = (uint32_t)(((uint64_t)HSE_VALUE * (uint64_t)pllm) / (uint64_t)plld);
 8003d76:	4a12      	ldr	r2, [pc, #72]	; (8003dc0 <HAL_RCC_GetSysClockFreq+0x88>)
 8003d78:	2300      	movs	r3, #0
 8003d7a:	2100      	movs	r1, #0
 8003d7c:	f7fc fa8e 	bl	800029c <__aeabi_lmul>
 8003d80:	0022      	movs	r2, r4
 8003d82:	2300      	movs	r3, #0
 8003d84:	f7fc fa6a 	bl	800025c <__aeabi_uldivmod>
 8003d88:	e7e8      	b.n	8003d5c <HAL_RCC_GetSysClockFreq+0x24>
        if ((RCC->CR & RCC_CR_HSIDIVF) != 0U)
 8003d8a:	681a      	ldr	r2, [r3, #0]
 8003d8c:	2310      	movs	r3, #16
 8003d8e:	421a      	tst	r2, r3
 8003d90:	d001      	beq.n	8003d96 <HAL_RCC_GetSysClockFreq+0x5e>
          pllvco = (uint32_t)((((uint64_t)(HSI_VALUE >> 2)) * (uint64_t)pllm) / (uint64_t)plld);
 8003d92:	4a0c      	ldr	r2, [pc, #48]	; (8003dc4 <HAL_RCC_GetSysClockFreq+0x8c>)
 8003d94:	e7f0      	b.n	8003d78 <HAL_RCC_GetSysClockFreq+0x40>
         pllvco = (uint32_t)(((uint64_t)HSI_VALUE * (uint64_t)pllm) / (uint64_t)plld);
 8003d96:	4a08      	ldr	r2, [pc, #32]	; (8003db8 <HAL_RCC_GetSysClockFreq+0x80>)
 8003d98:	e7ee      	b.n	8003d78 <HAL_RCC_GetSysClockFreq+0x40>
      sysclockfreq = (32768U * (1UL << (msiclkrange + 1U)));
 8003d9a:	2080      	movs	r0, #128	; 0x80
      msiclkrange = (RCC->ICSCR & RCC_ICSCR_MSIRANGE ) >> RCC_ICSCR_MSIRANGE_Pos;
 8003d9c:	685b      	ldr	r3, [r3, #4]
      sysclockfreq = (32768U * (1UL << (msiclkrange + 1U)));
 8003d9e:	0200      	lsls	r0, r0, #8
      msiclkrange = (RCC->ICSCR & RCC_ICSCR_MSIRANGE ) >> RCC_ICSCR_MSIRANGE_Pos;
 8003da0:	041b      	lsls	r3, r3, #16
 8003da2:	0f5b      	lsrs	r3, r3, #29
      sysclockfreq = (32768U * (1UL << (msiclkrange + 1U)));
 8003da4:	3301      	adds	r3, #1
 8003da6:	4098      	lsls	r0, r3
      break;
 8003da8:	e7d8      	b.n	8003d5c <HAL_RCC_GetSysClockFreq+0x24>
  switch (tmpreg & RCC_CFGR_SWS)
 8003daa:	4805      	ldr	r0, [pc, #20]	; (8003dc0 <HAL_RCC_GetSysClockFreq+0x88>)
 8003dac:	e7d6      	b.n	8003d5c <HAL_RCC_GetSysClockFreq+0x24>
 8003dae:	46c0      	nop			; (mov r8, r8)
 8003db0:	40021000 	.word	0x40021000
 8003db4:	ff48e500 	.word	0xff48e500
 8003db8:	00f42400 	.word	0x00f42400
 8003dbc:	0800634f 	.word	0x0800634f
 8003dc0:	007a1200 	.word	0x007a1200
 8003dc4:	003d0900 	.word	0x003d0900

08003dc8 <HAL_RCC_OscConfig>:
{
 8003dc8:	b5f0      	push	{r4, r5, r6, r7, lr}
 8003dca:	0005      	movs	r5, r0
 8003dcc:	b085      	sub	sp, #20
  if(RCC_OscInitStruct == NULL)
 8003dce:	2800      	cmp	r0, #0
 8003dd0:	d05a      	beq.n	8003e88 <HAL_RCC_OscConfig+0xc0>
  sysclk_source = __HAL_RCC_GET_SYSCLK_SOURCE();
 8003dd2:	230c      	movs	r3, #12
 8003dd4:	4cbe      	ldr	r4, [pc, #760]	; (80040d0 <HAL_RCC_OscConfig+0x308>)
  if(((RCC_OscInitStruct->OscillatorType) & RCC_OSCILLATORTYPE_HSE) == RCC_OSCILLATORTYPE_HSE)
 8003dd6:	6802      	ldr	r2, [r0, #0]
  sysclk_source = __HAL_RCC_GET_SYSCLK_SOURCE();
 8003dd8:	68e6      	ldr	r6, [r4, #12]
  pll_config = __HAL_RCC_GET_PLL_OSCSOURCE();
 8003dda:	68e7      	ldr	r7, [r4, #12]
  sysclk_source = __HAL_RCC_GET_SYSCLK_SOURCE();
 8003ddc:	401e      	ands	r6, r3
  pll_config = __HAL_RCC_GET_PLL_OSCSOURCE();
 8003dde:	2380      	movs	r3, #128	; 0x80
 8003de0:	025b      	lsls	r3, r3, #9
 8003de2:	0019      	movs	r1, r3
 8003de4:	401f      	ands	r7, r3
  if(((RCC_OscInitStruct->OscillatorType) & RCC_OSCILLATORTYPE_HSE) == RCC_OSCILLATORTYPE_HSE)
 8003de6:	07d2      	lsls	r2, r2, #31
 8003de8:	d442      	bmi.n	8003e70 <HAL_RCC_OscConfig+0xa8>
  if(((RCC_OscInitStruct->OscillatorType) & RCC_OSCILLATORTYPE_HSI) == RCC_OSCILLATORTYPE_HSI)
 8003dea:	682b      	ldr	r3, [r5, #0]
 8003dec:	079b      	lsls	r3, r3, #30
 8003dee:	d500      	bpl.n	8003df2 <HAL_RCC_OscConfig+0x2a>
 8003df0:	e08b      	b.n	8003f0a <HAL_RCC_OscConfig+0x142>
  if(((RCC_OscInitStruct->OscillatorType) & RCC_OSCILLATORTYPE_MSI) == RCC_OSCILLATORTYPE_MSI)
 8003df2:	682b      	ldr	r3, [r5, #0]
 8003df4:	06db      	lsls	r3, r3, #27
 8003df6:	d529      	bpl.n	8003e4c <HAL_RCC_OscConfig+0x84>
    if(sysclk_source == RCC_CFGR_SWS_MSI)
 8003df8:	2e00      	cmp	r6, #0
 8003dfa:	d000      	beq.n	8003dfe <HAL_RCC_OscConfig+0x36>
 8003dfc:	e0dc      	b.n	8003fb8 <HAL_RCC_OscConfig+0x1f0>
      if((__HAL_RCC_GET_FLAG(RCC_FLAG_MSIRDY) != 0U) && (RCC_OscInitStruct->MSIState == RCC_MSI_OFF))
 8003dfe:	6823      	ldr	r3, [r4, #0]
 8003e00:	059b      	lsls	r3, r3, #22
 8003e02:	d502      	bpl.n	8003e0a <HAL_RCC_OscConfig+0x42>
 8003e04:	69eb      	ldr	r3, [r5, #28]
 8003e06:	2b00      	cmp	r3, #0
 8003e08:	d03e      	beq.n	8003e88 <HAL_RCC_OscConfig+0xc0>
        __HAL_RCC_MSI_RANGE_CONFIG(RCC_OscInitStruct->MSIClockRange);
 8003e0a:	6862      	ldr	r2, [r4, #4]
 8003e0c:	49b1      	ldr	r1, [pc, #708]	; (80040d4 <HAL_RCC_OscConfig+0x30c>)
 8003e0e:	6a6b      	ldr	r3, [r5, #36]	; 0x24
 8003e10:	400a      	ands	r2, r1
 8003e12:	431a      	orrs	r2, r3
 8003e14:	6062      	str	r2, [r4, #4]
        __HAL_RCC_MSI_CALIBRATIONVALUE_ADJUST(RCC_OscInitStruct->MSICalibrationValue);
 8003e16:	6861      	ldr	r1, [r4, #4]
 8003e18:	6a2a      	ldr	r2, [r5, #32]
 8003e1a:	0209      	lsls	r1, r1, #8
 8003e1c:	0a09      	lsrs	r1, r1, #8
 8003e1e:	0612      	lsls	r2, r2, #24
 8003e20:	430a      	orrs	r2, r1
 8003e22:	6062      	str	r2, [r4, #4]
        SystemCoreClock =  (32768U * (1UL << ((RCC_OscInitStruct->MSIClockRange >> RCC_ICSCR_MSIRANGE_Pos) + 1U)))
 8003e24:	2280      	movs	r2, #128	; 0x80
 8003e26:	0b5b      	lsrs	r3, r3, #13
 8003e28:	3301      	adds	r3, #1
 8003e2a:	0212      	lsls	r2, r2, #8
 8003e2c:	409a      	lsls	r2, r3
 8003e2e:	0013      	movs	r3, r2
                           >> AHBPrescTable[((RCC->CFGR & RCC_CFGR_HPRE) >> RCC_CFGR_HPRE_Pos)];
 8003e30:	68e1      	ldr	r1, [r4, #12]
 8003e32:	060a      	lsls	r2, r1, #24
 8003e34:	49a8      	ldr	r1, [pc, #672]	; (80040d8 <HAL_RCC_OscConfig+0x310>)
 8003e36:	0f12      	lsrs	r2, r2, #28
 8003e38:	5c8a      	ldrb	r2, [r1, r2]
 8003e3a:	40d3      	lsrs	r3, r2
        SystemCoreClock =  (32768U * (1UL << ((RCC_OscInitStruct->MSIClockRange >> RCC_ICSCR_MSIRANGE_Pos) + 1U)))
 8003e3c:	4aa7      	ldr	r2, [pc, #668]	; (80040dc <HAL_RCC_OscConfig+0x314>)
 8003e3e:	6013      	str	r3, [r2, #0]
        status = HAL_InitTick (uwTickPrio);
 8003e40:	4ba7      	ldr	r3, [pc, #668]	; (80040e0 <HAL_RCC_OscConfig+0x318>)
 8003e42:	6818      	ldr	r0, [r3, #0]
 8003e44:	f7fe feb8 	bl	8002bb8 <HAL_InitTick>
        if(status != HAL_OK)
 8003e48:	2800      	cmp	r0, #0
 8003e4a:	d134      	bne.n	8003eb6 <HAL_RCC_OscConfig+0xee>
  if(((RCC_OscInitStruct->OscillatorType) & RCC_OSCILLATORTYPE_LSI) == RCC_OSCILLATORTYPE_LSI)
 8003e4c:	682b      	ldr	r3, [r5, #0]
 8003e4e:	071b      	lsls	r3, r3, #28
 8003e50:	d500      	bpl.n	8003e54 <HAL_RCC_OscConfig+0x8c>
 8003e52:	e0e8      	b.n	8004026 <HAL_RCC_OscConfig+0x25e>
  if(((RCC_OscInitStruct->OscillatorType) & RCC_OSCILLATORTYPE_LSE) == RCC_OSCILLATORTYPE_LSE)
 8003e54:	682b      	ldr	r3, [r5, #0]
 8003e56:	075b      	lsls	r3, r3, #29
 8003e58:	d500      	bpl.n	8003e5c <HAL_RCC_OscConfig+0x94>
 8003e5a:	e10a      	b.n	8004072 <HAL_RCC_OscConfig+0x2aa>
  if(((RCC_OscInitStruct->OscillatorType) & RCC_OSCILLATORTYPE_HSI48) == RCC_OSCILLATORTYPE_HSI48)
 8003e5c:	682b      	ldr	r3, [r5, #0]
 8003e5e:	069b      	lsls	r3, r3, #26
 8003e60:	d500      	bpl.n	8003e64 <HAL_RCC_OscConfig+0x9c>
 8003e62:	e18e      	b.n	8004182 <HAL_RCC_OscConfig+0x3ba>
  if ((RCC_OscInitStruct->PLL.PLLState) != RCC_PLL_NONE)
 8003e64:	6aab      	ldr	r3, [r5, #40]	; 0x28
 8003e66:	2b00      	cmp	r3, #0
 8003e68:	d000      	beq.n	8003e6c <HAL_RCC_OscConfig+0xa4>
 8003e6a:	e1bd      	b.n	80041e8 <HAL_RCC_OscConfig+0x420>
  return HAL_OK;
 8003e6c:	2000      	movs	r0, #0
 8003e6e:	e022      	b.n	8003eb6 <HAL_RCC_OscConfig+0xee>
    if((sysclk_source == RCC_SYSCLKSOURCE_STATUS_HSE)
 8003e70:	2e08      	cmp	r6, #8
 8003e72:	d003      	beq.n	8003e7c <HAL_RCC_OscConfig+0xb4>
       || ((sysclk_source == RCC_SYSCLKSOURCE_STATUS_PLLCLK) && (pll_config == RCC_PLLSOURCE_HSE)))
 8003e74:	2e0c      	cmp	r6, #12
 8003e76:	d109      	bne.n	8003e8c <HAL_RCC_OscConfig+0xc4>
 8003e78:	2f00      	cmp	r7, #0
 8003e7a:	d007      	beq.n	8003e8c <HAL_RCC_OscConfig+0xc4>
      if((__HAL_RCC_GET_FLAG(RCC_FLAG_HSERDY) != 0U) && (RCC_OscInitStruct->HSEState == RCC_HSE_OFF))
 8003e7c:	6823      	ldr	r3, [r4, #0]
 8003e7e:	039b      	lsls	r3, r3, #14
 8003e80:	d5b3      	bpl.n	8003dea <HAL_RCC_OscConfig+0x22>
 8003e82:	686b      	ldr	r3, [r5, #4]
 8003e84:	2b00      	cmp	r3, #0
 8003e86:	d1b0      	bne.n	8003dea <HAL_RCC_OscConfig+0x22>
          return HAL_ERROR;
 8003e88:	2001      	movs	r0, #1
 8003e8a:	e014      	b.n	8003eb6 <HAL_RCC_OscConfig+0xee>
      __HAL_RCC_HSE_CONFIG(RCC_OscInitStruct->HSEState);
 8003e8c:	686a      	ldr	r2, [r5, #4]
 8003e8e:	428a      	cmp	r2, r1
 8003e90:	d113      	bne.n	8003eba <HAL_RCC_OscConfig+0xf2>
 8003e92:	6822      	ldr	r2, [r4, #0]
 8003e94:	4313      	orrs	r3, r2
 8003e96:	6023      	str	r3, [r4, #0]
        tickstart = HAL_GetTick();
 8003e98:	f7fe fed2 	bl	8002c40 <HAL_GetTick>
 8003e9c:	9000      	str	r0, [sp, #0]
        while(__HAL_RCC_GET_FLAG(RCC_FLAG_HSERDY) == 0U)
 8003e9e:	2280      	movs	r2, #128	; 0x80
 8003ea0:	6823      	ldr	r3, [r4, #0]
 8003ea2:	0292      	lsls	r2, r2, #10
 8003ea4:	4213      	tst	r3, r2
 8003ea6:	d1a0      	bne.n	8003dea <HAL_RCC_OscConfig+0x22>
          if((HAL_GetTick() - tickstart ) > HSE_TIMEOUT_VALUE)
 8003ea8:	f7fe feca 	bl	8002c40 <HAL_GetTick>
 8003eac:	9b00      	ldr	r3, [sp, #0]
 8003eae:	1ac0      	subs	r0, r0, r3
 8003eb0:	2864      	cmp	r0, #100	; 0x64
 8003eb2:	d9f4      	bls.n	8003e9e <HAL_RCC_OscConfig+0xd6>
            return HAL_TIMEOUT;
 8003eb4:	2003      	movs	r0, #3
}
 8003eb6:	b005      	add	sp, #20
 8003eb8:	bdf0      	pop	{r4, r5, r6, r7, pc}
      __HAL_RCC_HSE_CONFIG(RCC_OscInitStruct->HSEState);
 8003eba:	21a0      	movs	r1, #160	; 0xa0
 8003ebc:	02c9      	lsls	r1, r1, #11
 8003ebe:	428a      	cmp	r2, r1
 8003ec0:	d105      	bne.n	8003ece <HAL_RCC_OscConfig+0x106>
 8003ec2:	2280      	movs	r2, #128	; 0x80
 8003ec4:	6821      	ldr	r1, [r4, #0]
 8003ec6:	02d2      	lsls	r2, r2, #11
 8003ec8:	430a      	orrs	r2, r1
 8003eca:	6022      	str	r2, [r4, #0]
 8003ecc:	e7e1      	b.n	8003e92 <HAL_RCC_OscConfig+0xca>
 8003ece:	6821      	ldr	r1, [r4, #0]
 8003ed0:	4884      	ldr	r0, [pc, #528]	; (80040e4 <HAL_RCC_OscConfig+0x31c>)
 8003ed2:	4001      	ands	r1, r0
 8003ed4:	6021      	str	r1, [r4, #0]
 8003ed6:	6821      	ldr	r1, [r4, #0]
 8003ed8:	400b      	ands	r3, r1
 8003eda:	9303      	str	r3, [sp, #12]
 8003edc:	9b03      	ldr	r3, [sp, #12]
 8003ede:	4982      	ldr	r1, [pc, #520]	; (80040e8 <HAL_RCC_OscConfig+0x320>)
 8003ee0:	6823      	ldr	r3, [r4, #0]
 8003ee2:	400b      	ands	r3, r1
 8003ee4:	6023      	str	r3, [r4, #0]
      if(RCC_OscInitStruct->HSEState != RCC_HSE_OFF)
 8003ee6:	2a00      	cmp	r2, #0
 8003ee8:	d1d6      	bne.n	8003e98 <HAL_RCC_OscConfig+0xd0>
        tickstart = HAL_GetTick();
 8003eea:	f7fe fea9 	bl	8002c40 <HAL_GetTick>
 8003eee:	9000      	str	r0, [sp, #0]
        while(__HAL_RCC_GET_FLAG(RCC_FLAG_HSERDY) != 0U)
 8003ef0:	2280      	movs	r2, #128	; 0x80
 8003ef2:	6823      	ldr	r3, [r4, #0]
 8003ef4:	0292      	lsls	r2, r2, #10
 8003ef6:	4213      	tst	r3, r2
 8003ef8:	d100      	bne.n	8003efc <HAL_RCC_OscConfig+0x134>
 8003efa:	e776      	b.n	8003dea <HAL_RCC_OscConfig+0x22>
           if((HAL_GetTick() - tickstart ) > HSE_TIMEOUT_VALUE)
 8003efc:	f7fe fea0 	bl	8002c40 <HAL_GetTick>
 8003f00:	9b00      	ldr	r3, [sp, #0]
 8003f02:	1ac0      	subs	r0, r0, r3
 8003f04:	2864      	cmp	r0, #100	; 0x64
 8003f06:	d9f3      	bls.n	8003ef0 <HAL_RCC_OscConfig+0x128>
 8003f08:	e7d4      	b.n	8003eb4 <HAL_RCC_OscConfig+0xec>
    hsi_state = RCC_OscInitStruct->HSIState;
 8003f0a:	68ea      	ldr	r2, [r5, #12]
    if((sysclk_source == RCC_SYSCLKSOURCE_STATUS_HSI)
 8003f0c:	2e04      	cmp	r6, #4
 8003f0e:	d003      	beq.n	8003f18 <HAL_RCC_OscConfig+0x150>
       || ((sysclk_source == RCC_SYSCLKSOURCE_STATUS_PLLCLK) && (pll_config == RCC_PLLSOURCE_HSI)))
 8003f10:	2e0c      	cmp	r6, #12
 8003f12:	d124      	bne.n	8003f5e <HAL_RCC_OscConfig+0x196>
 8003f14:	2f00      	cmp	r7, #0
 8003f16:	d122      	bne.n	8003f5e <HAL_RCC_OscConfig+0x196>
      if((__HAL_RCC_GET_FLAG(RCC_FLAG_HSIRDY) != 0U) && (hsi_state == RCC_HSI_OFF))
 8003f18:	6823      	ldr	r3, [r4, #0]
 8003f1a:	075b      	lsls	r3, r3, #29
 8003f1c:	d501      	bpl.n	8003f22 <HAL_RCC_OscConfig+0x15a>
 8003f1e:	2a00      	cmp	r2, #0
 8003f20:	d0b2      	beq.n	8003e88 <HAL_RCC_OscConfig+0xc0>
        __HAL_RCC_HSI_CALIBRATIONVALUE_ADJUST(RCC_OscInitStruct->HSICalibrationValue);
 8003f22:	6861      	ldr	r1, [r4, #4]
 8003f24:	692b      	ldr	r3, [r5, #16]
 8003f26:	4871      	ldr	r0, [pc, #452]	; (80040ec <HAL_RCC_OscConfig+0x324>)
 8003f28:	021b      	lsls	r3, r3, #8
 8003f2a:	4001      	ands	r1, r0
 8003f2c:	430b      	orrs	r3, r1
        __HAL_RCC_HSI_CONFIG(hsi_state);
 8003f2e:	2109      	movs	r1, #9
        __HAL_RCC_HSI_CALIBRATIONVALUE_ADJUST(RCC_OscInitStruct->HSICalibrationValue);
 8003f30:	6063      	str	r3, [r4, #4]
        __HAL_RCC_HSI_CONFIG(hsi_state);
 8003f32:	6823      	ldr	r3, [r4, #0]
 8003f34:	438b      	bics	r3, r1
 8003f36:	4313      	orrs	r3, r2
 8003f38:	6023      	str	r3, [r4, #0]
      SystemCoreClock = HAL_RCC_GetSysClockFreq() >> AHBPrescTable[(RCC->CFGR & RCC_CFGR_HPRE)>> RCC_CFGR_HPRE_Pos];
 8003f3a:	f7ff fefd 	bl	8003d38 <HAL_RCC_GetSysClockFreq>
 8003f3e:	68e3      	ldr	r3, [r4, #12]
 8003f40:	4a65      	ldr	r2, [pc, #404]	; (80040d8 <HAL_RCC_OscConfig+0x310>)
 8003f42:	061b      	lsls	r3, r3, #24
 8003f44:	0f1b      	lsrs	r3, r3, #28
 8003f46:	5cd3      	ldrb	r3, [r2, r3]
 8003f48:	40d8      	lsrs	r0, r3
 8003f4a:	4b64      	ldr	r3, [pc, #400]	; (80040dc <HAL_RCC_OscConfig+0x314>)
 8003f4c:	6018      	str	r0, [r3, #0]
      status = HAL_InitTick (uwTickPrio);
 8003f4e:	4b64      	ldr	r3, [pc, #400]	; (80040e0 <HAL_RCC_OscConfig+0x318>)
 8003f50:	6818      	ldr	r0, [r3, #0]
 8003f52:	f7fe fe31 	bl	8002bb8 <HAL_InitTick>
      if(status != HAL_OK)
 8003f56:	2800      	cmp	r0, #0
 8003f58:	d100      	bne.n	8003f5c <HAL_RCC_OscConfig+0x194>
 8003f5a:	e74a      	b.n	8003df2 <HAL_RCC_OscConfig+0x2a>
 8003f5c:	e7ab      	b.n	8003eb6 <HAL_RCC_OscConfig+0xee>
        __HAL_RCC_HSI_CONFIG(hsi_state);
 8003f5e:	6823      	ldr	r3, [r4, #0]
      if(hsi_state != RCC_HSI_OFF)
 8003f60:	2a00      	cmp	r2, #0
 8003f62:	d018      	beq.n	8003f96 <HAL_RCC_OscConfig+0x1ce>
        __HAL_RCC_HSI_CONFIG(hsi_state);
 8003f64:	2109      	movs	r1, #9
 8003f66:	438b      	bics	r3, r1
 8003f68:	4313      	orrs	r3, r2
 8003f6a:	6023      	str	r3, [r4, #0]
        tickstart = HAL_GetTick();
 8003f6c:	f7fe fe68 	bl	8002c40 <HAL_GetTick>
 8003f70:	0007      	movs	r7, r0
        while(__HAL_RCC_GET_FLAG(RCC_FLAG_HSIRDY) == 0U)
 8003f72:	2204      	movs	r2, #4
 8003f74:	6823      	ldr	r3, [r4, #0]
 8003f76:	4213      	tst	r3, r2
 8003f78:	d007      	beq.n	8003f8a <HAL_RCC_OscConfig+0x1c2>
        __HAL_RCC_HSI_CALIBRATIONVALUE_ADJUST(RCC_OscInitStruct->HSICalibrationValue);
 8003f7a:	6862      	ldr	r2, [r4, #4]
 8003f7c:	692b      	ldr	r3, [r5, #16]
 8003f7e:	495b      	ldr	r1, [pc, #364]	; (80040ec <HAL_RCC_OscConfig+0x324>)
 8003f80:	021b      	lsls	r3, r3, #8
 8003f82:	400a      	ands	r2, r1
 8003f84:	4313      	orrs	r3, r2
 8003f86:	6063      	str	r3, [r4, #4]
 8003f88:	e733      	b.n	8003df2 <HAL_RCC_OscConfig+0x2a>
          if((HAL_GetTick() - tickstart ) > HSI_TIMEOUT_VALUE)
 8003f8a:	f7fe fe59 	bl	8002c40 <HAL_GetTick>
 8003f8e:	1bc0      	subs	r0, r0, r7
 8003f90:	2802      	cmp	r0, #2
 8003f92:	d9ee      	bls.n	8003f72 <HAL_RCC_OscConfig+0x1aa>
 8003f94:	e78e      	b.n	8003eb4 <HAL_RCC_OscConfig+0xec>
        __HAL_RCC_HSI_DISABLE();
 8003f96:	2201      	movs	r2, #1
 8003f98:	4393      	bics	r3, r2
 8003f9a:	6023      	str	r3, [r4, #0]
        tickstart = HAL_GetTick();
 8003f9c:	f7fe fe50 	bl	8002c40 <HAL_GetTick>
 8003fa0:	0007      	movs	r7, r0
        while(__HAL_RCC_GET_FLAG(RCC_FLAG_HSIRDY) != 0U)
 8003fa2:	2204      	movs	r2, #4
 8003fa4:	6823      	ldr	r3, [r4, #0]
 8003fa6:	4213      	tst	r3, r2
 8003fa8:	d100      	bne.n	8003fac <HAL_RCC_OscConfig+0x1e4>
 8003faa:	e722      	b.n	8003df2 <HAL_RCC_OscConfig+0x2a>
          if((HAL_GetTick() - tickstart ) > HSI_TIMEOUT_VALUE)
 8003fac:	f7fe fe48 	bl	8002c40 <HAL_GetTick>
 8003fb0:	1bc0      	subs	r0, r0, r7
 8003fb2:	2802      	cmp	r0, #2
 8003fb4:	d9f5      	bls.n	8003fa2 <HAL_RCC_OscConfig+0x1da>
 8003fb6:	e77d      	b.n	8003eb4 <HAL_RCC_OscConfig+0xec>
      if(RCC_OscInitStruct->MSIState != RCC_MSI_OFF)
 8003fb8:	69eb      	ldr	r3, [r5, #28]
 8003fba:	2b00      	cmp	r3, #0
 8003fbc:	d020      	beq.n	8004000 <HAL_RCC_OscConfig+0x238>
        __HAL_RCC_MSI_ENABLE();
 8003fbe:	2380      	movs	r3, #128	; 0x80
 8003fc0:	6822      	ldr	r2, [r4, #0]
 8003fc2:	005b      	lsls	r3, r3, #1
 8003fc4:	4313      	orrs	r3, r2
 8003fc6:	6023      	str	r3, [r4, #0]
        tickstart = HAL_GetTick();
 8003fc8:	f7fe fe3a 	bl	8002c40 <HAL_GetTick>
 8003fcc:	0007      	movs	r7, r0
        while(__HAL_RCC_GET_FLAG(RCC_FLAG_MSIRDY) == 0U)
 8003fce:	2280      	movs	r2, #128	; 0x80
 8003fd0:	6823      	ldr	r3, [r4, #0]
 8003fd2:	0092      	lsls	r2, r2, #2
 8003fd4:	4213      	tst	r3, r2
 8003fd6:	d00d      	beq.n	8003ff4 <HAL_RCC_OscConfig+0x22c>
        __HAL_RCC_MSI_RANGE_CONFIG(RCC_OscInitStruct->MSIClockRange);
 8003fd8:	6863      	ldr	r3, [r4, #4]
 8003fda:	4a3e      	ldr	r2, [pc, #248]	; (80040d4 <HAL_RCC_OscConfig+0x30c>)
 8003fdc:	4013      	ands	r3, r2
 8003fde:	6a6a      	ldr	r2, [r5, #36]	; 0x24
 8003fe0:	4313      	orrs	r3, r2
 8003fe2:	6063      	str	r3, [r4, #4]
        __HAL_RCC_MSI_CALIBRATIONVALUE_ADJUST(RCC_OscInitStruct->MSICalibrationValue);
 8003fe4:	6862      	ldr	r2, [r4, #4]
 8003fe6:	6a2b      	ldr	r3, [r5, #32]
 8003fe8:	0212      	lsls	r2, r2, #8
 8003fea:	061b      	lsls	r3, r3, #24
 8003fec:	0a12      	lsrs	r2, r2, #8
 8003fee:	4313      	orrs	r3, r2
 8003ff0:	6063      	str	r3, [r4, #4]
 8003ff2:	e72b      	b.n	8003e4c <HAL_RCC_OscConfig+0x84>
          if((HAL_GetTick() - tickstart) > MSI_TIMEOUT_VALUE)
 8003ff4:	f7fe fe24 	bl	8002c40 <HAL_GetTick>
 8003ff8:	1bc0      	subs	r0, r0, r7
 8003ffa:	2802      	cmp	r0, #2
 8003ffc:	d9e7      	bls.n	8003fce <HAL_RCC_OscConfig+0x206>
 8003ffe:	e759      	b.n	8003eb4 <HAL_RCC_OscConfig+0xec>
        __HAL_RCC_MSI_DISABLE();
 8004000:	6823      	ldr	r3, [r4, #0]
 8004002:	4a3b      	ldr	r2, [pc, #236]	; (80040f0 <HAL_RCC_OscConfig+0x328>)
 8004004:	4013      	ands	r3, r2
 8004006:	6023      	str	r3, [r4, #0]
        tickstart = HAL_GetTick();
 8004008:	f7fe fe1a 	bl	8002c40 <HAL_GetTick>
 800400c:	0007      	movs	r7, r0
        while(__HAL_RCC_GET_FLAG(RCC_FLAG_MSIRDY) != 0U)
 800400e:	2280      	movs	r2, #128	; 0x80
 8004010:	6823      	ldr	r3, [r4, #0]
 8004012:	0092      	lsls	r2, r2, #2
 8004014:	4213      	tst	r3, r2
 8004016:	d100      	bne.n	800401a <HAL_RCC_OscConfig+0x252>
 8004018:	e718      	b.n	8003e4c <HAL_RCC_OscConfig+0x84>
          if((HAL_GetTick() - tickstart) > MSI_TIMEOUT_VALUE)
 800401a:	f7fe fe11 	bl	8002c40 <HAL_GetTick>
 800401e:	1bc0      	subs	r0, r0, r7
 8004020:	2802      	cmp	r0, #2
 8004022:	d9f4      	bls.n	800400e <HAL_RCC_OscConfig+0x246>
 8004024:	e746      	b.n	8003eb4 <HAL_RCC_OscConfig+0xec>
    if(RCC_OscInitStruct->LSIState != RCC_LSI_OFF)
 8004026:	696a      	ldr	r2, [r5, #20]
 8004028:	2301      	movs	r3, #1
 800402a:	2a00      	cmp	r2, #0
 800402c:	d010      	beq.n	8004050 <HAL_RCC_OscConfig+0x288>
      __HAL_RCC_LSI_ENABLE();
 800402e:	6d22      	ldr	r2, [r4, #80]	; 0x50
 8004030:	4313      	orrs	r3, r2
 8004032:	6523      	str	r3, [r4, #80]	; 0x50
      tickstart = HAL_GetTick();
 8004034:	f7fe fe04 	bl	8002c40 <HAL_GetTick>
 8004038:	0007      	movs	r7, r0
      while(__HAL_RCC_GET_FLAG(RCC_FLAG_LSIRDY) == 0U)
 800403a:	2202      	movs	r2, #2
 800403c:	6d23      	ldr	r3, [r4, #80]	; 0x50
 800403e:	4213      	tst	r3, r2
 8004040:	d000      	beq.n	8004044 <HAL_RCC_OscConfig+0x27c>
 8004042:	e707      	b.n	8003e54 <HAL_RCC_OscConfig+0x8c>
        if((HAL_GetTick() - tickstart ) > LSI_TIMEOUT_VALUE)
 8004044:	f7fe fdfc 	bl	8002c40 <HAL_GetTick>
 8004048:	1bc0      	subs	r0, r0, r7
 800404a:	2802      	cmp	r0, #2
 800404c:	d9f5      	bls.n	800403a <HAL_RCC_OscConfig+0x272>
 800404e:	e731      	b.n	8003eb4 <HAL_RCC_OscConfig+0xec>
      __HAL_RCC_LSI_DISABLE();
 8004050:	6d22      	ldr	r2, [r4, #80]	; 0x50
 8004052:	439a      	bics	r2, r3
 8004054:	6522      	str	r2, [r4, #80]	; 0x50
      tickstart = HAL_GetTick();
 8004056:	f7fe fdf3 	bl	8002c40 <HAL_GetTick>
 800405a:	0007      	movs	r7, r0
      while(__HAL_RCC_GET_FLAG(RCC_FLAG_LSIRDY) != 0U)
 800405c:	2202      	movs	r2, #2
 800405e:	6d23      	ldr	r3, [r4, #80]	; 0x50
 8004060:	4213      	tst	r3, r2
 8004062:	d100      	bne.n	8004066 <HAL_RCC_OscConfig+0x29e>
 8004064:	e6f6      	b.n	8003e54 <HAL_RCC_OscConfig+0x8c>
        if((HAL_GetTick() - tickstart ) > LSI_TIMEOUT_VALUE)
 8004066:	f7fe fdeb 	bl	8002c40 <HAL_GetTick>
 800406a:	1bc0      	subs	r0, r0, r7
 800406c:	2802      	cmp	r0, #2
 800406e:	d9f5      	bls.n	800405c <HAL_RCC_OscConfig+0x294>
 8004070:	e720      	b.n	8003eb4 <HAL_RCC_OscConfig+0xec>
    if(__HAL_RCC_PWR_IS_CLK_DISABLED())
 8004072:	2380      	movs	r3, #128	; 0x80
    FlagStatus       pwrclkchanged = RESET;
 8004074:	2100      	movs	r1, #0
    if(__HAL_RCC_PWR_IS_CLK_DISABLED())
 8004076:	6ba2      	ldr	r2, [r4, #56]	; 0x38
 8004078:	055b      	lsls	r3, r3, #21
    FlagStatus       pwrclkchanged = RESET;
 800407a:	9100      	str	r1, [sp, #0]
    if(__HAL_RCC_PWR_IS_CLK_DISABLED())
 800407c:	421a      	tst	r2, r3
 800407e:	d104      	bne.n	800408a <HAL_RCC_OscConfig+0x2c2>
      __HAL_RCC_PWR_CLK_ENABLE();
 8004080:	6ba2      	ldr	r2, [r4, #56]	; 0x38
 8004082:	4313      	orrs	r3, r2
 8004084:	63a3      	str	r3, [r4, #56]	; 0x38
      pwrclkchanged = SET;
 8004086:	2301      	movs	r3, #1
 8004088:	9300      	str	r3, [sp, #0]
    if(HAL_IS_BIT_CLR(PWR->CR, PWR_CR_DBP))
 800408a:	2280      	movs	r2, #128	; 0x80
 800408c:	4f19      	ldr	r7, [pc, #100]	; (80040f4 <HAL_RCC_OscConfig+0x32c>)
 800408e:	0052      	lsls	r2, r2, #1
 8004090:	683b      	ldr	r3, [r7, #0]
 8004092:	4213      	tst	r3, r2
 8004094:	d008      	beq.n	80040a8 <HAL_RCC_OscConfig+0x2e0>
    __HAL_RCC_LSE_CONFIG(RCC_OscInitStruct->LSEState);
 8004096:	2280      	movs	r2, #128	; 0x80
 8004098:	68ab      	ldr	r3, [r5, #8]
 800409a:	0052      	lsls	r2, r2, #1
 800409c:	4293      	cmp	r3, r2
 800409e:	d12b      	bne.n	80040f8 <HAL_RCC_OscConfig+0x330>
 80040a0:	6d22      	ldr	r2, [r4, #80]	; 0x50
 80040a2:	4313      	orrs	r3, r2
 80040a4:	6523      	str	r3, [r4, #80]	; 0x50
 80040a6:	e04c      	b.n	8004142 <HAL_RCC_OscConfig+0x37a>
      SET_BIT(PWR->CR, PWR_CR_DBP);
 80040a8:	2280      	movs	r2, #128	; 0x80
 80040aa:	683b      	ldr	r3, [r7, #0]
 80040ac:	0052      	lsls	r2, r2, #1
 80040ae:	4313      	orrs	r3, r2
 80040b0:	603b      	str	r3, [r7, #0]
      tickstart = HAL_GetTick();
 80040b2:	f7fe fdc5 	bl	8002c40 <HAL_GetTick>
 80040b6:	9001      	str	r0, [sp, #4]
      while(HAL_IS_BIT_CLR(PWR->CR, PWR_CR_DBP))
 80040b8:	2280      	movs	r2, #128	; 0x80
 80040ba:	683b      	ldr	r3, [r7, #0]
 80040bc:	0052      	lsls	r2, r2, #1
 80040be:	4213      	tst	r3, r2
 80040c0:	d1e9      	bne.n	8004096 <HAL_RCC_OscConfig+0x2ce>
        if((HAL_GetTick() - tickstart) > RCC_DBP_TIMEOUT_VALUE)
 80040c2:	f7fe fdbd 	bl	8002c40 <HAL_GetTick>
 80040c6:	9b01      	ldr	r3, [sp, #4]
 80040c8:	1ac0      	subs	r0, r0, r3
 80040ca:	2864      	cmp	r0, #100	; 0x64
 80040cc:	d9f4      	bls.n	80040b8 <HAL_RCC_OscConfig+0x2f0>
 80040ce:	e6f1      	b.n	8003eb4 <HAL_RCC_OscConfig+0xec>
 80040d0:	40021000 	.word	0x40021000
 80040d4:	ffff1fff 	.word	0xffff1fff
 80040d8:	0800633f 	.word	0x0800633f
 80040dc:	20000040 	.word	0x20000040
 80040e0:	20000048 	.word	0x20000048
 80040e4:	fffeffff 	.word	0xfffeffff
 80040e8:	fffbffff 	.word	0xfffbffff
 80040ec:	ffffe0ff 	.word	0xffffe0ff
 80040f0:	fffffeff 	.word	0xfffffeff
 80040f4:	40007000 	.word	0x40007000
    __HAL_RCC_LSE_CONFIG(RCC_OscInitStruct->LSEState);
 80040f8:	2b00      	cmp	r3, #0
 80040fa:	d116      	bne.n	800412a <HAL_RCC_OscConfig+0x362>
 80040fc:	6d23      	ldr	r3, [r4, #80]	; 0x50
 80040fe:	4a6b      	ldr	r2, [pc, #428]	; (80042ac <HAL_RCC_OscConfig+0x4e4>)
 8004100:	4013      	ands	r3, r2
 8004102:	6523      	str	r3, [r4, #80]	; 0x50
 8004104:	6d23      	ldr	r3, [r4, #80]	; 0x50
 8004106:	4a6a      	ldr	r2, [pc, #424]	; (80042b0 <HAL_RCC_OscConfig+0x4e8>)
 8004108:	4013      	ands	r3, r2
 800410a:	6523      	str	r3, [r4, #80]	; 0x50
      tickstart = HAL_GetTick();
 800410c:	f7fe fd98 	bl	8002c40 <HAL_GetTick>
 8004110:	0007      	movs	r7, r0
      while(__HAL_RCC_GET_FLAG(RCC_FLAG_LSERDY) != 0U)
 8004112:	2280      	movs	r2, #128	; 0x80
 8004114:	6d23      	ldr	r3, [r4, #80]	; 0x50
 8004116:	0092      	lsls	r2, r2, #2
 8004118:	4213      	tst	r3, r2
 800411a:	d01a      	beq.n	8004152 <HAL_RCC_OscConfig+0x38a>
        if((HAL_GetTick() - tickstart ) > RCC_LSE_TIMEOUT_VALUE)
 800411c:	f7fe fd90 	bl	8002c40 <HAL_GetTick>
 8004120:	4b64      	ldr	r3, [pc, #400]	; (80042b4 <HAL_RCC_OscConfig+0x4ec>)
 8004122:	1bc0      	subs	r0, r0, r7
 8004124:	4298      	cmp	r0, r3
 8004126:	d9f4      	bls.n	8004112 <HAL_RCC_OscConfig+0x34a>
 8004128:	e6c4      	b.n	8003eb4 <HAL_RCC_OscConfig+0xec>
    __HAL_RCC_LSE_CONFIG(RCC_OscInitStruct->LSEState);
 800412a:	21a0      	movs	r1, #160	; 0xa0
 800412c:	00c9      	lsls	r1, r1, #3
 800412e:	428b      	cmp	r3, r1
 8004130:	d118      	bne.n	8004164 <HAL_RCC_OscConfig+0x39c>
 8004132:	2380      	movs	r3, #128	; 0x80
 8004134:	6d21      	ldr	r1, [r4, #80]	; 0x50
 8004136:	00db      	lsls	r3, r3, #3
 8004138:	430b      	orrs	r3, r1
 800413a:	6523      	str	r3, [r4, #80]	; 0x50
 800413c:	6d23      	ldr	r3, [r4, #80]	; 0x50
 800413e:	431a      	orrs	r2, r3
 8004140:	6522      	str	r2, [r4, #80]	; 0x50
      tickstart = HAL_GetTick();
 8004142:	f7fe fd7d 	bl	8002c40 <HAL_GetTick>
 8004146:	0007      	movs	r7, r0
      while(__HAL_RCC_GET_FLAG(RCC_FLAG_LSERDY) == 0U)
 8004148:	2280      	movs	r2, #128	; 0x80
 800414a:	6d23      	ldr	r3, [r4, #80]	; 0x50
 800414c:	0092      	lsls	r2, r2, #2
 800414e:	4213      	tst	r3, r2
 8004150:	d010      	beq.n	8004174 <HAL_RCC_OscConfig+0x3ac>
    if(pwrclkchanged == SET)
 8004152:	9b00      	ldr	r3, [sp, #0]
 8004154:	2b01      	cmp	r3, #1
 8004156:	d000      	beq.n	800415a <HAL_RCC_OscConfig+0x392>
 8004158:	e680      	b.n	8003e5c <HAL_RCC_OscConfig+0x94>
      __HAL_RCC_PWR_CLK_DISABLE();
 800415a:	6ba3      	ldr	r3, [r4, #56]	; 0x38
 800415c:	4a56      	ldr	r2, [pc, #344]	; (80042b8 <HAL_RCC_OscConfig+0x4f0>)
 800415e:	4013      	ands	r3, r2
 8004160:	63a3      	str	r3, [r4, #56]	; 0x38
 8004162:	e67b      	b.n	8003e5c <HAL_RCC_OscConfig+0x94>
    __HAL_RCC_LSE_CONFIG(RCC_OscInitStruct->LSEState);
 8004164:	6d23      	ldr	r3, [r4, #80]	; 0x50
 8004166:	4a51      	ldr	r2, [pc, #324]	; (80042ac <HAL_RCC_OscConfig+0x4e4>)
 8004168:	4013      	ands	r3, r2
 800416a:	6523      	str	r3, [r4, #80]	; 0x50
 800416c:	6d23      	ldr	r3, [r4, #80]	; 0x50
 800416e:	4a50      	ldr	r2, [pc, #320]	; (80042b0 <HAL_RCC_OscConfig+0x4e8>)
 8004170:	4013      	ands	r3, r2
 8004172:	e797      	b.n	80040a4 <HAL_RCC_OscConfig+0x2dc>
        if((HAL_GetTick() - tickstart ) > RCC_LSE_TIMEOUT_VALUE)
 8004174:	f7fe fd64 	bl	8002c40 <HAL_GetTick>
 8004178:	4b4e      	ldr	r3, [pc, #312]	; (80042b4 <HAL_RCC_OscConfig+0x4ec>)
 800417a:	1bc0      	subs	r0, r0, r7
 800417c:	4298      	cmp	r0, r3
 800417e:	d9e3      	bls.n	8004148 <HAL_RCC_OscConfig+0x380>
 8004180:	e698      	b.n	8003eb4 <HAL_RCC_OscConfig+0xec>
      if(RCC_OscInitStruct->HSI48State != RCC_HSI48_OFF)
 8004182:	69a9      	ldr	r1, [r5, #24]
 8004184:	2301      	movs	r3, #1
 8004186:	4a4d      	ldr	r2, [pc, #308]	; (80042bc <HAL_RCC_OscConfig+0x4f4>)
 8004188:	2900      	cmp	r1, #0
 800418a:	d018      	beq.n	80041be <HAL_RCC_OscConfig+0x3f6>
        __HAL_RCC_HSI48_ENABLE();
 800418c:	68a1      	ldr	r1, [r4, #8]
 800418e:	4319      	orrs	r1, r3
 8004190:	60a1      	str	r1, [r4, #8]
 8004192:	6b61      	ldr	r1, [r4, #52]	; 0x34
 8004194:	430b      	orrs	r3, r1
 8004196:	6363      	str	r3, [r4, #52]	; 0x34
 8004198:	2380      	movs	r3, #128	; 0x80
 800419a:	6a11      	ldr	r1, [r2, #32]
 800419c:	019b      	lsls	r3, r3, #6
 800419e:	430b      	orrs	r3, r1
 80041a0:	6213      	str	r3, [r2, #32]
        tickstart = HAL_GetTick();
 80041a2:	f7fe fd4d 	bl	8002c40 <HAL_GetTick>
 80041a6:	0007      	movs	r7, r0
        while(__HAL_RCC_GET_FLAG(RCC_FLAG_HSI48RDY) == 0U)
 80041a8:	2202      	movs	r2, #2
 80041aa:	68a3      	ldr	r3, [r4, #8]
 80041ac:	4213      	tst	r3, r2
 80041ae:	d000      	beq.n	80041b2 <HAL_RCC_OscConfig+0x3ea>
 80041b0:	e658      	b.n	8003e64 <HAL_RCC_OscConfig+0x9c>
          if((HAL_GetTick() - tickstart) > HSI48_TIMEOUT_VALUE)
 80041b2:	f7fe fd45 	bl	8002c40 <HAL_GetTick>
 80041b6:	1bc0      	subs	r0, r0, r7
 80041b8:	2802      	cmp	r0, #2
 80041ba:	d9f5      	bls.n	80041a8 <HAL_RCC_OscConfig+0x3e0>
 80041bc:	e67a      	b.n	8003eb4 <HAL_RCC_OscConfig+0xec>
        __HAL_RCC_HSI48_DISABLE();
 80041be:	68a1      	ldr	r1, [r4, #8]
 80041c0:	4399      	bics	r1, r3
 80041c2:	60a1      	str	r1, [r4, #8]
 80041c4:	6a13      	ldr	r3, [r2, #32]
 80041c6:	493e      	ldr	r1, [pc, #248]	; (80042c0 <HAL_RCC_OscConfig+0x4f8>)
 80041c8:	400b      	ands	r3, r1
 80041ca:	6213      	str	r3, [r2, #32]
        tickstart = HAL_GetTick();
 80041cc:	f7fe fd38 	bl	8002c40 <HAL_GetTick>
 80041d0:	0007      	movs	r7, r0
        while(__HAL_RCC_GET_FLAG(RCC_FLAG_HSI48RDY) != 0U)
 80041d2:	2202      	movs	r2, #2
 80041d4:	68a3      	ldr	r3, [r4, #8]
 80041d6:	4213      	tst	r3, r2
 80041d8:	d100      	bne.n	80041dc <HAL_RCC_OscConfig+0x414>
 80041da:	e643      	b.n	8003e64 <HAL_RCC_OscConfig+0x9c>
          if((HAL_GetTick() - tickstart) > HSI48_TIMEOUT_VALUE)
 80041dc:	f7fe fd30 	bl	8002c40 <HAL_GetTick>
 80041e0:	1bc0      	subs	r0, r0, r7
 80041e2:	2802      	cmp	r0, #2
 80041e4:	d9f5      	bls.n	80041d2 <HAL_RCC_OscConfig+0x40a>
 80041e6:	e665      	b.n	8003eb4 <HAL_RCC_OscConfig+0xec>
    if(sysclk_source != RCC_SYSCLKSOURCE_STATUS_PLLCLK)
 80041e8:	2e0c      	cmp	r6, #12
 80041ea:	d043      	beq.n	8004274 <HAL_RCC_OscConfig+0x4ac>
      if((RCC_OscInitStruct->PLL.PLLState) == RCC_PLL_ON)
 80041ec:	4a35      	ldr	r2, [pc, #212]	; (80042c4 <HAL_RCC_OscConfig+0x4fc>)
 80041ee:	2b02      	cmp	r3, #2
 80041f0:	d12e      	bne.n	8004250 <HAL_RCC_OscConfig+0x488>
        __HAL_RCC_PLL_DISABLE();
 80041f2:	6823      	ldr	r3, [r4, #0]
        while(__HAL_RCC_GET_FLAG(RCC_FLAG_PLLRDY)  != 0U)
 80041f4:	2780      	movs	r7, #128	; 0x80
        __HAL_RCC_PLL_DISABLE();
 80041f6:	4013      	ands	r3, r2
 80041f8:	6023      	str	r3, [r4, #0]
        tickstart = HAL_GetTick();
 80041fa:	f7fe fd21 	bl	8002c40 <HAL_GetTick>
 80041fe:	0006      	movs	r6, r0
        while(__HAL_RCC_GET_FLAG(RCC_FLAG_PLLRDY)  != 0U)
 8004200:	04bf      	lsls	r7, r7, #18
 8004202:	6823      	ldr	r3, [r4, #0]
 8004204:	423b      	tst	r3, r7
 8004206:	d11d      	bne.n	8004244 <HAL_RCC_OscConfig+0x47c>
        __HAL_RCC_PLL_CONFIG(RCC_OscInitStruct->PLL.PLLSource,
 8004208:	6b29      	ldr	r1, [r5, #48]	; 0x30
 800420a:	6aeb      	ldr	r3, [r5, #44]	; 0x2c
 800420c:	68e2      	ldr	r2, [r4, #12]
 800420e:	430b      	orrs	r3, r1
 8004210:	492d      	ldr	r1, [pc, #180]	; (80042c8 <HAL_RCC_OscConfig+0x500>)
        while(__HAL_RCC_GET_FLAG(RCC_FLAG_PLLRDY)  == 0U)
 8004212:	2680      	movs	r6, #128	; 0x80
        __HAL_RCC_PLL_CONFIG(RCC_OscInitStruct->PLL.PLLSource,
 8004214:	400a      	ands	r2, r1
 8004216:	4313      	orrs	r3, r2
 8004218:	6b6a      	ldr	r2, [r5, #52]	; 0x34
        while(__HAL_RCC_GET_FLAG(RCC_FLAG_PLLRDY)  == 0U)
 800421a:	04b6      	lsls	r6, r6, #18
        __HAL_RCC_PLL_CONFIG(RCC_OscInitStruct->PLL.PLLSource,
 800421c:	4313      	orrs	r3, r2
 800421e:	60e3      	str	r3, [r4, #12]
        __HAL_RCC_PLL_ENABLE();
 8004220:	2380      	movs	r3, #128	; 0x80
 8004222:	6822      	ldr	r2, [r4, #0]
 8004224:	045b      	lsls	r3, r3, #17
 8004226:	4313      	orrs	r3, r2
 8004228:	6023      	str	r3, [r4, #0]
        tickstart = HAL_GetTick();
 800422a:	f7fe fd09 	bl	8002c40 <HAL_GetTick>
 800422e:	0005      	movs	r5, r0
        while(__HAL_RCC_GET_FLAG(RCC_FLAG_PLLRDY)  == 0U)
 8004230:	6823      	ldr	r3, [r4, #0]
 8004232:	4233      	tst	r3, r6
 8004234:	d000      	beq.n	8004238 <HAL_RCC_OscConfig+0x470>
 8004236:	e619      	b.n	8003e6c <HAL_RCC_OscConfig+0xa4>
          if((HAL_GetTick() - tickstart ) > PLL_TIMEOUT_VALUE)
 8004238:	f7fe fd02 	bl	8002c40 <HAL_GetTick>
 800423c:	1b40      	subs	r0, r0, r5
 800423e:	2802      	cmp	r0, #2
 8004240:	d9f6      	bls.n	8004230 <HAL_RCC_OscConfig+0x468>
 8004242:	e637      	b.n	8003eb4 <HAL_RCC_OscConfig+0xec>
          if((HAL_GetTick() - tickstart ) > PLL_TIMEOUT_VALUE)
 8004244:	f7fe fcfc 	bl	8002c40 <HAL_GetTick>
 8004248:	1b80      	subs	r0, r0, r6
 800424a:	2802      	cmp	r0, #2
 800424c:	d9d9      	bls.n	8004202 <HAL_RCC_OscConfig+0x43a>
 800424e:	e631      	b.n	8003eb4 <HAL_RCC_OscConfig+0xec>
        __HAL_RCC_PLL_DISABLE();
 8004250:	6823      	ldr	r3, [r4, #0]
        while(__HAL_RCC_GET_FLAG(RCC_FLAG_PLLRDY)  != 0U)
 8004252:	2680      	movs	r6, #128	; 0x80
        __HAL_RCC_PLL_DISABLE();
 8004254:	4013      	ands	r3, r2
 8004256:	6023      	str	r3, [r4, #0]
        tickstart = HAL_GetTick();
 8004258:	f7fe fcf2 	bl	8002c40 <HAL_GetTick>
 800425c:	0005      	movs	r5, r0
        while(__HAL_RCC_GET_FLAG(RCC_FLAG_PLLRDY)  != 0U)
 800425e:	04b6      	lsls	r6, r6, #18
 8004260:	6823      	ldr	r3, [r4, #0]
 8004262:	4233      	tst	r3, r6
 8004264:	d100      	bne.n	8004268 <HAL_RCC_OscConfig+0x4a0>
 8004266:	e601      	b.n	8003e6c <HAL_RCC_OscConfig+0xa4>
          if((HAL_GetTick() - tickstart ) > PLL_TIMEOUT_VALUE)
 8004268:	f7fe fcea 	bl	8002c40 <HAL_GetTick>
 800426c:	1b40      	subs	r0, r0, r5
 800426e:	2802      	cmp	r0, #2
 8004270:	d9f6      	bls.n	8004260 <HAL_RCC_OscConfig+0x498>
 8004272:	e61f      	b.n	8003eb4 <HAL_RCC_OscConfig+0xec>
        return HAL_ERROR;
 8004274:	0018      	movs	r0, r3
      if((RCC_OscInitStruct->PLL.PLLState) == RCC_PLL_OFF)
 8004276:	2b01      	cmp	r3, #1
 8004278:	d100      	bne.n	800427c <HAL_RCC_OscConfig+0x4b4>
 800427a:	e61c      	b.n	8003eb6 <HAL_RCC_OscConfig+0xee>
        if((READ_BIT(pll_config, RCC_CFGR_PLLSRC) != RCC_OscInitStruct->PLL.PLLSource) ||
 800427c:	2280      	movs	r2, #128	; 0x80
        pll_config = RCC->CFGR;
 800427e:	68e3      	ldr	r3, [r4, #12]
        if((READ_BIT(pll_config, RCC_CFGR_PLLSRC) != RCC_OscInitStruct->PLL.PLLSource) ||
 8004280:	6ae9      	ldr	r1, [r5, #44]	; 0x2c
 8004282:	0252      	lsls	r2, r2, #9
 8004284:	401a      	ands	r2, r3
 8004286:	428a      	cmp	r2, r1
 8004288:	d000      	beq.n	800428c <HAL_RCC_OscConfig+0x4c4>
 800428a:	e5fd      	b.n	8003e88 <HAL_RCC_OscConfig+0xc0>
           (READ_BIT(pll_config, RCC_CFGR_PLLMUL) != RCC_OscInitStruct->PLL.PLLMUL) ||
 800428c:	22f0      	movs	r2, #240	; 0xf0
        if((READ_BIT(pll_config, RCC_CFGR_PLLSRC) != RCC_OscInitStruct->PLL.PLLSource) ||
 800428e:	6b29      	ldr	r1, [r5, #48]	; 0x30
           (READ_BIT(pll_config, RCC_CFGR_PLLMUL) != RCC_OscInitStruct->PLL.PLLMUL) ||
 8004290:	0392      	lsls	r2, r2, #14
 8004292:	401a      	ands	r2, r3
        if((READ_BIT(pll_config, RCC_CFGR_PLLSRC) != RCC_OscInitStruct->PLL.PLLSource) ||
 8004294:	428a      	cmp	r2, r1
 8004296:	d000      	beq.n	800429a <HAL_RCC_OscConfig+0x4d2>
 8004298:	e5f6      	b.n	8003e88 <HAL_RCC_OscConfig+0xc0>
           (READ_BIT(pll_config, RCC_CFGR_PLLDIV) != RCC_OscInitStruct->PLL.PLLDIV))
 800429a:	22c0      	movs	r2, #192	; 0xc0
 800429c:	0412      	lsls	r2, r2, #16
 800429e:	4013      	ands	r3, r2
           (READ_BIT(pll_config, RCC_CFGR_PLLMUL) != RCC_OscInitStruct->PLL.PLLMUL) ||
 80042a0:	6b6a      	ldr	r2, [r5, #52]	; 0x34
 80042a2:	4293      	cmp	r3, r2
 80042a4:	d100      	bne.n	80042a8 <HAL_RCC_OscConfig+0x4e0>
 80042a6:	e5e1      	b.n	8003e6c <HAL_RCC_OscConfig+0xa4>
 80042a8:	e5ee      	b.n	8003e88 <HAL_RCC_OscConfig+0xc0>
 80042aa:	46c0      	nop			; (mov r8, r8)
 80042ac:	fffffeff 	.word	0xfffffeff
 80042b0:	fffffbff 	.word	0xfffffbff
 80042b4:	00001388 	.word	0x00001388
 80042b8:	efffffff 	.word	0xefffffff
 80042bc:	40010000 	.word	0x40010000
 80042c0:	ffffdfff 	.word	0xffffdfff
 80042c4:	feffffff 	.word	0xfeffffff
 80042c8:	ff02ffff 	.word	0xff02ffff

080042cc <HAL_RCC_ClockConfig>:
{
 80042cc:	b5f7      	push	{r0, r1, r2, r4, r5, r6, r7, lr}
 80042ce:	1e04      	subs	r4, r0, #0
 80042d0:	9101      	str	r1, [sp, #4]
  if(RCC_ClkInitStruct == NULL)
 80042d2:	d101      	bne.n	80042d8 <HAL_RCC_ClockConfig+0xc>
    return HAL_ERROR;
 80042d4:	2001      	movs	r0, #1
}
 80042d6:	bdfe      	pop	{r1, r2, r3, r4, r5, r6, r7, pc}
  if(FLatency > __HAL_FLASH_GET_LATENCY())
 80042d8:	2501      	movs	r5, #1
 80042da:	4e5b      	ldr	r6, [pc, #364]	; (8004448 <HAL_RCC_ClockConfig+0x17c>)
 80042dc:	9a01      	ldr	r2, [sp, #4]
 80042de:	6833      	ldr	r3, [r6, #0]
 80042e0:	402b      	ands	r3, r5
 80042e2:	4293      	cmp	r3, r2
 80042e4:	d331      	bcc.n	800434a <HAL_RCC_ClockConfig+0x7e>
  if(((RCC_ClkInitStruct->ClockType) & RCC_CLOCKTYPE_HCLK) == RCC_CLOCKTYPE_HCLK)
 80042e6:	6822      	ldr	r2, [r4, #0]
 80042e8:	0793      	lsls	r3, r2, #30
 80042ea:	d443      	bmi.n	8004374 <HAL_RCC_ClockConfig+0xa8>
  if(((RCC_ClkInitStruct->ClockType) & RCC_CLOCKTYPE_SYSCLK) == RCC_CLOCKTYPE_SYSCLK)
 80042ec:	07d3      	lsls	r3, r2, #31
 80042ee:	d449      	bmi.n	8004384 <HAL_RCC_ClockConfig+0xb8>
  if(FLatency < __HAL_FLASH_GET_LATENCY())
 80042f0:	2501      	movs	r5, #1
 80042f2:	6833      	ldr	r3, [r6, #0]
 80042f4:	9a01      	ldr	r2, [sp, #4]
 80042f6:	402b      	ands	r3, r5
 80042f8:	4293      	cmp	r3, r2
 80042fa:	d909      	bls.n	8004310 <HAL_RCC_ClockConfig+0x44>
    __HAL_FLASH_SET_LATENCY(FLatency);
 80042fc:	6833      	ldr	r3, [r6, #0]
 80042fe:	43ab      	bics	r3, r5
 8004300:	6033      	str	r3, [r6, #0]
    tickstart = HAL_GetTick();
 8004302:	f7fe fc9d 	bl	8002c40 <HAL_GetTick>
 8004306:	0007      	movs	r7, r0
    while (__HAL_FLASH_GET_LATENCY() != FLatency)
 8004308:	6833      	ldr	r3, [r6, #0]
 800430a:	422b      	tst	r3, r5
 800430c:	d000      	beq.n	8004310 <HAL_RCC_ClockConfig+0x44>
 800430e:	e08c      	b.n	800442a <HAL_RCC_ClockConfig+0x15e>
  if(((RCC_ClkInitStruct->ClockType) & RCC_CLOCKTYPE_PCLK1) == RCC_CLOCKTYPE_PCLK1)
 8004310:	6822      	ldr	r2, [r4, #0]
 8004312:	4d4e      	ldr	r5, [pc, #312]	; (800444c <HAL_RCC_ClockConfig+0x180>)
 8004314:	0753      	lsls	r3, r2, #29
 8004316:	d500      	bpl.n	800431a <HAL_RCC_ClockConfig+0x4e>
 8004318:	e08f      	b.n	800443a <HAL_RCC_ClockConfig+0x16e>
  if(((RCC_ClkInitStruct->ClockType) & RCC_CLOCKTYPE_PCLK2) == RCC_CLOCKTYPE_PCLK2)
 800431a:	0713      	lsls	r3, r2, #28
 800431c:	d506      	bpl.n	800432c <HAL_RCC_ClockConfig+0x60>
    MODIFY_REG(RCC->CFGR, RCC_CFGR_PPRE2, ((RCC_ClkInitStruct->APB2CLKDivider) << 3));
 800431e:	68e9      	ldr	r1, [r5, #12]
 8004320:	6923      	ldr	r3, [r4, #16]
 8004322:	4a4b      	ldr	r2, [pc, #300]	; (8004450 <HAL_RCC_ClockConfig+0x184>)
 8004324:	00db      	lsls	r3, r3, #3
 8004326:	400a      	ands	r2, r1
 8004328:	4313      	orrs	r3, r2
 800432a:	60eb      	str	r3, [r5, #12]
  SystemCoreClock = HAL_RCC_GetSysClockFreq() >> AHBPrescTable[(RCC->CFGR & RCC_CFGR_HPRE)>> RCC_CFGR_HPRE_Pos];
 800432c:	f7ff fd04 	bl	8003d38 <HAL_RCC_GetSysClockFreq>
 8004330:	68eb      	ldr	r3, [r5, #12]
 8004332:	4a48      	ldr	r2, [pc, #288]	; (8004454 <HAL_RCC_ClockConfig+0x188>)
 8004334:	061b      	lsls	r3, r3, #24
 8004336:	0f1b      	lsrs	r3, r3, #28
 8004338:	5cd3      	ldrb	r3, [r2, r3]
 800433a:	40d8      	lsrs	r0, r3
 800433c:	4b46      	ldr	r3, [pc, #280]	; (8004458 <HAL_RCC_ClockConfig+0x18c>)
 800433e:	6018      	str	r0, [r3, #0]
  status = HAL_InitTick(uwTickPrio);
 8004340:	4b46      	ldr	r3, [pc, #280]	; (800445c <HAL_RCC_ClockConfig+0x190>)
 8004342:	6818      	ldr	r0, [r3, #0]
 8004344:	f7fe fc38 	bl	8002bb8 <HAL_InitTick>
  if(status != HAL_OK)
 8004348:	e7c5      	b.n	80042d6 <HAL_RCC_ClockConfig+0xa>
    __HAL_FLASH_SET_LATENCY(FLatency);
 800434a:	6833      	ldr	r3, [r6, #0]
 800434c:	9a01      	ldr	r2, [sp, #4]
 800434e:	43ab      	bics	r3, r5
 8004350:	4313      	orrs	r3, r2
 8004352:	6033      	str	r3, [r6, #0]
    tickstart = HAL_GetTick();
 8004354:	f7fe fc74 	bl	8002c40 <HAL_GetTick>
 8004358:	0007      	movs	r7, r0
    while (__HAL_FLASH_GET_LATENCY() != FLatency)
 800435a:	6833      	ldr	r3, [r6, #0]
 800435c:	9a01      	ldr	r2, [sp, #4]
 800435e:	402b      	ands	r3, r5
 8004360:	4293      	cmp	r3, r2
 8004362:	d0c0      	beq.n	80042e6 <HAL_RCC_ClockConfig+0x1a>
      if ((HAL_GetTick() - tickstart) > CLOCKSWITCH_TIMEOUT_VALUE)
 8004364:	f7fe fc6c 	bl	8002c40 <HAL_GetTick>
 8004368:	4b3d      	ldr	r3, [pc, #244]	; (8004460 <HAL_RCC_ClockConfig+0x194>)
 800436a:	1bc0      	subs	r0, r0, r7
 800436c:	4298      	cmp	r0, r3
 800436e:	d9f4      	bls.n	800435a <HAL_RCC_ClockConfig+0x8e>
        return HAL_TIMEOUT;
 8004370:	2003      	movs	r0, #3
 8004372:	e7b0      	b.n	80042d6 <HAL_RCC_ClockConfig+0xa>
    MODIFY_REG(RCC->CFGR, RCC_CFGR_HPRE, RCC_ClkInitStruct->AHBCLKDivider);
 8004374:	20f0      	movs	r0, #240	; 0xf0
 8004376:	4935      	ldr	r1, [pc, #212]	; (800444c <HAL_RCC_ClockConfig+0x180>)
 8004378:	68cb      	ldr	r3, [r1, #12]
 800437a:	4383      	bics	r3, r0
 800437c:	68a0      	ldr	r0, [r4, #8]
 800437e:	4303      	orrs	r3, r0
 8004380:	60cb      	str	r3, [r1, #12]
 8004382:	e7b3      	b.n	80042ec <HAL_RCC_ClockConfig+0x20>
    if(RCC_ClkInitStruct->SYSCLKSource == RCC_SYSCLKSOURCE_HSE)
 8004384:	4d31      	ldr	r5, [pc, #196]	; (800444c <HAL_RCC_ClockConfig+0x180>)
 8004386:	6862      	ldr	r2, [r4, #4]
      if(__HAL_RCC_GET_FLAG(RCC_FLAG_HSERDY) == 0U)
 8004388:	682b      	ldr	r3, [r5, #0]
    if(RCC_ClkInitStruct->SYSCLKSource == RCC_SYSCLKSOURCE_HSE)
 800438a:	2a02      	cmp	r2, #2
 800438c:	d118      	bne.n	80043c0 <HAL_RCC_ClockConfig+0xf4>
      if(__HAL_RCC_GET_FLAG(RCC_FLAG_HSERDY) == 0U)
 800438e:	039b      	lsls	r3, r3, #14
 8004390:	d5a0      	bpl.n	80042d4 <HAL_RCC_ClockConfig+0x8>
    __HAL_RCC_SYSCLK_CONFIG(RCC_ClkInitStruct->SYSCLKSource);
 8004392:	2103      	movs	r1, #3
 8004394:	68eb      	ldr	r3, [r5, #12]
 8004396:	438b      	bics	r3, r1
 8004398:	4313      	orrs	r3, r2
 800439a:	60eb      	str	r3, [r5, #12]
    tickstart = HAL_GetTick();
 800439c:	f7fe fc50 	bl	8002c40 <HAL_GetTick>
    if(RCC_ClkInitStruct->SYSCLKSource == RCC_SYSCLKSOURCE_HSE)
 80043a0:	6863      	ldr	r3, [r4, #4]
    tickstart = HAL_GetTick();
 80043a2:	0007      	movs	r7, r0
    if(RCC_ClkInitStruct->SYSCLKSource == RCC_SYSCLKSOURCE_HSE)
 80043a4:	2b02      	cmp	r3, #2
 80043a6:	d118      	bne.n	80043da <HAL_RCC_ClockConfig+0x10e>
      while (__HAL_RCC_GET_SYSCLK_SOURCE() != RCC_SYSCLKSOURCE_STATUS_HSE)
 80043a8:	220c      	movs	r2, #12
 80043aa:	68eb      	ldr	r3, [r5, #12]
 80043ac:	4013      	ands	r3, r2
 80043ae:	2b08      	cmp	r3, #8
 80043b0:	d09e      	beq.n	80042f0 <HAL_RCC_ClockConfig+0x24>
        if((HAL_GetTick() - tickstart ) > CLOCKSWITCH_TIMEOUT_VALUE)
 80043b2:	f7fe fc45 	bl	8002c40 <HAL_GetTick>
 80043b6:	4b2a      	ldr	r3, [pc, #168]	; (8004460 <HAL_RCC_ClockConfig+0x194>)
 80043b8:	1bc0      	subs	r0, r0, r7
 80043ba:	4298      	cmp	r0, r3
 80043bc:	d9f4      	bls.n	80043a8 <HAL_RCC_ClockConfig+0xdc>
 80043be:	e7d7      	b.n	8004370 <HAL_RCC_ClockConfig+0xa4>
    else if(RCC_ClkInitStruct->SYSCLKSource == RCC_SYSCLKSOURCE_PLLCLK)
 80043c0:	2a03      	cmp	r2, #3
 80043c2:	d102      	bne.n	80043ca <HAL_RCC_ClockConfig+0xfe>
      if(__HAL_RCC_GET_FLAG(RCC_FLAG_PLLRDY) == 0U)
 80043c4:	019b      	lsls	r3, r3, #6
 80043c6:	d4e4      	bmi.n	8004392 <HAL_RCC_ClockConfig+0xc6>
 80043c8:	e784      	b.n	80042d4 <HAL_RCC_ClockConfig+0x8>
    else if(RCC_ClkInitStruct->SYSCLKSource == RCC_SYSCLKSOURCE_HSI)
 80043ca:	2a01      	cmp	r2, #1
 80043cc:	d102      	bne.n	80043d4 <HAL_RCC_ClockConfig+0x108>
      if(__HAL_RCC_GET_FLAG(RCC_FLAG_HSIRDY) == 0U)
 80043ce:	075b      	lsls	r3, r3, #29
 80043d0:	d4df      	bmi.n	8004392 <HAL_RCC_ClockConfig+0xc6>
 80043d2:	e77f      	b.n	80042d4 <HAL_RCC_ClockConfig+0x8>
      if(__HAL_RCC_GET_FLAG(RCC_FLAG_MSIRDY) == 0U)
 80043d4:	059b      	lsls	r3, r3, #22
 80043d6:	d4dc      	bmi.n	8004392 <HAL_RCC_ClockConfig+0xc6>
 80043d8:	e77c      	b.n	80042d4 <HAL_RCC_ClockConfig+0x8>
    else if(RCC_ClkInitStruct->SYSCLKSource == RCC_SYSCLKSOURCE_PLLCLK)
 80043da:	2b03      	cmp	r3, #3
 80043dc:	d10b      	bne.n	80043f6 <HAL_RCC_ClockConfig+0x12a>
      while (__HAL_RCC_GET_SYSCLK_SOURCE() != RCC_SYSCLKSOURCE_STATUS_PLLCLK)
 80043de:	220c      	movs	r2, #12
 80043e0:	68eb      	ldr	r3, [r5, #12]
 80043e2:	4013      	ands	r3, r2
 80043e4:	4293      	cmp	r3, r2
 80043e6:	d083      	beq.n	80042f0 <HAL_RCC_ClockConfig+0x24>
        if((HAL_GetTick() - tickstart ) > CLOCKSWITCH_TIMEOUT_VALUE)
 80043e8:	f7fe fc2a 	bl	8002c40 <HAL_GetTick>
 80043ec:	4b1c      	ldr	r3, [pc, #112]	; (8004460 <HAL_RCC_ClockConfig+0x194>)
 80043ee:	1bc0      	subs	r0, r0, r7
 80043f0:	4298      	cmp	r0, r3
 80043f2:	d9f4      	bls.n	80043de <HAL_RCC_ClockConfig+0x112>
 80043f4:	e7bc      	b.n	8004370 <HAL_RCC_ClockConfig+0xa4>
    else if(RCC_ClkInitStruct->SYSCLKSource == RCC_SYSCLKSOURCE_HSI)
 80043f6:	2b01      	cmp	r3, #1
 80043f8:	d011      	beq.n	800441e <HAL_RCC_ClockConfig+0x152>
      while(__HAL_RCC_GET_SYSCLK_SOURCE() != RCC_SYSCLKSOURCE_STATUS_MSI)
 80043fa:	220c      	movs	r2, #12
 80043fc:	68eb      	ldr	r3, [r5, #12]
 80043fe:	4213      	tst	r3, r2
 8004400:	d100      	bne.n	8004404 <HAL_RCC_ClockConfig+0x138>
 8004402:	e775      	b.n	80042f0 <HAL_RCC_ClockConfig+0x24>
        if((HAL_GetTick() - tickstart ) > CLOCKSWITCH_TIMEOUT_VALUE)
 8004404:	f7fe fc1c 	bl	8002c40 <HAL_GetTick>
 8004408:	4b15      	ldr	r3, [pc, #84]	; (8004460 <HAL_RCC_ClockConfig+0x194>)
 800440a:	1bc0      	subs	r0, r0, r7
 800440c:	4298      	cmp	r0, r3
 800440e:	d9f4      	bls.n	80043fa <HAL_RCC_ClockConfig+0x12e>
 8004410:	e7ae      	b.n	8004370 <HAL_RCC_ClockConfig+0xa4>
        if((HAL_GetTick() - tickstart ) > CLOCKSWITCH_TIMEOUT_VALUE)
 8004412:	f7fe fc15 	bl	8002c40 <HAL_GetTick>
 8004416:	4b12      	ldr	r3, [pc, #72]	; (8004460 <HAL_RCC_ClockConfig+0x194>)
 8004418:	1bc0      	subs	r0, r0, r7
 800441a:	4298      	cmp	r0, r3
 800441c:	d8a8      	bhi.n	8004370 <HAL_RCC_ClockConfig+0xa4>
      while (__HAL_RCC_GET_SYSCLK_SOURCE() != RCC_SYSCLKSOURCE_STATUS_HSI)
 800441e:	220c      	movs	r2, #12
 8004420:	68eb      	ldr	r3, [r5, #12]
 8004422:	4013      	ands	r3, r2
 8004424:	2b04      	cmp	r3, #4
 8004426:	d1f4      	bne.n	8004412 <HAL_RCC_ClockConfig+0x146>
 8004428:	e762      	b.n	80042f0 <HAL_RCC_ClockConfig+0x24>
      if ((HAL_GetTick() - tickstart) > CLOCKSWITCH_TIMEOUT_VALUE)
 800442a:	f7fe fc09 	bl	8002c40 <HAL_GetTick>
 800442e:	4b0c      	ldr	r3, [pc, #48]	; (8004460 <HAL_RCC_ClockConfig+0x194>)
 8004430:	1bc0      	subs	r0, r0, r7
 8004432:	4298      	cmp	r0, r3
 8004434:	d800      	bhi.n	8004438 <HAL_RCC_ClockConfig+0x16c>
 8004436:	e767      	b.n	8004308 <HAL_RCC_ClockConfig+0x3c>
 8004438:	e79a      	b.n	8004370 <HAL_RCC_ClockConfig+0xa4>
    MODIFY_REG(RCC->CFGR, RCC_CFGR_PPRE1, RCC_ClkInitStruct->APB1CLKDivider);
 800443a:	68eb      	ldr	r3, [r5, #12]
 800443c:	4909      	ldr	r1, [pc, #36]	; (8004464 <HAL_RCC_ClockConfig+0x198>)
 800443e:	400b      	ands	r3, r1
 8004440:	68e1      	ldr	r1, [r4, #12]
 8004442:	430b      	orrs	r3, r1
 8004444:	60eb      	str	r3, [r5, #12]
 8004446:	e768      	b.n	800431a <HAL_RCC_ClockConfig+0x4e>
 8004448:	40022000 	.word	0x40022000
 800444c:	40021000 	.word	0x40021000
 8004450:	ffffc7ff 	.word	0xffffc7ff
 8004454:	0800633f 	.word	0x0800633f
 8004458:	20000040 	.word	0x20000040
 800445c:	20000048 	.word	0x20000048
 8004460:	00001388 	.word	0x00001388
 8004464:	fffff8ff 	.word	0xfffff8ff

08004468 <HAL_RCCEx_PeriphCLKConfig>:

  /* Check the parameters */
  assert_param(IS_RCC_PERIPHCLOCK(PeriphClkInit->PeriphClockSelection));

  /*------------------------------- RTC/LCD Configuration ------------------------*/
  if ((((PeriphClkInit->PeriphClockSelection) & RCC_PERIPHCLK_RTC) == RCC_PERIPHCLK_RTC)
 8004468:	6803      	ldr	r3, [r0, #0]
{
 800446a:	b5f7      	push	{r0, r1, r2, r4, r5, r6, r7, lr}
 800446c:	0005      	movs	r5, r0
  if ((((PeriphClkInit->PeriphClockSelection) & RCC_PERIPHCLK_RTC) == RCC_PERIPHCLK_RTC)
 800446e:	069b      	lsls	r3, r3, #26
 8004470:	d53c      	bpl.n	80044ec <HAL_RCCEx_PeriphCLKConfig+0x84>
#endif /* LCD */

    /* As soon as function is called to change RTC clock source, activation of the
       power domain is done. */
    /* Requires to enable write access to Backup Domain of necessary */
    if(__HAL_RCC_PWR_IS_CLK_DISABLED())
 8004472:	2380      	movs	r3, #128	; 0x80
  FlagStatus       pwrclkchanged = RESET;
 8004474:	2100      	movs	r1, #0
    if(__HAL_RCC_PWR_IS_CLK_DISABLED())
 8004476:	4c5a      	ldr	r4, [pc, #360]	; (80045e0 <HAL_RCCEx_PeriphCLKConfig+0x178>)
 8004478:	055b      	lsls	r3, r3, #21
 800447a:	6ba2      	ldr	r2, [r4, #56]	; 0x38
  FlagStatus       pwrclkchanged = RESET;
 800447c:	9100      	str	r1, [sp, #0]
    if(__HAL_RCC_PWR_IS_CLK_DISABLED())
 800447e:	421a      	tst	r2, r3
 8004480:	d104      	bne.n	800448c <HAL_RCCEx_PeriphCLKConfig+0x24>
    {
      __HAL_RCC_PWR_CLK_ENABLE();
 8004482:	6ba2      	ldr	r2, [r4, #56]	; 0x38
 8004484:	4313      	orrs	r3, r2
 8004486:	63a3      	str	r3, [r4, #56]	; 0x38
      pwrclkchanged = SET;
 8004488:	2301      	movs	r3, #1
 800448a:	9300      	str	r3, [sp, #0]
    }

    if(HAL_IS_BIT_CLR(PWR->CR, PWR_CR_DBP))
 800448c:	2780      	movs	r7, #128	; 0x80
 800448e:	4e55      	ldr	r6, [pc, #340]	; (80045e4 <HAL_RCCEx_PeriphCLKConfig+0x17c>)
 8004490:	007f      	lsls	r7, r7, #1
 8004492:	6833      	ldr	r3, [r6, #0]
 8004494:	423b      	tst	r3, r7
 8004496:	d062      	beq.n	800455e <HAL_RCCEx_PeriphCLKConfig+0xf6>
      }
    }

    /* Check if user wants to change HSE RTC prescaler whereas HSE is enabled */
    temp_reg = (RCC->CR & RCC_CR_RTCPRE);
    if ((temp_reg != (PeriphClkInit->RTCClockSelection & RCC_CR_RTCPRE))
 8004498:	686a      	ldr	r2, [r5, #4]
#if defined (LCD)
     || (temp_reg != (PeriphClkInit->LCDClockSelection & RCC_CR_RTCPRE))
#endif /* LCD */
       )
    { /* Check HSE State */
      if ((PeriphClkInit->RTCClockSelection & RCC_CSR_RTCSEL) == RCC_CSR_RTCSEL_HSE)
 800449a:	23c0      	movs	r3, #192	; 0xc0
    if ((temp_reg != (PeriphClkInit->RTCClockSelection & RCC_CR_RTCPRE))
 800449c:	20c0      	movs	r0, #192	; 0xc0
      if ((PeriphClkInit->RTCClockSelection & RCC_CSR_RTCSEL) == RCC_CSR_RTCSEL_HSE)
 800449e:	0016      	movs	r6, r2
    temp_reg = (RCC->CR & RCC_CR_RTCPRE);
 80044a0:	6821      	ldr	r1, [r4, #0]
    if ((temp_reg != (PeriphClkInit->RTCClockSelection & RCC_CR_RTCPRE))
 80044a2:	0380      	lsls	r0, r0, #14
      if ((PeriphClkInit->RTCClockSelection & RCC_CSR_RTCSEL) == RCC_CSR_RTCSEL_HSE)
 80044a4:	029b      	lsls	r3, r3, #10
 80044a6:	401e      	ands	r6, r3
    if ((temp_reg != (PeriphClkInit->RTCClockSelection & RCC_CR_RTCPRE))
 80044a8:	4002      	ands	r2, r0
    temp_reg = (RCC->CR & RCC_CR_RTCPRE);
 80044aa:	4001      	ands	r1, r0
    if ((temp_reg != (PeriphClkInit->RTCClockSelection & RCC_CR_RTCPRE))
 80044ac:	428a      	cmp	r2, r1
 80044ae:	d167      	bne.n	8004580 <HAL_RCCEx_PeriphCLKConfig+0x118>
        }
      }
    }

    /* Reset the Backup domain only if the RTC Clock source selection is modified from reset value */
    temp_reg = (RCC->CSR & RCC_CSR_RTCSEL);
 80044b0:	6d22      	ldr	r2, [r4, #80]	; 0x50
 80044b2:	0011      	movs	r1, r2
 80044b4:	4019      	ands	r1, r3

    if((temp_reg != 0x00000000U) && (((temp_reg != (PeriphClkInit->RTCClockSelection & RCC_CSR_RTCSEL)) \
 80044b6:	421a      	tst	r2, r3
 80044b8:	d16a      	bne.n	8004590 <HAL_RCCEx_PeriphCLKConfig+0x128>
            return HAL_TIMEOUT;
          }
        }
      }
    }
    __HAL_RCC_RTC_CONFIG(PeriphClkInit->RTCClockSelection);
 80044ba:	6869      	ldr	r1, [r5, #4]
 80044bc:	23c0      	movs	r3, #192	; 0xc0
 80044be:	000a      	movs	r2, r1
 80044c0:	029b      	lsls	r3, r3, #10
 80044c2:	401a      	ands	r2, r3
 80044c4:	429a      	cmp	r2, r3
 80044c6:	d107      	bne.n	80044d8 <HAL_RCCEx_PeriphCLKConfig+0x70>
 80044c8:	6823      	ldr	r3, [r4, #0]
 80044ca:	4847      	ldr	r0, [pc, #284]	; (80045e8 <HAL_RCCEx_PeriphCLKConfig+0x180>)
 80044cc:	4003      	ands	r3, r0
 80044ce:	20c0      	movs	r0, #192	; 0xc0
 80044d0:	0380      	lsls	r0, r0, #14
 80044d2:	4001      	ands	r1, r0
 80044d4:	430b      	orrs	r3, r1
 80044d6:	6023      	str	r3, [r4, #0]
 80044d8:	6d23      	ldr	r3, [r4, #80]	; 0x50
 80044da:	431a      	orrs	r2, r3

    /* Require to disable power clock if necessary */
    if(pwrclkchanged == SET)
 80044dc:	9b00      	ldr	r3, [sp, #0]
    __HAL_RCC_RTC_CONFIG(PeriphClkInit->RTCClockSelection);
 80044de:	6522      	str	r2, [r4, #80]	; 0x50
    if(pwrclkchanged == SET)
 80044e0:	2b01      	cmp	r3, #1
 80044e2:	d103      	bne.n	80044ec <HAL_RCCEx_PeriphCLKConfig+0x84>
    {
      __HAL_RCC_PWR_CLK_DISABLE();
 80044e4:	6ba3      	ldr	r3, [r4, #56]	; 0x38
 80044e6:	4a41      	ldr	r2, [pc, #260]	; (80045ec <HAL_RCCEx_PeriphCLKConfig+0x184>)
 80044e8:	4013      	ands	r3, r2
 80044ea:	63a3      	str	r3, [r4, #56]	; 0x38
    }
  }

#if defined (RCC_CCIPR_USART1SEL)
  /*------------------------------- USART1 Configuration ------------------------*/
  if(((PeriphClkInit->PeriphClockSelection) & RCC_PERIPHCLK_USART1) == RCC_PERIPHCLK_USART1)
 80044ec:	682b      	ldr	r3, [r5, #0]
 80044ee:	07da      	lsls	r2, r3, #31
 80044f0:	d506      	bpl.n	8004500 <HAL_RCCEx_PeriphCLKConfig+0x98>
  {
    /* Check the parameters */
    assert_param(IS_RCC_USART1CLKSOURCE(PeriphClkInit->Usart1ClockSelection));

    /* Configure the USART1 clock source */
    __HAL_RCC_USART1_CONFIG(PeriphClkInit->Usart1ClockSelection);
 80044f2:	2003      	movs	r0, #3
 80044f4:	493a      	ldr	r1, [pc, #232]	; (80045e0 <HAL_RCCEx_PeriphCLKConfig+0x178>)
 80044f6:	6cca      	ldr	r2, [r1, #76]	; 0x4c
 80044f8:	4382      	bics	r2, r0
 80044fa:	68a8      	ldr	r0, [r5, #8]
 80044fc:	4302      	orrs	r2, r0
 80044fe:	64ca      	str	r2, [r1, #76]	; 0x4c
  }
#endif /* RCC_CCIPR_USART1SEL */

  /*----------------------------- USART2 Configuration --------------------------*/
  if(((PeriphClkInit->PeriphClockSelection) & RCC_PERIPHCLK_USART2) == RCC_PERIPHCLK_USART2)
 8004500:	079a      	lsls	r2, r3, #30
 8004502:	d506      	bpl.n	8004512 <HAL_RCCEx_PeriphCLKConfig+0xaa>
  {
    /* Check the parameters */
    assert_param(IS_RCC_USART2CLKSOURCE(PeriphClkInit->Usart2ClockSelection));

    /* Configure the USART2 clock source */
    __HAL_RCC_USART2_CONFIG(PeriphClkInit->Usart2ClockSelection);
 8004504:	200c      	movs	r0, #12
 8004506:	4936      	ldr	r1, [pc, #216]	; (80045e0 <HAL_RCCEx_PeriphCLKConfig+0x178>)
 8004508:	6cca      	ldr	r2, [r1, #76]	; 0x4c
 800450a:	4382      	bics	r2, r0
 800450c:	68e8      	ldr	r0, [r5, #12]
 800450e:	4302      	orrs	r2, r0
 8004510:	64ca      	str	r2, [r1, #76]	; 0x4c
  }

  /*------------------------------ LPUART1 Configuration ------------------------*/
  if(((PeriphClkInit->PeriphClockSelection) & RCC_PERIPHCLK_LPUART1) == RCC_PERIPHCLK_LPUART1)
 8004512:	075a      	lsls	r2, r3, #29
 8004514:	d506      	bpl.n	8004524 <HAL_RCCEx_PeriphCLKConfig+0xbc>
  {
    /* Check the parameters */
    assert_param(IS_RCC_LPUART1CLKSOURCE(PeriphClkInit->Lpuart1ClockSelection));

    /* Configure the LPUAR1 clock source */
    __HAL_RCC_LPUART1_CONFIG(PeriphClkInit->Lpuart1ClockSelection);
 8004516:	4932      	ldr	r1, [pc, #200]	; (80045e0 <HAL_RCCEx_PeriphCLKConfig+0x178>)
 8004518:	4835      	ldr	r0, [pc, #212]	; (80045f0 <HAL_RCCEx_PeriphCLKConfig+0x188>)
 800451a:	6cca      	ldr	r2, [r1, #76]	; 0x4c
 800451c:	4002      	ands	r2, r0
 800451e:	6928      	ldr	r0, [r5, #16]
 8004520:	4302      	orrs	r2, r0
 8004522:	64ca      	str	r2, [r1, #76]	; 0x4c
  }

  /*------------------------------ I2C1 Configuration ------------------------*/
  if(((PeriphClkInit->PeriphClockSelection) & RCC_PERIPHCLK_I2C1) == RCC_PERIPHCLK_I2C1)
 8004524:	071a      	lsls	r2, r3, #28
 8004526:	d506      	bpl.n	8004536 <HAL_RCCEx_PeriphCLKConfig+0xce>
  {
    /* Check the parameters */
    assert_param(IS_RCC_I2C1CLKSOURCE(PeriphClkInit->I2c1ClockSelection));

    /* Configure the I2C1 clock source */
    __HAL_RCC_I2C1_CONFIG(PeriphClkInit->I2c1ClockSelection);
 8004528:	492d      	ldr	r1, [pc, #180]	; (80045e0 <HAL_RCCEx_PeriphCLKConfig+0x178>)
 800452a:	4832      	ldr	r0, [pc, #200]	; (80045f4 <HAL_RCCEx_PeriphCLKConfig+0x18c>)
 800452c:	6cca      	ldr	r2, [r1, #76]	; 0x4c
 800452e:	4002      	ands	r2, r0
 8004530:	6968      	ldr	r0, [r5, #20]
 8004532:	4302      	orrs	r2, r0
 8004534:	64ca      	str	r2, [r1, #76]	; 0x4c
  }
#endif /* RCC_CCIPR_I2C3SEL */

#if defined(USB)
 /*---------------------------- USB and RNG configuration --------------------*/
  if(((PeriphClkInit->PeriphClockSelection) & RCC_PERIPHCLK_USB) == (RCC_PERIPHCLK_USB))
 8004536:	065a      	lsls	r2, r3, #25
 8004538:	d506      	bpl.n	8004548 <HAL_RCCEx_PeriphCLKConfig+0xe0>
  {
    assert_param(IS_RCC_USBCLKSOURCE(PeriphClkInit->UsbClockSelection));
    __HAL_RCC_USB_CONFIG(PeriphClkInit->UsbClockSelection);
 800453a:	4929      	ldr	r1, [pc, #164]	; (80045e0 <HAL_RCCEx_PeriphCLKConfig+0x178>)
 800453c:	482e      	ldr	r0, [pc, #184]	; (80045f8 <HAL_RCCEx_PeriphCLKConfig+0x190>)
 800453e:	6cca      	ldr	r2, [r1, #76]	; 0x4c
 8004540:	4002      	ands	r2, r0
 8004542:	69e8      	ldr	r0, [r5, #28]
 8004544:	4302      	orrs	r2, r0
 8004546:	64ca      	str	r2, [r1, #76]	; 0x4c
  {
    assert_param(IS_RCC_LPTIMCLK(PeriphClkInit->LptimClockSelection));
    __HAL_RCC_LPTIM1_CONFIG(PeriphClkInit->LptimClockSelection);
  }

  return HAL_OK;
 8004548:	2000      	movs	r0, #0
  if(((PeriphClkInit->PeriphClockSelection) & RCC_PERIPHCLK_LPTIM1) == (RCC_PERIPHCLK_LPTIM1))
 800454a:	061b      	lsls	r3, r3, #24
 800454c:	d517      	bpl.n	800457e <HAL_RCCEx_PeriphCLKConfig+0x116>
    __HAL_RCC_LPTIM1_CONFIG(PeriphClkInit->LptimClockSelection);
 800454e:	4a24      	ldr	r2, [pc, #144]	; (80045e0 <HAL_RCCEx_PeriphCLKConfig+0x178>)
 8004550:	492a      	ldr	r1, [pc, #168]	; (80045fc <HAL_RCCEx_PeriphCLKConfig+0x194>)
 8004552:	6cd3      	ldr	r3, [r2, #76]	; 0x4c
 8004554:	400b      	ands	r3, r1
 8004556:	69a9      	ldr	r1, [r5, #24]
 8004558:	430b      	orrs	r3, r1
 800455a:	64d3      	str	r3, [r2, #76]	; 0x4c
 800455c:	e00f      	b.n	800457e <HAL_RCCEx_PeriphCLKConfig+0x116>
      SET_BIT(PWR->CR, PWR_CR_DBP);
 800455e:	6833      	ldr	r3, [r6, #0]
 8004560:	433b      	orrs	r3, r7
 8004562:	6033      	str	r3, [r6, #0]
      tickstart = HAL_GetTick();
 8004564:	f7fe fb6c 	bl	8002c40 <HAL_GetTick>
 8004568:	9001      	str	r0, [sp, #4]
      while(HAL_IS_BIT_CLR(PWR->CR, PWR_CR_DBP))
 800456a:	6833      	ldr	r3, [r6, #0]
 800456c:	423b      	tst	r3, r7
 800456e:	d193      	bne.n	8004498 <HAL_RCCEx_PeriphCLKConfig+0x30>
        if((HAL_GetTick() - tickstart) > RCC_DBP_TIMEOUT_VALUE)
 8004570:	f7fe fb66 	bl	8002c40 <HAL_GetTick>
 8004574:	9b01      	ldr	r3, [sp, #4]
 8004576:	1ac0      	subs	r0, r0, r3
 8004578:	2864      	cmp	r0, #100	; 0x64
 800457a:	d9f6      	bls.n	800456a <HAL_RCCEx_PeriphCLKConfig+0x102>
          return HAL_TIMEOUT;
 800457c:	2003      	movs	r0, #3
}
 800457e:	bdfe      	pop	{r1, r2, r3, r4, r5, r6, r7, pc}
      if ((PeriphClkInit->RTCClockSelection & RCC_CSR_RTCSEL) == RCC_CSR_RTCSEL_HSE)
 8004580:	429e      	cmp	r6, r3
 8004582:	d195      	bne.n	80044b0 <HAL_RCCEx_PeriphCLKConfig+0x48>
        if (HAL_IS_BIT_SET(RCC->CR, RCC_CR_HSERDY))
 8004584:	6822      	ldr	r2, [r4, #0]
          return HAL_ERROR;
 8004586:	2001      	movs	r0, #1
        if (HAL_IS_BIT_SET(RCC->CR, RCC_CR_HSERDY))
 8004588:	0392      	lsls	r2, r2, #14
 800458a:	d400      	bmi.n	800458e <HAL_RCCEx_PeriphCLKConfig+0x126>
 800458c:	e790      	b.n	80044b0 <HAL_RCCEx_PeriphCLKConfig+0x48>
 800458e:	e7f6      	b.n	800457e <HAL_RCCEx_PeriphCLKConfig+0x116>
    if((temp_reg != 0x00000000U) && (((temp_reg != (PeriphClkInit->RTCClockSelection & RCC_CSR_RTCSEL)) \
 8004590:	42b1      	cmp	r1, r6
 8004592:	d100      	bne.n	8004596 <HAL_RCCEx_PeriphCLKConfig+0x12e>
 8004594:	e791      	b.n	80044ba <HAL_RCCEx_PeriphCLKConfig+0x52>
      && (((PeriphClkInit->PeriphClockSelection) & RCC_PERIPHCLK_RTC) == RCC_PERIPHCLK_RTC))
 8004596:	682b      	ldr	r3, [r5, #0]
 8004598:	069b      	lsls	r3, r3, #26
 800459a:	d400      	bmi.n	800459e <HAL_RCCEx_PeriphCLKConfig+0x136>
 800459c:	e78d      	b.n	80044ba <HAL_RCCEx_PeriphCLKConfig+0x52>
      __HAL_RCC_BACKUPRESET_FORCE();
 800459e:	2280      	movs	r2, #128	; 0x80
      temp_reg = (RCC->CSR & ~(RCC_CSR_RTCSEL));
 80045a0:	6d21      	ldr	r1, [r4, #80]	; 0x50
      __HAL_RCC_BACKUPRESET_FORCE();
 80045a2:	6d20      	ldr	r0, [r4, #80]	; 0x50
 80045a4:	0312      	lsls	r2, r2, #12
 80045a6:	4302      	orrs	r2, r0
 80045a8:	6522      	str	r2, [r4, #80]	; 0x50
      __HAL_RCC_BACKUPRESET_RELEASE();
 80045aa:	6d22      	ldr	r2, [r4, #80]	; 0x50
      temp_reg = (RCC->CSR & ~(RCC_CSR_RTCSEL));
 80045ac:	4b14      	ldr	r3, [pc, #80]	; (8004600 <HAL_RCCEx_PeriphCLKConfig+0x198>)
      __HAL_RCC_BACKUPRESET_RELEASE();
 80045ae:	4815      	ldr	r0, [pc, #84]	; (8004604 <HAL_RCCEx_PeriphCLKConfig+0x19c>)
      temp_reg = (RCC->CSR & ~(RCC_CSR_RTCSEL));
 80045b0:	400b      	ands	r3, r1
      __HAL_RCC_BACKUPRESET_RELEASE();
 80045b2:	4002      	ands	r2, r0
 80045b4:	6522      	str	r2, [r4, #80]	; 0x50
      RCC->CSR = temp_reg;
 80045b6:	6523      	str	r3, [r4, #80]	; 0x50
      if (HAL_IS_BIT_SET(temp_reg, RCC_CSR_LSEON))
 80045b8:	05cb      	lsls	r3, r1, #23
 80045ba:	d400      	bmi.n	80045be <HAL_RCCEx_PeriphCLKConfig+0x156>
 80045bc:	e77d      	b.n	80044ba <HAL_RCCEx_PeriphCLKConfig+0x52>
        tickstart = HAL_GetTick();
 80045be:	f7fe fb3f 	bl	8002c40 <HAL_GetTick>
        while(__HAL_RCC_GET_FLAG(RCC_FLAG_LSERDY) == 0U)
 80045c2:	2780      	movs	r7, #128	; 0x80
        tickstart = HAL_GetTick();
 80045c4:	0006      	movs	r6, r0
        while(__HAL_RCC_GET_FLAG(RCC_FLAG_LSERDY) == 0U)
 80045c6:	00bf      	lsls	r7, r7, #2
 80045c8:	6d23      	ldr	r3, [r4, #80]	; 0x50
 80045ca:	423b      	tst	r3, r7
 80045cc:	d000      	beq.n	80045d0 <HAL_RCCEx_PeriphCLKConfig+0x168>
 80045ce:	e774      	b.n	80044ba <HAL_RCCEx_PeriphCLKConfig+0x52>
          if((HAL_GetTick() - tickstart ) > RCC_LSE_TIMEOUT_VALUE)
 80045d0:	f7fe fb36 	bl	8002c40 <HAL_GetTick>
 80045d4:	4b0c      	ldr	r3, [pc, #48]	; (8004608 <HAL_RCCEx_PeriphCLKConfig+0x1a0>)
 80045d6:	1b80      	subs	r0, r0, r6
 80045d8:	4298      	cmp	r0, r3
 80045da:	d9f5      	bls.n	80045c8 <HAL_RCCEx_PeriphCLKConfig+0x160>
 80045dc:	e7ce      	b.n	800457c <HAL_RCCEx_PeriphCLKConfig+0x114>
 80045de:	46c0      	nop			; (mov r8, r8)
 80045e0:	40021000 	.word	0x40021000
 80045e4:	40007000 	.word	0x40007000
 80045e8:	ffcfffff 	.word	0xffcfffff
 80045ec:	efffffff 	.word	0xefffffff
 80045f0:	fffff3ff 	.word	0xfffff3ff
 80045f4:	ffffcfff 	.word	0xffffcfff
 80045f8:	fbffffff 	.word	0xfbffffff
 80045fc:	fff3ffff 	.word	0xfff3ffff
 8004600:	fffcffff 	.word	0xfffcffff
 8004604:	fff7ffff 	.word	0xfff7ffff
 8004608:	00001388 	.word	0x00001388

0800460c <SPI_WaitFlagStateUntilTimeout.constprop.0>:
  * @param  State flag state to check
  * @param  Timeout Timeout duration
  * @param  Tickstart tick start value
  * @retval HAL status
  */
static HAL_StatusTypeDef SPI_WaitFlagStateUntilTimeout(SPI_HandleTypeDef *hspi, uint32_t Flag, FlagStatus State,
 800460c:	b5f0      	push	{r4, r5, r6, r7, lr}
 800460e:	001d      	movs	r5, r3
 8004610:	0017      	movs	r7, r2
 8004612:	b085      	sub	sp, #20
 8004614:	000e      	movs	r6, r1
 8004616:	0004      	movs	r4, r0
  __IO uint32_t count;
  uint32_t tmp_timeout;
  uint32_t tmp_tickstart;

  /* Adjust Timeout value  in case of end of transfer */
  tmp_timeout   = Timeout - (HAL_GetTick() - Tickstart);
 8004618:	f7fe fb12 	bl	8002c40 <HAL_GetTick>
 800461c:	19ed      	adds	r5, r5, r7
 800461e:	1a2d      	subs	r5, r5, r0
  tmp_tickstart = HAL_GetTick();
 8004620:	f7fe fb0e 	bl	8002c40 <HAL_GetTick>

  /* Calculate Timeout based on a software loop to avoid blocking issue if Systick is disabled */
  count = tmp_timeout * ((SystemCoreClock * 32U) >> 20U);
 8004624:	4b25      	ldr	r3, [pc, #148]	; (80046bc <SPI_WaitFlagStateUntilTimeout.constprop.0+0xb0>)
  tmp_tickstart = HAL_GetTick();
 8004626:	9001      	str	r0, [sp, #4]
  count = tmp_timeout * ((SystemCoreClock * 32U) >> 20U);
 8004628:	681b      	ldr	r3, [r3, #0]
 800462a:	015b      	lsls	r3, r3, #5
 800462c:	0d1b      	lsrs	r3, r3, #20
 800462e:	436b      	muls	r3, r5

  while ((__HAL_SPI_GET_FLAG(hspi, Flag) ? SET : RESET) != State)
 8004630:	6822      	ldr	r2, [r4, #0]
      /* If Systick is disabled or not incremented, deactivate timeout to go in disable loop procedure */
      if(count == 0U)
      {
        tmp_timeout = 0U;
      }
      count--;
 8004632:	9303      	str	r3, [sp, #12]
  while ((__HAL_SPI_GET_FLAG(hspi, Flag) ? SET : RESET) != State)
 8004634:	6893      	ldr	r3, [r2, #8]
 8004636:	4033      	ands	r3, r6
 8004638:	429e      	cmp	r6, r3
 800463a:	d001      	beq.n	8004640 <SPI_WaitFlagStateUntilTimeout.constprop.0+0x34>
    }
  }

  return HAL_OK;
 800463c:	2000      	movs	r0, #0
 800463e:	e032      	b.n	80046a6 <SPI_WaitFlagStateUntilTimeout.constprop.0+0x9a>
    if (Timeout != HAL_MAX_DELAY)
 8004640:	1c7b      	adds	r3, r7, #1
 8004642:	d0f7      	beq.n	8004634 <SPI_WaitFlagStateUntilTimeout.constprop.0+0x28>
      if (((HAL_GetTick() - tmp_tickstart) >= tmp_timeout) || (tmp_timeout == 0U))
 8004644:	f7fe fafc 	bl	8002c40 <HAL_GetTick>
 8004648:	9b01      	ldr	r3, [sp, #4]
 800464a:	1ac0      	subs	r0, r0, r3
 800464c:	42a8      	cmp	r0, r5
 800464e:	d32c      	bcc.n	80046aa <SPI_WaitFlagStateUntilTimeout.constprop.0+0x9e>
        __HAL_SPI_DISABLE_IT(hspi, (SPI_IT_TXE | SPI_IT_RXNE | SPI_IT_ERR));
 8004650:	21e0      	movs	r1, #224	; 0xe0
 8004652:	6823      	ldr	r3, [r4, #0]
 8004654:	685a      	ldr	r2, [r3, #4]
 8004656:	438a      	bics	r2, r1
 8004658:	605a      	str	r2, [r3, #4]
        if ((hspi->Init.Mode == SPI_MODE_MASTER) && ((hspi->Init.Direction == SPI_DIRECTION_1LINE)
 800465a:	2282      	movs	r2, #130	; 0x82
 800465c:	6861      	ldr	r1, [r4, #4]
 800465e:	0052      	lsls	r2, r2, #1
 8004660:	4291      	cmp	r1, r2
 8004662:	d10c      	bne.n	800467e <SPI_WaitFlagStateUntilTimeout.constprop.0+0x72>
 8004664:	2180      	movs	r1, #128	; 0x80
 8004666:	68a2      	ldr	r2, [r4, #8]
 8004668:	0209      	lsls	r1, r1, #8
 800466a:	428a      	cmp	r2, r1
 800466c:	d003      	beq.n	8004676 <SPI_WaitFlagStateUntilTimeout.constprop.0+0x6a>
                                                     || (hspi->Init.Direction == SPI_DIRECTION_2LINES_RXONLY)))
 800466e:	2180      	movs	r1, #128	; 0x80
 8004670:	00c9      	lsls	r1, r1, #3
 8004672:	428a      	cmp	r2, r1
 8004674:	d103      	bne.n	800467e <SPI_WaitFlagStateUntilTimeout.constprop.0+0x72>
          __HAL_SPI_DISABLE(hspi);
 8004676:	2140      	movs	r1, #64	; 0x40
 8004678:	681a      	ldr	r2, [r3, #0]
 800467a:	438a      	bics	r2, r1
 800467c:	601a      	str	r2, [r3, #0]
        if (hspi->Init.CRCCalculation == SPI_CRCCALCULATION_ENABLE)
 800467e:	2180      	movs	r1, #128	; 0x80
 8004680:	6aa2      	ldr	r2, [r4, #40]	; 0x28
 8004682:	0189      	lsls	r1, r1, #6
 8004684:	428a      	cmp	r2, r1
 8004686:	d106      	bne.n	8004696 <SPI_WaitFlagStateUntilTimeout.constprop.0+0x8a>
          SPI_RESET_CRC(hspi);
 8004688:	6819      	ldr	r1, [r3, #0]
 800468a:	480d      	ldr	r0, [pc, #52]	; (80046c0 <SPI_WaitFlagStateUntilTimeout.constprop.0+0xb4>)
 800468c:	4001      	ands	r1, r0
 800468e:	6019      	str	r1, [r3, #0]
 8004690:	6819      	ldr	r1, [r3, #0]
 8004692:	430a      	orrs	r2, r1
 8004694:	601a      	str	r2, [r3, #0]
        hspi->State = HAL_SPI_STATE_READY;
 8004696:	0023      	movs	r3, r4
 8004698:	2201      	movs	r2, #1
 800469a:	3351      	adds	r3, #81	; 0x51
 800469c:	701a      	strb	r2, [r3, #0]
        __HAL_UNLOCK(hspi);
 800469e:	2300      	movs	r3, #0
        return HAL_TIMEOUT;
 80046a0:	2003      	movs	r0, #3
        __HAL_UNLOCK(hspi);
 80046a2:	3450      	adds	r4, #80	; 0x50
 80046a4:	7023      	strb	r3, [r4, #0]
}
 80046a6:	b005      	add	sp, #20
 80046a8:	bdf0      	pop	{r4, r5, r6, r7, pc}
      if(count == 0U)
 80046aa:	9b03      	ldr	r3, [sp, #12]
        tmp_timeout = 0U;
 80046ac:	1e5a      	subs	r2, r3, #1
 80046ae:	4193      	sbcs	r3, r2
 80046b0:	425b      	negs	r3, r3
 80046b2:	401d      	ands	r5, r3
      count--;
 80046b4:	9b03      	ldr	r3, [sp, #12]
 80046b6:	3b01      	subs	r3, #1
 80046b8:	e7ba      	b.n	8004630 <SPI_WaitFlagStateUntilTimeout.constprop.0+0x24>
 80046ba:	46c0      	nop			; (mov r8, r8)
 80046bc:	20000040 	.word	0x20000040
 80046c0:	ffffdfff 	.word	0xffffdfff

080046c4 <SPI_EndRxTxTransaction>:
  * @retval HAL status
  */
static HAL_StatusTypeDef SPI_EndRxTxTransaction(SPI_HandleTypeDef *hspi, uint32_t Timeout, uint32_t Tickstart)
{
  /* Timeout in s */
  __IO uint32_t count = SPI_BSY_FLAG_WORKAROUND_TIMEOUT * (SystemCoreClock / 24U / 1000000U);
 80046c4:	4b16      	ldr	r3, [pc, #88]	; (8004720 <SPI_EndRxTxTransaction+0x5c>)
{
 80046c6:	b573      	push	{r0, r1, r4, r5, r6, lr}
 80046c8:	0004      	movs	r4, r0
 80046ca:	000d      	movs	r5, r1
  __IO uint32_t count = SPI_BSY_FLAG_WORKAROUND_TIMEOUT * (SystemCoreClock / 24U / 1000000U);
 80046cc:	6818      	ldr	r0, [r3, #0]
 80046ce:	4915      	ldr	r1, [pc, #84]	; (8004724 <SPI_EndRxTxTransaction+0x60>)
{
 80046d0:	0016      	movs	r6, r2
  __IO uint32_t count = SPI_BSY_FLAG_WORKAROUND_TIMEOUT * (SystemCoreClock / 24U / 1000000U);
 80046d2:	f7fb fd37 	bl	8000144 <__udivsi3>
 80046d6:	23fa      	movs	r3, #250	; 0xfa
 80046d8:	009b      	lsls	r3, r3, #2
 80046da:	4343      	muls	r3, r0
 80046dc:	9301      	str	r3, [sp, #4]
  /* Erratasheet: BSY bit may stay high at the end of a data transfer in Slave mode */
  if (hspi->Init.Mode == SPI_MODE_MASTER)
 80046de:	2382      	movs	r3, #130	; 0x82
 80046e0:	6861      	ldr	r1, [r4, #4]
      if (count == 0U)
      {
        break;
      }
      count--;
    } while (__HAL_SPI_GET_FLAG(hspi, SPI_FLAG_BSY) != RESET);
 80046e2:	2280      	movs	r2, #128	; 0x80
  if (hspi->Init.Mode == SPI_MODE_MASTER)
 80046e4:	005b      	lsls	r3, r3, #1
 80046e6:	4299      	cmp	r1, r3
 80046e8:	d10d      	bne.n	8004706 <SPI_EndRxTxTransaction+0x42>
    if (SPI_WaitFlagStateUntilTimeout(hspi, SPI_FLAG_BSY, RESET, Timeout, Tickstart) != HAL_OK)
 80046ea:	0033      	movs	r3, r6
 80046ec:	002a      	movs	r2, r5
 80046ee:	2180      	movs	r1, #128	; 0x80
 80046f0:	0020      	movs	r0, r4
 80046f2:	f7ff ff8b 	bl	800460c <SPI_WaitFlagStateUntilTimeout.constprop.0>
 80046f6:	2800      	cmp	r0, #0
 80046f8:	d00f      	beq.n	800471a <SPI_EndRxTxTransaction+0x56>
      SET_BIT(hspi->ErrorCode, HAL_SPI_ERROR_FLAG);
 80046fa:	2320      	movs	r3, #32
      return HAL_TIMEOUT;
 80046fc:	2003      	movs	r0, #3
      SET_BIT(hspi->ErrorCode, HAL_SPI_ERROR_FLAG);
 80046fe:	6d62      	ldr	r2, [r4, #84]	; 0x54
 8004700:	4313      	orrs	r3, r2
 8004702:	6563      	str	r3, [r4, #84]	; 0x54
  }

  return HAL_OK;
}
 8004704:	bd76      	pop	{r1, r2, r4, r5, r6, pc}
      if (count == 0U)
 8004706:	9b01      	ldr	r3, [sp, #4]
 8004708:	2b00      	cmp	r3, #0
 800470a:	d006      	beq.n	800471a <SPI_EndRxTxTransaction+0x56>
      count--;
 800470c:	9b01      	ldr	r3, [sp, #4]
 800470e:	3b01      	subs	r3, #1
 8004710:	9301      	str	r3, [sp, #4]
    } while (__HAL_SPI_GET_FLAG(hspi, SPI_FLAG_BSY) != RESET);
 8004712:	6823      	ldr	r3, [r4, #0]
 8004714:	689b      	ldr	r3, [r3, #8]
 8004716:	4213      	tst	r3, r2
 8004718:	d1f5      	bne.n	8004706 <SPI_EndRxTxTransaction+0x42>
  return HAL_OK;
 800471a:	2000      	movs	r0, #0
 800471c:	e7f2      	b.n	8004704 <SPI_EndRxTxTransaction+0x40>
 800471e:	46c0      	nop			; (mov r8, r8)
 8004720:	20000040 	.word	0x20000040
 8004724:	016e3600 	.word	0x016e3600

08004728 <HAL_SPI_Init>:
{
 8004728:	b5f8      	push	{r3, r4, r5, r6, r7, lr}
 800472a:	0004      	movs	r4, r0
    return HAL_ERROR;
 800472c:	2001      	movs	r0, #1
  if (hspi == NULL)
 800472e:	2c00      	cmp	r4, #0
 8004730:	d054      	beq.n	80047dc <HAL_SPI_Init+0xb4>
  if (hspi->Init.TIMode == SPI_TIMODE_DISABLE)
 8004732:	6a63      	ldr	r3, [r4, #36]	; 0x24
 8004734:	2b00      	cmp	r3, #0
 8004736:	d152      	bne.n	80047de <HAL_SPI_Init+0xb6>
    if (hspi->Init.Mode == SPI_MODE_MASTER)
 8004738:	2282      	movs	r2, #130	; 0x82
 800473a:	6861      	ldr	r1, [r4, #4]
 800473c:	0052      	lsls	r2, r2, #1
 800473e:	4291      	cmp	r1, r2
 8004740:	d000      	beq.n	8004744 <HAL_SPI_Init+0x1c>
      hspi->Init.BaudRatePrescaler = SPI_BAUDRATEPRESCALER_2;
 8004742:	61e3      	str	r3, [r4, #28]
  hspi->Init.CRCCalculation = SPI_CRCCALCULATION_DISABLE;
 8004744:	2300      	movs	r3, #0
  if (hspi->State == HAL_SPI_STATE_RESET)
 8004746:	0025      	movs	r5, r4
  hspi->Init.CRCCalculation = SPI_CRCCALCULATION_DISABLE;
 8004748:	62a3      	str	r3, [r4, #40]	; 0x28
  if (hspi->State == HAL_SPI_STATE_RESET)
 800474a:	3551      	adds	r5, #81	; 0x51
 800474c:	782b      	ldrb	r3, [r5, #0]
 800474e:	b2da      	uxtb	r2, r3
 8004750:	2b00      	cmp	r3, #0
 8004752:	d105      	bne.n	8004760 <HAL_SPI_Init+0x38>
    hspi->Lock = HAL_UNLOCKED;
 8004754:	0023      	movs	r3, r4
 8004756:	3350      	adds	r3, #80	; 0x50
    HAL_SPI_MspInit(hspi);
 8004758:	0020      	movs	r0, r4
    hspi->Lock = HAL_UNLOCKED;
 800475a:	701a      	strb	r2, [r3, #0]
    HAL_SPI_MspInit(hspi);
 800475c:	f7fe f974 	bl	8002a48 <HAL_SPI_MspInit>
  hspi->State = HAL_SPI_STATE_BUSY;
 8004760:	2002      	movs	r0, #2
  __HAL_SPI_DISABLE(hspi);
 8004762:	2240      	movs	r2, #64	; 0x40
  hspi->State = HAL_SPI_STATE_BUSY;
 8004764:	7028      	strb	r0, [r5, #0]
  __HAL_SPI_DISABLE(hspi);
 8004766:	6821      	ldr	r1, [r4, #0]
  WRITE_REG(hspi->Instance->CR1, ((hspi->Init.Mode & (SPI_CR1_MSTR | SPI_CR1_SSI)) |
 8004768:	6866      	ldr	r6, [r4, #4]
  __HAL_SPI_DISABLE(hspi);
 800476a:	680b      	ldr	r3, [r1, #0]
  WRITE_REG(hspi->Instance->CR1, ((hspi->Init.Mode & (SPI_CR1_MSTR | SPI_CR1_SSI)) |
 800476c:	68a7      	ldr	r7, [r4, #8]
  __HAL_SPI_DISABLE(hspi);
 800476e:	4393      	bics	r3, r2
 8004770:	600b      	str	r3, [r1, #0]
  WRITE_REG(hspi->Instance->CR1, ((hspi->Init.Mode & (SPI_CR1_MSTR | SPI_CR1_SSI)) |
 8004772:	2382      	movs	r3, #130	; 0x82
 8004774:	005b      	lsls	r3, r3, #1
 8004776:	4033      	ands	r3, r6
 8004778:	2684      	movs	r6, #132	; 0x84
 800477a:	0236      	lsls	r6, r6, #8
 800477c:	403e      	ands	r6, r7
 800477e:	4333      	orrs	r3, r6
 8004780:	2680      	movs	r6, #128	; 0x80
 8004782:	68e7      	ldr	r7, [r4, #12]
 8004784:	0136      	lsls	r6, r6, #4
 8004786:	403e      	ands	r6, r7
 8004788:	4333      	orrs	r3, r6
 800478a:	6926      	ldr	r6, [r4, #16]
 800478c:	69a2      	ldr	r2, [r4, #24]
 800478e:	4030      	ands	r0, r6
 8004790:	2601      	movs	r6, #1
 8004792:	4303      	orrs	r3, r0
 8004794:	6960      	ldr	r0, [r4, #20]
 8004796:	69e7      	ldr	r7, [r4, #28]
 8004798:	4030      	ands	r0, r6
 800479a:	4303      	orrs	r3, r0
 800479c:	2080      	movs	r0, #128	; 0x80
 800479e:	0080      	lsls	r0, r0, #2
 80047a0:	4010      	ands	r0, r2
 80047a2:	4303      	orrs	r3, r0
 80047a4:	2038      	movs	r0, #56	; 0x38
 80047a6:	4038      	ands	r0, r7
 80047a8:	4303      	orrs	r3, r0
 80047aa:	2080      	movs	r0, #128	; 0x80
 80047ac:	6a27      	ldr	r7, [r4, #32]
  WRITE_REG(hspi->Instance->CR2, (((hspi->Init.NSS >> 16U) & SPI_CR2_SSOE) | (hspi->Init.TIMode & SPI_CR2_FRF)));
 80047ae:	0c12      	lsrs	r2, r2, #16
  WRITE_REG(hspi->Instance->CR1, ((hspi->Init.Mode & (SPI_CR1_MSTR | SPI_CR1_SSI)) |
 80047b0:	4038      	ands	r0, r7
 80047b2:	4303      	orrs	r3, r0
 80047b4:	2080      	movs	r0, #128	; 0x80
 80047b6:	6aa7      	ldr	r7, [r4, #40]	; 0x28
 80047b8:	0180      	lsls	r0, r0, #6
 80047ba:	4038      	ands	r0, r7
 80047bc:	4303      	orrs	r3, r0
 80047be:	600b      	str	r3, [r1, #0]
  WRITE_REG(hspi->Instance->CR2, (((hspi->Init.NSS >> 16U) & SPI_CR2_SSOE) | (hspi->Init.TIMode & SPI_CR2_FRF)));
 80047c0:	2304      	movs	r3, #4
 80047c2:	6a60      	ldr	r0, [r4, #36]	; 0x24
 80047c4:	401a      	ands	r2, r3
 80047c6:	330c      	adds	r3, #12
 80047c8:	4003      	ands	r3, r0
  hspi->ErrorCode = HAL_SPI_ERROR_NONE;
 80047ca:	2000      	movs	r0, #0
  WRITE_REG(hspi->Instance->CR2, (((hspi->Init.NSS >> 16U) & SPI_CR2_SSOE) | (hspi->Init.TIMode & SPI_CR2_FRF)));
 80047cc:	431a      	orrs	r2, r3
 80047ce:	604a      	str	r2, [r1, #4]
  CLEAR_BIT(hspi->Instance->I2SCFGR, SPI_I2SCFGR_I2SMOD);
 80047d0:	69cb      	ldr	r3, [r1, #28]
 80047d2:	4a05      	ldr	r2, [pc, #20]	; (80047e8 <HAL_SPI_Init+0xc0>)
 80047d4:	4013      	ands	r3, r2
 80047d6:	61cb      	str	r3, [r1, #28]
  hspi->ErrorCode = HAL_SPI_ERROR_NONE;
 80047d8:	6560      	str	r0, [r4, #84]	; 0x54
  hspi->State     = HAL_SPI_STATE_READY;
 80047da:	702e      	strb	r6, [r5, #0]
}
 80047dc:	bdf8      	pop	{r3, r4, r5, r6, r7, pc}
    hspi->Init.CLKPolarity = SPI_POLARITY_LOW;
 80047de:	2300      	movs	r3, #0
 80047e0:	6123      	str	r3, [r4, #16]
    hspi->Init.CLKPhase    = SPI_PHASE_1EDGE;
 80047e2:	6163      	str	r3, [r4, #20]
 80047e4:	e7ae      	b.n	8004744 <HAL_SPI_Init+0x1c>
 80047e6:	46c0      	nop			; (mov r8, r8)
 80047e8:	fffff7ff 	.word	0xfffff7ff

080047ec <HAL_SPI_Transmit_DMA>:
{
 80047ec:	b5f8      	push	{r3, r4, r5, r6, r7, lr}
  __HAL_LOCK(hspi);
 80047ee:	0006      	movs	r6, r0
 80047f0:	3650      	adds	r6, #80	; 0x50
 80047f2:	7833      	ldrb	r3, [r6, #0]
{
 80047f4:	0004      	movs	r4, r0
  __HAL_LOCK(hspi);
 80047f6:	2502      	movs	r5, #2
 80047f8:	2b01      	cmp	r3, #1
 80047fa:	d03e      	beq.n	800487a <HAL_SPI_Transmit_DMA+0x8e>
 80047fc:	2301      	movs	r3, #1
  if (hspi->State != HAL_SPI_STATE_READY)
 80047fe:	0007      	movs	r7, r0
  __HAL_LOCK(hspi);
 8004800:	7033      	strb	r3, [r6, #0]
  if (hspi->State != HAL_SPI_STATE_READY)
 8004802:	3751      	adds	r7, #81	; 0x51
 8004804:	783b      	ldrb	r3, [r7, #0]
 8004806:	b2dd      	uxtb	r5, r3
 8004808:	2b01      	cmp	r3, #1
 800480a:	d14a      	bne.n	80048a2 <HAL_SPI_Transmit_DMA+0xb6>
  if ((pData == NULL) || (Size == 0U))
 800480c:	2900      	cmp	r1, #0
 800480e:	d032      	beq.n	8004876 <HAL_SPI_Transmit_DMA+0x8a>
 8004810:	2a00      	cmp	r2, #0
 8004812:	d030      	beq.n	8004876 <HAL_SPI_Transmit_DMA+0x8a>
  hspi->State       = HAL_SPI_STATE_BUSY_TX;
 8004814:	3302      	adds	r3, #2
 8004816:	703b      	strb	r3, [r7, #0]
  hspi->ErrorCode   = HAL_SPI_ERROR_NONE;
 8004818:	2300      	movs	r3, #0
 800481a:	6543      	str	r3, [r0, #84]	; 0x54
  hspi->pRxBuffPtr  = (uint8_t *)NULL;
 800481c:	6383      	str	r3, [r0, #56]	; 0x38
  hspi->TxXferCount = Size;
 800481e:	86c2      	strh	r2, [r0, #54]	; 0x36
  hspi->TxISR       = NULL;
 8004820:	6443      	str	r3, [r0, #68]	; 0x44
  hspi->RxISR       = NULL;
 8004822:	6403      	str	r3, [r0, #64]	; 0x40
  hspi->RxXferSize  = 0U;
 8004824:	8783      	strh	r3, [r0, #60]	; 0x3c
  hspi->RxXferCount = 0U;
 8004826:	87c3      	strh	r3, [r0, #62]	; 0x3e
  if (hspi->Init.Direction == SPI_DIRECTION_1LINE)
 8004828:	2380      	movs	r3, #128	; 0x80
  hspi->TxXferSize  = Size;
 800482a:	8682      	strh	r2, [r0, #52]	; 0x34
  hspi->pTxBuffPtr  = (uint8_t *)pData;
 800482c:	6301      	str	r1, [r0, #48]	; 0x30
    __HAL_SPI_DISABLE(hspi);
 800482e:	6802      	ldr	r2, [r0, #0]
  if (hspi->Init.Direction == SPI_DIRECTION_1LINE)
 8004830:	6880      	ldr	r0, [r0, #8]
 8004832:	021b      	lsls	r3, r3, #8
 8004834:	4298      	cmp	r0, r3
 8004836:	d108      	bne.n	800484a <HAL_SPI_Transmit_DMA+0x5e>
    __HAL_SPI_DISABLE(hspi);
 8004838:	2040      	movs	r0, #64	; 0x40
 800483a:	6813      	ldr	r3, [r2, #0]
 800483c:	4383      	bics	r3, r0
 800483e:	6013      	str	r3, [r2, #0]
    SPI_1LINE_TX(hspi);
 8004840:	2380      	movs	r3, #128	; 0x80
 8004842:	6810      	ldr	r0, [r2, #0]
 8004844:	01db      	lsls	r3, r3, #7
 8004846:	4303      	orrs	r3, r0
 8004848:	6013      	str	r3, [r2, #0]
  hspi->hdmatx->XferHalfCpltCallback = SPI_DMAHalfTransmitCplt;
 800484a:	6ca0      	ldr	r0, [r4, #72]	; 0x48
 800484c:	4b16      	ldr	r3, [pc, #88]	; (80048a8 <HAL_SPI_Transmit_DMA+0xbc>)
  if (HAL_OK != HAL_DMA_Start_IT(hspi->hdmatx, (uint32_t)hspi->pTxBuffPtr, (uint32_t)&hspi->Instance->DR,
 800484e:	320c      	adds	r2, #12
  hspi->hdmatx->XferHalfCpltCallback = SPI_DMAHalfTransmitCplt;
 8004850:	6303      	str	r3, [r0, #48]	; 0x30
  hspi->hdmatx->XferCpltCallback = SPI_DMATransmitCplt;
 8004852:	4b16      	ldr	r3, [pc, #88]	; (80048ac <HAL_SPI_Transmit_DMA+0xc0>)
 8004854:	62c3      	str	r3, [r0, #44]	; 0x2c
  hspi->hdmatx->XferErrorCallback = SPI_DMAError;
 8004856:	4b16      	ldr	r3, [pc, #88]	; (80048b0 <HAL_SPI_Transmit_DMA+0xc4>)
 8004858:	6343      	str	r3, [r0, #52]	; 0x34
  hspi->hdmatx->XferAbortCallback = NULL;
 800485a:	2300      	movs	r3, #0
 800485c:	6383      	str	r3, [r0, #56]	; 0x38
                                 hspi->TxXferCount))
 800485e:	8ee3      	ldrh	r3, [r4, #54]	; 0x36
 8004860:	b29b      	uxth	r3, r3
  if (HAL_OK != HAL_DMA_Start_IT(hspi->hdmatx, (uint32_t)hspi->pTxBuffPtr, (uint32_t)&hspi->Instance->DR,
 8004862:	f7fe fcad 	bl	80031c0 <HAL_DMA_Start_IT>
 8004866:	2800      	cmp	r0, #0
 8004868:	d009      	beq.n	800487e <HAL_SPI_Transmit_DMA+0x92>
    SET_BIT(hspi->ErrorCode, HAL_SPI_ERROR_DMA);
 800486a:	2310      	movs	r3, #16
 800486c:	6d62      	ldr	r2, [r4, #84]	; 0x54
 800486e:	4313      	orrs	r3, r2
 8004870:	6563      	str	r3, [r4, #84]	; 0x54
    hspi->State = HAL_SPI_STATE_READY;
 8004872:	2301      	movs	r3, #1
 8004874:	703b      	strb	r3, [r7, #0]
  __HAL_UNLOCK(hspi);
 8004876:	2300      	movs	r3, #0
 8004878:	7033      	strb	r3, [r6, #0]
}
 800487a:	0028      	movs	r0, r5
 800487c:	bdf8      	pop	{r3, r4, r5, r6, r7, pc}
  if ((hspi->Instance->CR1 & SPI_CR1_SPE) != SPI_CR1_SPE)
 800487e:	2240      	movs	r2, #64	; 0x40
 8004880:	6823      	ldr	r3, [r4, #0]
 8004882:	6819      	ldr	r1, [r3, #0]
 8004884:	4211      	tst	r1, r2
 8004886:	d102      	bne.n	800488e <HAL_SPI_Transmit_DMA+0xa2>
    __HAL_SPI_ENABLE(hspi);
 8004888:	6819      	ldr	r1, [r3, #0]
 800488a:	430a      	orrs	r2, r1
 800488c:	601a      	str	r2, [r3, #0]
  __HAL_SPI_ENABLE_IT(hspi, (SPI_IT_ERR));
 800488e:	2220      	movs	r2, #32
 8004890:	6859      	ldr	r1, [r3, #4]
  HAL_StatusTypeDef errorcode = HAL_OK;
 8004892:	2500      	movs	r5, #0
  __HAL_SPI_ENABLE_IT(hspi, (SPI_IT_ERR));
 8004894:	430a      	orrs	r2, r1
 8004896:	605a      	str	r2, [r3, #4]
  SET_BIT(hspi->Instance->CR2, SPI_CR2_TXDMAEN);
 8004898:	2202      	movs	r2, #2
 800489a:	6859      	ldr	r1, [r3, #4]
 800489c:	430a      	orrs	r2, r1
 800489e:	605a      	str	r2, [r3, #4]
 80048a0:	e7e9      	b.n	8004876 <HAL_SPI_Transmit_DMA+0x8a>
    errorcode = HAL_BUSY;
 80048a2:	2502      	movs	r5, #2
 80048a4:	e7e7      	b.n	8004876 <HAL_SPI_Transmit_DMA+0x8a>
 80048a6:	46c0      	nop			; (mov r8, r8)
 80048a8:	080048b9 	.word	0x080048b9
 80048ac:	080048e9 	.word	0x080048e9
 80048b0:	080048c5 	.word	0x080048c5

080048b4 <HAL_SPI_TxCpltCallback>:
 80048b4:	4770      	bx	lr

080048b6 <HAL_SPI_TxHalfCpltCallback>:
 80048b6:	4770      	bx	lr

080048b8 <SPI_DMAHalfTransmitCplt>:
{
 80048b8:	b510      	push	{r4, lr}
  HAL_SPI_TxHalfCpltCallback(hspi);
 80048ba:	6a80      	ldr	r0, [r0, #40]	; 0x28
 80048bc:	f7ff fffb 	bl	80048b6 <HAL_SPI_TxHalfCpltCallback>
}
 80048c0:	bd10      	pop	{r4, pc}

080048c2 <HAL_SPI_ErrorCallback>:
 80048c2:	4770      	bx	lr

080048c4 <SPI_DMAError>:
  CLEAR_BIT(hspi->Instance->CR2, SPI_CR2_TXDMAEN | SPI_CR2_RXDMAEN);
 80048c4:	2103      	movs	r1, #3
  SPI_HandleTypeDef *hspi = (SPI_HandleTypeDef *)(((DMA_HandleTypeDef *)hdma)->Parent); /* Derogation MISRAC2012-Rule-11.5 */
 80048c6:	6a80      	ldr	r0, [r0, #40]	; 0x28
{
 80048c8:	b510      	push	{r4, lr}
  CLEAR_BIT(hspi->Instance->CR2, SPI_CR2_TXDMAEN | SPI_CR2_RXDMAEN);
 80048ca:	6802      	ldr	r2, [r0, #0]
 80048cc:	6853      	ldr	r3, [r2, #4]
 80048ce:	438b      	bics	r3, r1
 80048d0:	6053      	str	r3, [r2, #4]
  SET_BIT(hspi->ErrorCode, HAL_SPI_ERROR_DMA);
 80048d2:	2310      	movs	r3, #16
 80048d4:	6d42      	ldr	r2, [r0, #84]	; 0x54
 80048d6:	4313      	orrs	r3, r2
 80048d8:	6543      	str	r3, [r0, #84]	; 0x54
  hspi->State = HAL_SPI_STATE_READY;
 80048da:	0003      	movs	r3, r0
 80048dc:	2201      	movs	r2, #1
 80048de:	3351      	adds	r3, #81	; 0x51
 80048e0:	701a      	strb	r2, [r3, #0]
  HAL_SPI_ErrorCallback(hspi);
 80048e2:	f7ff ffee 	bl	80048c2 <HAL_SPI_ErrorCallback>
}
 80048e6:	bd10      	pop	{r4, pc}

080048e8 <SPI_DMATransmitCplt>:
{
 80048e8:	b537      	push	{r0, r1, r2, r4, r5, lr}
 80048ea:	0005      	movs	r5, r0
  SPI_HandleTypeDef *hspi = (SPI_HandleTypeDef *)(((DMA_HandleTypeDef *)hdma)->Parent); /* Derogation MISRAC2012-Rule-11.5 */
 80048ec:	6a84      	ldr	r4, [r0, #40]	; 0x28
  tickstart = HAL_GetTick();
 80048ee:	f7fe f9a7 	bl	8002c40 <HAL_GetTick>
  if ((hdma->Instance->CCR & DMA_CCR_CIRC) != DMA_CCR_CIRC)
 80048f2:	682b      	ldr	r3, [r5, #0]
 80048f4:	2520      	movs	r5, #32
 80048f6:	681b      	ldr	r3, [r3, #0]
  tickstart = HAL_GetTick();
 80048f8:	0002      	movs	r2, r0
  if ((hdma->Instance->CCR & DMA_CCR_CIRC) != DMA_CCR_CIRC)
 80048fa:	422b      	tst	r3, r5
 80048fc:	d127      	bne.n	800494e <SPI_DMATransmitCplt+0x66>
    CLEAR_BIT(hspi->Instance->CR2, SPI_CR2_TXDMAEN);
 80048fe:	2002      	movs	r0, #2
    __HAL_SPI_DISABLE_IT(hspi, SPI_IT_ERR);
 8004900:	6823      	ldr	r3, [r4, #0]
 8004902:	6859      	ldr	r1, [r3, #4]
 8004904:	43a9      	bics	r1, r5
 8004906:	6059      	str	r1, [r3, #4]
    CLEAR_BIT(hspi->Instance->CR2, SPI_CR2_TXDMAEN);
 8004908:	6859      	ldr	r1, [r3, #4]
 800490a:	4381      	bics	r1, r0
 800490c:	6059      	str	r1, [r3, #4]
    if (SPI_EndRxTxTransaction(hspi, SPI_DEFAULT_TIMEOUT, tickstart) != HAL_OK)
 800490e:	0020      	movs	r0, r4
 8004910:	2164      	movs	r1, #100	; 0x64
 8004912:	f7ff fed7 	bl	80046c4 <SPI_EndRxTxTransaction>
 8004916:	2800      	cmp	r0, #0
 8004918:	d002      	beq.n	8004920 <SPI_DMATransmitCplt+0x38>
      SET_BIT(hspi->ErrorCode, HAL_SPI_ERROR_FLAG);
 800491a:	6d63      	ldr	r3, [r4, #84]	; 0x54
 800491c:	431d      	orrs	r5, r3
 800491e:	6565      	str	r5, [r4, #84]	; 0x54
    if (hspi->Init.Direction == SPI_DIRECTION_2LINES)
 8004920:	68a3      	ldr	r3, [r4, #8]
 8004922:	2b00      	cmp	r3, #0
 8004924:	d106      	bne.n	8004934 <SPI_DMATransmitCplt+0x4c>
      __HAL_SPI_CLEAR_OVRFLAG(hspi);
 8004926:	9301      	str	r3, [sp, #4]
 8004928:	6823      	ldr	r3, [r4, #0]
 800492a:	68da      	ldr	r2, [r3, #12]
 800492c:	9201      	str	r2, [sp, #4]
 800492e:	689b      	ldr	r3, [r3, #8]
 8004930:	9301      	str	r3, [sp, #4]
 8004932:	9b01      	ldr	r3, [sp, #4]
    hspi->TxXferCount = 0U;
 8004934:	2300      	movs	r3, #0
 8004936:	86e3      	strh	r3, [r4, #54]	; 0x36
    hspi->State = HAL_SPI_STATE_READY;
 8004938:	0023      	movs	r3, r4
 800493a:	2201      	movs	r2, #1
 800493c:	3351      	adds	r3, #81	; 0x51
 800493e:	701a      	strb	r2, [r3, #0]
    if (hspi->ErrorCode != HAL_SPI_ERROR_NONE)
 8004940:	6d63      	ldr	r3, [r4, #84]	; 0x54
 8004942:	2b00      	cmp	r3, #0
 8004944:	d003      	beq.n	800494e <SPI_DMATransmitCplt+0x66>
      HAL_SPI_ErrorCallback(hspi);
 8004946:	0020      	movs	r0, r4
 8004948:	f7ff ffbb 	bl	80048c2 <HAL_SPI_ErrorCallback>
}
 800494c:	bd37      	pop	{r0, r1, r2, r4, r5, pc}
  HAL_SPI_TxCpltCallback(hspi);
 800494e:	0020      	movs	r0, r4
 8004950:	f7ff ffb0 	bl	80048b4 <HAL_SPI_TxCpltCallback>
 8004954:	e7fa      	b.n	800494c <SPI_DMATransmitCplt+0x64>
	...

08004958 <TIM_Base_SetConfig>:
{
  uint32_t tmpcr1;
  tmpcr1 = TIMx->CR1;

  /* Set TIM Time Base Unit parameters ---------------------------------------*/
  if (IS_TIM_COUNTER_MODE_SELECT_INSTANCE(TIMx))
 8004958:	2280      	movs	r2, #128	; 0x80
{
 800495a:	b510      	push	{r4, lr}
  tmpcr1 = TIMx->CR1;
 800495c:	6803      	ldr	r3, [r0, #0]
  if (IS_TIM_COUNTER_MODE_SELECT_INSTANCE(TIMx))
 800495e:	05d2      	lsls	r2, r2, #23
 8004960:	4290      	cmp	r0, r2
 8004962:	d005      	beq.n	8004970 <TIM_Base_SetConfig+0x18>
 8004964:	4c10      	ldr	r4, [pc, #64]	; (80049a8 <TIM_Base_SetConfig+0x50>)
 8004966:	42a0      	cmp	r0, r4
 8004968:	d002      	beq.n	8004970 <TIM_Base_SetConfig+0x18>
 800496a:	4c10      	ldr	r4, [pc, #64]	; (80049ac <TIM_Base_SetConfig+0x54>)
 800496c:	42a0      	cmp	r0, r4
 800496e:	d10f      	bne.n	8004990 <TIM_Base_SetConfig+0x38>
  {
    /* Select the Counter Mode */
    tmpcr1 &= ~(TIM_CR1_DIR | TIM_CR1_CMS);
 8004970:	2470      	movs	r4, #112	; 0x70
 8004972:	43a3      	bics	r3, r4
    tmpcr1 |= Structure->CounterMode;
 8004974:	684c      	ldr	r4, [r1, #4]
 8004976:	4323      	orrs	r3, r4
  }

  if (IS_TIM_CLOCK_DIVISION_INSTANCE(TIMx))
 8004978:	4290      	cmp	r0, r2
 800497a:	d005      	beq.n	8004988 <TIM_Base_SetConfig+0x30>
 800497c:	4a0a      	ldr	r2, [pc, #40]	; (80049a8 <TIM_Base_SetConfig+0x50>)
 800497e:	4290      	cmp	r0, r2
 8004980:	d002      	beq.n	8004988 <TIM_Base_SetConfig+0x30>
 8004982:	4a0a      	ldr	r2, [pc, #40]	; (80049ac <TIM_Base_SetConfig+0x54>)
 8004984:	4290      	cmp	r0, r2
 8004986:	d103      	bne.n	8004990 <TIM_Base_SetConfig+0x38>
  {
    /* Set the clock division */
    tmpcr1 &= ~TIM_CR1_CKD;
 8004988:	4a09      	ldr	r2, [pc, #36]	; (80049b0 <TIM_Base_SetConfig+0x58>)
 800498a:	4013      	ands	r3, r2
    tmpcr1 |= (uint32_t)Structure->ClockDivision;
 800498c:	68ca      	ldr	r2, [r1, #12]
 800498e:	4313      	orrs	r3, r2
  }

  /* Set the auto-reload preload */
  MODIFY_REG(tmpcr1, TIM_CR1_ARPE, Structure->AutoReloadPreload);
 8004990:	2280      	movs	r2, #128	; 0x80
 8004992:	4393      	bics	r3, r2
 8004994:	690a      	ldr	r2, [r1, #16]
 8004996:	4313      	orrs	r3, r2

  TIMx->CR1 = tmpcr1;
 8004998:	6003      	str	r3, [r0, #0]

  /* Set the Autoreload value */
  TIMx->ARR = (uint32_t)Structure->Period ;
 800499a:	688b      	ldr	r3, [r1, #8]
 800499c:	62c3      	str	r3, [r0, #44]	; 0x2c

  /* Set the Prescaler value */
  TIMx->PSC = Structure->Prescaler;
 800499e:	680b      	ldr	r3, [r1, #0]
 80049a0:	6283      	str	r3, [r0, #40]	; 0x28

  /* Generate an update event to reload the Prescaler
     and the repetition counter (only for advanced timer) value immediately */
  TIMx->EGR = TIM_EGR_UG;
 80049a2:	2301      	movs	r3, #1
 80049a4:	6143      	str	r3, [r0, #20]
}
 80049a6:	bd10      	pop	{r4, pc}
 80049a8:	40010800 	.word	0x40010800
 80049ac:	40011400 	.word	0x40011400
 80049b0:	fffffcff 	.word	0xfffffcff

080049b4 <HAL_TIM_Base_Init>:
{
 80049b4:	b570      	push	{r4, r5, r6, lr}
 80049b6:	0004      	movs	r4, r0
    return HAL_ERROR;
 80049b8:	2001      	movs	r0, #1
  if (htim == NULL)
 80049ba:	2c00      	cmp	r4, #0
 80049bc:	d01d      	beq.n	80049fa <HAL_TIM_Base_Init+0x46>
  if (htim->State == HAL_TIM_STATE_RESET)
 80049be:	0025      	movs	r5, r4
 80049c0:	3539      	adds	r5, #57	; 0x39
 80049c2:	782b      	ldrb	r3, [r5, #0]
 80049c4:	b2da      	uxtb	r2, r3
 80049c6:	2b00      	cmp	r3, #0
 80049c8:	d105      	bne.n	80049d6 <HAL_TIM_Base_Init+0x22>
    htim->Lock = HAL_UNLOCKED;
 80049ca:	0023      	movs	r3, r4
 80049cc:	3338      	adds	r3, #56	; 0x38
    HAL_TIM_Base_MspInit(htim);
 80049ce:	0020      	movs	r0, r4
    htim->Lock = HAL_UNLOCKED;
 80049d0:	701a      	strb	r2, [r3, #0]
    HAL_TIM_Base_MspInit(htim);
 80049d2:	f7fe f87f 	bl	8002ad4 <HAL_TIM_Base_MspInit>
  htim->State = HAL_TIM_STATE_BUSY;
 80049d6:	2302      	movs	r3, #2
 80049d8:	702b      	strb	r3, [r5, #0]
  TIM_Base_SetConfig(htim->Instance, &htim->Init);
 80049da:	6820      	ldr	r0, [r4, #0]
 80049dc:	1d21      	adds	r1, r4, #4
 80049de:	f7ff ffbb 	bl	8004958 <TIM_Base_SetConfig>
  htim->DMABurstState = HAL_DMA_BURST_STATE_READY;
 80049e2:	0022      	movs	r2, r4
 80049e4:	2301      	movs	r3, #1
  return HAL_OK;
 80049e6:	2000      	movs	r0, #0
  htim->DMABurstState = HAL_DMA_BURST_STATE_READY;
 80049e8:	323e      	adds	r2, #62	; 0x3e
 80049ea:	7013      	strb	r3, [r2, #0]
  TIM_CHANNEL_STATE_SET_ALL(htim, HAL_TIM_CHANNEL_STATE_READY);
 80049ec:	343d      	adds	r4, #61	; 0x3d
 80049ee:	3a04      	subs	r2, #4
 80049f0:	7013      	strb	r3, [r2, #0]
 80049f2:	7053      	strb	r3, [r2, #1]
 80049f4:	7093      	strb	r3, [r2, #2]
 80049f6:	7023      	strb	r3, [r4, #0]
  htim->State = HAL_TIM_STATE_READY;
 80049f8:	702b      	strb	r3, [r5, #0]
}
 80049fa:	bd70      	pop	{r4, r5, r6, pc}

080049fc <HAL_TIM_Base_Start_IT>:
  if (htim->State != HAL_TIM_STATE_READY)
 80049fc:	0002      	movs	r2, r0
{
 80049fe:	0003      	movs	r3, r0
    return HAL_ERROR;
 8004a00:	2001      	movs	r0, #1
  if (htim->State != HAL_TIM_STATE_READY)
 8004a02:	3239      	adds	r2, #57	; 0x39
 8004a04:	7811      	ldrb	r1, [r2, #0]
 8004a06:	4281      	cmp	r1, r0
 8004a08:	d119      	bne.n	8004a3e <HAL_TIM_Base_Start_IT+0x42>
  htim->State = HAL_TIM_STATE_BUSY;
 8004a0a:	2102      	movs	r1, #2
 8004a0c:	7011      	strb	r1, [r2, #0]
  __HAL_TIM_ENABLE_IT(htim, TIM_IT_UPDATE);
 8004a0e:	681b      	ldr	r3, [r3, #0]
 8004a10:	68da      	ldr	r2, [r3, #12]
 8004a12:	4302      	orrs	r2, r0
 8004a14:	60da      	str	r2, [r3, #12]
  if (IS_TIM_SLAVE_INSTANCE(htim->Instance))
 8004a16:	2280      	movs	r2, #128	; 0x80
 8004a18:	05d2      	lsls	r2, r2, #23
 8004a1a:	4293      	cmp	r3, r2
 8004a1c:	d005      	beq.n	8004a2a <HAL_TIM_Base_Start_IT+0x2e>
 8004a1e:	4a0b      	ldr	r2, [pc, #44]	; (8004a4c <HAL_TIM_Base_Start_IT+0x50>)
 8004a20:	4293      	cmp	r3, r2
 8004a22:	d002      	beq.n	8004a2a <HAL_TIM_Base_Start_IT+0x2e>
 8004a24:	4a0a      	ldr	r2, [pc, #40]	; (8004a50 <HAL_TIM_Base_Start_IT+0x54>)
 8004a26:	4293      	cmp	r3, r2
 8004a28:	d10a      	bne.n	8004a40 <HAL_TIM_Base_Start_IT+0x44>
    tmpsmcr = htim->Instance->SMCR & TIM_SMCR_SMS;
 8004a2a:	2107      	movs	r1, #7
 8004a2c:	689a      	ldr	r2, [r3, #8]
  return HAL_OK;
 8004a2e:	2000      	movs	r0, #0
    tmpsmcr = htim->Instance->SMCR & TIM_SMCR_SMS;
 8004a30:	400a      	ands	r2, r1
    if (!IS_TIM_SLAVEMODE_TRIGGER_ENABLED(tmpsmcr))
 8004a32:	2a06      	cmp	r2, #6
 8004a34:	d003      	beq.n	8004a3e <HAL_TIM_Base_Start_IT+0x42>
      __HAL_TIM_ENABLE(htim);
 8004a36:	2201      	movs	r2, #1
 8004a38:	6819      	ldr	r1, [r3, #0]
 8004a3a:	430a      	orrs	r2, r1
 8004a3c:	601a      	str	r2, [r3, #0]
}
 8004a3e:	4770      	bx	lr
    __HAL_TIM_ENABLE(htim);
 8004a40:	681a      	ldr	r2, [r3, #0]
 8004a42:	4310      	orrs	r0, r2
 8004a44:	6018      	str	r0, [r3, #0]
  return HAL_OK;
 8004a46:	2000      	movs	r0, #0
 8004a48:	e7f9      	b.n	8004a3e <HAL_TIM_Base_Start_IT+0x42>
 8004a4a:	46c0      	nop			; (mov r8, r8)
 8004a4c:	40010800 	.word	0x40010800
 8004a50:	40011400 	.word	0x40011400

08004a54 <HAL_TIM_ConfigClockSource>:
{
 8004a54:	b5f0      	push	{r4, r5, r6, r7, lr}
  __HAL_LOCK(htim);
 8004a56:	0005      	movs	r5, r0
 8004a58:	2202      	movs	r2, #2
 8004a5a:	3538      	adds	r5, #56	; 0x38
 8004a5c:	782c      	ldrb	r4, [r5, #0]
{
 8004a5e:	0003      	movs	r3, r0
  __HAL_LOCK(htim);
 8004a60:	0010      	movs	r0, r2
 8004a62:	2c01      	cmp	r4, #1
 8004a64:	d01d      	beq.n	8004aa2 <HAL_TIM_ConfigClockSource+0x4e>
  htim->State = HAL_TIM_STATE_BUSY;
 8004a66:	001e      	movs	r6, r3
  __HAL_LOCK(htim);
 8004a68:	2401      	movs	r4, #1
  htim->State = HAL_TIM_STATE_BUSY;
 8004a6a:	3639      	adds	r6, #57	; 0x39
  __HAL_LOCK(htim);
 8004a6c:	702c      	strb	r4, [r5, #0]
  htim->State = HAL_TIM_STATE_BUSY;
 8004a6e:	7032      	strb	r2, [r6, #0]
  tmpsmcr = htim->Instance->SMCR;
 8004a70:	681b      	ldr	r3, [r3, #0]
  tmpsmcr &= ~(TIM_SMCR_ETF | TIM_SMCR_ETPS | TIM_SMCR_ECE | TIM_SMCR_ETP);
 8004a72:	484c      	ldr	r0, [pc, #304]	; (8004ba4 <HAL_TIM_ConfigClockSource+0x150>)
  tmpsmcr = htim->Instance->SMCR;
 8004a74:	689a      	ldr	r2, [r3, #8]
  tmpsmcr &= ~(TIM_SMCR_ETF | TIM_SMCR_ETPS | TIM_SMCR_ECE | TIM_SMCR_ETP);
 8004a76:	4002      	ands	r2, r0
  htim->Instance->SMCR = tmpsmcr;
 8004a78:	609a      	str	r2, [r3, #8]
  switch (sClockSourceConfig->ClockSource)
 8004a7a:	680a      	ldr	r2, [r1, #0]
 8004a7c:	2a60      	cmp	r2, #96	; 0x60
 8004a7e:	d05f      	beq.n	8004b40 <HAL_TIM_ConfigClockSource+0xec>
 8004a80:	d832      	bhi.n	8004ae8 <HAL_TIM_ConfigClockSource+0x94>
 8004a82:	2a40      	cmp	r2, #64	; 0x40
 8004a84:	d100      	bne.n	8004a88 <HAL_TIM_ConfigClockSource+0x34>
 8004a86:	e074      	b.n	8004b72 <HAL_TIM_ConfigClockSource+0x11e>
 8004a88:	d814      	bhi.n	8004ab4 <HAL_TIM_ConfigClockSource+0x60>
 8004a8a:	2a20      	cmp	r2, #32
 8004a8c:	d00c      	beq.n	8004aa8 <HAL_TIM_ConfigClockSource+0x54>
 8004a8e:	d809      	bhi.n	8004aa4 <HAL_TIM_ConfigClockSource+0x50>
 8004a90:	2110      	movs	r1, #16
 8004a92:	0010      	movs	r0, r2
 8004a94:	4388      	bics	r0, r1
 8004a96:	d007      	beq.n	8004aa8 <HAL_TIM_ConfigClockSource+0x54>
 8004a98:	0020      	movs	r0, r4
  htim->State = HAL_TIM_STATE_READY;
 8004a9a:	2301      	movs	r3, #1
 8004a9c:	7033      	strb	r3, [r6, #0]
  __HAL_UNLOCK(htim);
 8004a9e:	2300      	movs	r3, #0
 8004aa0:	702b      	strb	r3, [r5, #0]
}
 8004aa2:	bdf0      	pop	{r4, r5, r6, r7, pc}
  switch (sClockSourceConfig->ClockSource)
 8004aa4:	2a30      	cmp	r2, #48	; 0x30
 8004aa6:	d1f7      	bne.n	8004a98 <HAL_TIM_ConfigClockSource+0x44>
  uint32_t tmpsmcr;

  /* Get the TIMx SMCR register value */
  tmpsmcr = TIMx->SMCR;
  /* Reset the TS Bits */
  tmpsmcr &= ~TIM_SMCR_TS;
 8004aa8:	2070      	movs	r0, #112	; 0x70
  tmpsmcr = TIMx->SMCR;
 8004aaa:	6899      	ldr	r1, [r3, #8]
  tmpsmcr &= ~TIM_SMCR_TS;
 8004aac:	4381      	bics	r1, r0
  /* Set the Input Trigger source and the slave mode*/
  tmpsmcr |= (InputTriggerSource | TIM_SLAVEMODE_EXTERNAL1);
 8004aae:	430a      	orrs	r2, r1
 8004ab0:	2107      	movs	r1, #7
 8004ab2:	e032      	b.n	8004b1a <HAL_TIM_ConfigClockSource+0xc6>
  switch (sClockSourceConfig->ClockSource)
 8004ab4:	2a50      	cmp	r2, #80	; 0x50
 8004ab6:	d1ef      	bne.n	8004a98 <HAL_TIM_ConfigClockSource+0x44>
  tmpccer = TIMx->CCER;
 8004ab8:	6a1f      	ldr	r7, [r3, #32]
  TIMx->CCER &= ~TIM_CCER_CC1E;
 8004aba:	6a1a      	ldr	r2, [r3, #32]
      TIM_TI1_ConfigInputStage(htim->Instance,
 8004abc:	6848      	ldr	r0, [r1, #4]
  TIMx->CCER &= ~TIM_CCER_CC1E;
 8004abe:	43a2      	bics	r2, r4
  tmpccmr1 &= ~TIM_CCMR1_IC1F;
 8004ac0:	24f0      	movs	r4, #240	; 0xf0
      TIM_TI1_ConfigInputStage(htim->Instance,
 8004ac2:	68c9      	ldr	r1, [r1, #12]
  TIMx->CCER &= ~TIM_CCER_CC1E;
 8004ac4:	621a      	str	r2, [r3, #32]
  tmpccmr1 = TIMx->CCMR1;
 8004ac6:	699a      	ldr	r2, [r3, #24]
  tmpccmr1 &= ~TIM_CCMR1_IC1F;
 8004ac8:	43a2      	bics	r2, r4
 8004aca:	0014      	movs	r4, r2
  tmpccmr1 |= (TIM_ICFilter << 4U);
 8004acc:	010a      	lsls	r2, r1, #4
  tmpccer &= ~(TIM_CCER_CC1P | TIM_CCER_CC1NP);
 8004ace:	210a      	movs	r1, #10
 8004ad0:	438f      	bics	r7, r1
 8004ad2:	0039      	movs	r1, r7
  tmpccmr1 |= (TIM_ICFilter << 4U);
 8004ad4:	4322      	orrs	r2, r4
  tmpccer |= TIM_ICPolarity;
 8004ad6:	4301      	orrs	r1, r0
  TIMx->CCMR1 = tmpccmr1;
 8004ad8:	619a      	str	r2, [r3, #24]
  TIMx->CCER = tmpccer;
 8004ada:	6219      	str	r1, [r3, #32]
  tmpsmcr &= ~TIM_SMCR_TS;
 8004adc:	2170      	movs	r1, #112	; 0x70
  tmpsmcr = TIMx->SMCR;
 8004ade:	689a      	ldr	r2, [r3, #8]
  tmpsmcr &= ~TIM_SMCR_TS;
 8004ae0:	438a      	bics	r2, r1
 8004ae2:	0011      	movs	r1, r2
  tmpsmcr |= (InputTriggerSource | TIM_SLAVEMODE_EXTERNAL1);
 8004ae4:	2257      	movs	r2, #87	; 0x57
 8004ae6:	e018      	b.n	8004b1a <HAL_TIM_ConfigClockSource+0xc6>
  switch (sClockSourceConfig->ClockSource)
 8004ae8:	2780      	movs	r7, #128	; 0x80
  HAL_StatusTypeDef status = HAL_OK;
 8004aea:	2000      	movs	r0, #0
  switch (sClockSourceConfig->ClockSource)
 8004aec:	017f      	lsls	r7, r7, #5
 8004aee:	42ba      	cmp	r2, r7
 8004af0:	d0d3      	beq.n	8004a9a <HAL_TIM_ConfigClockSource+0x46>
 8004af2:	2080      	movs	r0, #128	; 0x80
 8004af4:	0180      	lsls	r0, r0, #6
 8004af6:	4282      	cmp	r2, r0
 8004af8:	d013      	beq.n	8004b22 <HAL_TIM_ConfigClockSource+0xce>
 8004afa:	0020      	movs	r0, r4
 8004afc:	2a70      	cmp	r2, #112	; 0x70
 8004afe:	d1cc      	bne.n	8004a9a <HAL_TIM_ConfigClockSource+0x46>
static void TIM_ETR_SetConfig(TIM_TypeDef *TIMx, uint32_t TIM_ExtTRGPrescaler,
                              uint32_t TIM_ExtTRGPolarity, uint32_t ExtTRGFilter)
{
  uint32_t tmpsmcr;

  tmpsmcr = TIMx->SMCR;
 8004b00:	689a      	ldr	r2, [r3, #8]

  /* Reset the ETR Bits */
  tmpsmcr &= ~(TIM_SMCR_ETF | TIM_SMCR_ETPS | TIM_SMCR_ECE | TIM_SMCR_ETP);
 8004b02:	4829      	ldr	r0, [pc, #164]	; (8004ba8 <HAL_TIM_ConfigClockSource+0x154>)

  /* Set the Prescaler, the Filter value and the Polarity */
  tmpsmcr |= (uint32_t)(TIM_ExtTRGPrescaler | (TIM_ExtTRGPolarity | (ExtTRGFilter << 8U)));
 8004b04:	684c      	ldr	r4, [r1, #4]
  tmpsmcr &= ~(TIM_SMCR_ETF | TIM_SMCR_ETPS | TIM_SMCR_ECE | TIM_SMCR_ETP);
 8004b06:	4010      	ands	r0, r2
  tmpsmcr |= (uint32_t)(TIM_ExtTRGPrescaler | (TIM_ExtTRGPolarity | (ExtTRGFilter << 8U)));
 8004b08:	688a      	ldr	r2, [r1, #8]
 8004b0a:	68c9      	ldr	r1, [r1, #12]
 8004b0c:	4322      	orrs	r2, r4
 8004b0e:	0209      	lsls	r1, r1, #8
 8004b10:	430a      	orrs	r2, r1
 8004b12:	4302      	orrs	r2, r0

  /* Write to TIMx SMCR */
  TIMx->SMCR = tmpsmcr;
 8004b14:	609a      	str	r2, [r3, #8]
      tmpsmcr |= (TIM_SLAVEMODE_EXTERNAL1 | TIM_CLOCKSOURCE_ETRMODE1);
 8004b16:	2277      	movs	r2, #119	; 0x77
      tmpsmcr = htim->Instance->SMCR;
 8004b18:	6899      	ldr	r1, [r3, #8]
  tmpsmcr |= (InputTriggerSource | TIM_SLAVEMODE_EXTERNAL1);
 8004b1a:	430a      	orrs	r2, r1
  HAL_StatusTypeDef status = HAL_OK;
 8004b1c:	2000      	movs	r0, #0
  TIMx->SMCR = tmpsmcr;
 8004b1e:	609a      	str	r2, [r3, #8]
}
 8004b20:	e7bb      	b.n	8004a9a <HAL_TIM_ConfigClockSource+0x46>
  tmpsmcr = TIMx->SMCR;
 8004b22:	689a      	ldr	r2, [r3, #8]
  tmpsmcr &= ~(TIM_SMCR_ETF | TIM_SMCR_ETPS | TIM_SMCR_ECE | TIM_SMCR_ETP);
 8004b24:	4820      	ldr	r0, [pc, #128]	; (8004ba8 <HAL_TIM_ConfigClockSource+0x154>)
  tmpsmcr |= (uint32_t)(TIM_ExtTRGPrescaler | (TIM_ExtTRGPolarity | (ExtTRGFilter << 8U)));
 8004b26:	684c      	ldr	r4, [r1, #4]
  tmpsmcr &= ~(TIM_SMCR_ETF | TIM_SMCR_ETPS | TIM_SMCR_ECE | TIM_SMCR_ETP);
 8004b28:	4010      	ands	r0, r2
  tmpsmcr |= (uint32_t)(TIM_ExtTRGPrescaler | (TIM_ExtTRGPolarity | (ExtTRGFilter << 8U)));
 8004b2a:	688a      	ldr	r2, [r1, #8]
 8004b2c:	68c9      	ldr	r1, [r1, #12]
 8004b2e:	4322      	orrs	r2, r4
 8004b30:	0209      	lsls	r1, r1, #8
 8004b32:	430a      	orrs	r2, r1
 8004b34:	4302      	orrs	r2, r0
  TIMx->SMCR = tmpsmcr;
 8004b36:	609a      	str	r2, [r3, #8]
      htim->Instance->SMCR |= TIM_SMCR_ECE;
 8004b38:	2280      	movs	r2, #128	; 0x80
 8004b3a:	6899      	ldr	r1, [r3, #8]
 8004b3c:	01d2      	lsls	r2, r2, #7
 8004b3e:	e7ec      	b.n	8004b1a <HAL_TIM_ConfigClockSource+0xc6>
      TIM_TI2_ConfigInputStage(htim->Instance,
 8004b40:	6848      	ldr	r0, [r1, #4]
 8004b42:	68cf      	ldr	r7, [r1, #12]
  TIMx->CCER &= ~TIM_CCER_CC2E;
 8004b44:	2110      	movs	r1, #16
 8004b46:	6a1a      	ldr	r2, [r3, #32]
  tmpccmr1 &= ~TIM_CCMR1_IC2F;
 8004b48:	4c18      	ldr	r4, [pc, #96]	; (8004bac <HAL_TIM_ConfigClockSource+0x158>)
  TIMx->CCER &= ~TIM_CCER_CC2E;
 8004b4a:	438a      	bics	r2, r1
 8004b4c:	621a      	str	r2, [r3, #32]
  tmpccmr1 = TIMx->CCMR1;
 8004b4e:	6999      	ldr	r1, [r3, #24]
  tmpccer = TIMx->CCER;
 8004b50:	6a1a      	ldr	r2, [r3, #32]
  tmpccmr1 &= ~TIM_CCMR1_IC2F;
 8004b52:	4021      	ands	r1, r4
  tmpccer &= ~(TIM_CCER_CC2P | TIM_CCER_CC2NP);
 8004b54:	24a0      	movs	r4, #160	; 0xa0
 8004b56:	43a2      	bics	r2, r4
 8004b58:	0014      	movs	r4, r2
  tmpccmr1 |= (TIM_ICFilter << 12U);
 8004b5a:	033f      	lsls	r7, r7, #12
 8004b5c:	4339      	orrs	r1, r7
  TIMx->CCMR1 = tmpccmr1 ;
 8004b5e:	6199      	str	r1, [r3, #24]
  tmpsmcr &= ~TIM_SMCR_TS;
 8004b60:	2170      	movs	r1, #112	; 0x70
  tmpccer |= (TIM_ICPolarity << 4U);
 8004b62:	0102      	lsls	r2, r0, #4
 8004b64:	4322      	orrs	r2, r4
  TIMx->CCER = tmpccer;
 8004b66:	621a      	str	r2, [r3, #32]
  tmpsmcr = TIMx->SMCR;
 8004b68:	689a      	ldr	r2, [r3, #8]
  tmpsmcr &= ~TIM_SMCR_TS;
 8004b6a:	438a      	bics	r2, r1
 8004b6c:	0011      	movs	r1, r2
  tmpsmcr |= (InputTriggerSource | TIM_SLAVEMODE_EXTERNAL1);
 8004b6e:	2267      	movs	r2, #103	; 0x67
 8004b70:	e7d3      	b.n	8004b1a <HAL_TIM_ConfigClockSource+0xc6>
  tmpccer = TIMx->CCER;
 8004b72:	6a1f      	ldr	r7, [r3, #32]
  TIMx->CCER &= ~TIM_CCER_CC1E;
 8004b74:	6a1a      	ldr	r2, [r3, #32]
      TIM_TI1_ConfigInputStage(htim->Instance,
 8004b76:	6848      	ldr	r0, [r1, #4]
  TIMx->CCER &= ~TIM_CCER_CC1E;
 8004b78:	43a2      	bics	r2, r4
  tmpccmr1 &= ~TIM_CCMR1_IC1F;
 8004b7a:	24f0      	movs	r4, #240	; 0xf0
      TIM_TI1_ConfigInputStage(htim->Instance,
 8004b7c:	68c9      	ldr	r1, [r1, #12]
  TIMx->CCER &= ~TIM_CCER_CC1E;
 8004b7e:	621a      	str	r2, [r3, #32]
  tmpccmr1 = TIMx->CCMR1;
 8004b80:	699a      	ldr	r2, [r3, #24]
  tmpccmr1 &= ~TIM_CCMR1_IC1F;
 8004b82:	43a2      	bics	r2, r4
 8004b84:	0014      	movs	r4, r2
  tmpccmr1 |= (TIM_ICFilter << 4U);
 8004b86:	010a      	lsls	r2, r1, #4
  tmpccer &= ~(TIM_CCER_CC1P | TIM_CCER_CC1NP);
 8004b88:	210a      	movs	r1, #10
 8004b8a:	438f      	bics	r7, r1
 8004b8c:	0039      	movs	r1, r7
  tmpccmr1 |= (TIM_ICFilter << 4U);
 8004b8e:	4322      	orrs	r2, r4
  tmpccer |= TIM_ICPolarity;
 8004b90:	4301      	orrs	r1, r0
  TIMx->CCMR1 = tmpccmr1;
 8004b92:	619a      	str	r2, [r3, #24]
  TIMx->CCER = tmpccer;
 8004b94:	6219      	str	r1, [r3, #32]
  tmpsmcr &= ~TIM_SMCR_TS;
 8004b96:	2170      	movs	r1, #112	; 0x70
  tmpsmcr = TIMx->SMCR;
 8004b98:	689a      	ldr	r2, [r3, #8]
  tmpsmcr &= ~TIM_SMCR_TS;
 8004b9a:	438a      	bics	r2, r1
 8004b9c:	0011      	movs	r1, r2
  tmpsmcr |= (InputTriggerSource | TIM_SLAVEMODE_EXTERNAL1);
 8004b9e:	2247      	movs	r2, #71	; 0x47
 8004ba0:	e7bb      	b.n	8004b1a <HAL_TIM_ConfigClockSource+0xc6>
 8004ba2:	46c0      	nop			; (mov r8, r8)
 8004ba4:	ffff0088 	.word	0xffff0088
 8004ba8:	ffff00ff 	.word	0xffff00ff
 8004bac:	ffff0fff 	.word	0xffff0fff

08004bb0 <HAL_TIM_OC_DelayElapsedCallback>:
 8004bb0:	4770      	bx	lr

08004bb2 <HAL_TIM_IC_CaptureCallback>:
 8004bb2:	4770      	bx	lr

08004bb4 <HAL_TIM_PWM_PulseFinishedCallback>:
 8004bb4:	4770      	bx	lr

08004bb6 <HAL_TIM_TriggerCallback>:
 8004bb6:	4770      	bx	lr

08004bb8 <HAL_TIM_IRQHandler>:
  if (__HAL_TIM_GET_FLAG(htim, TIM_FLAG_CC1) != RESET)
 8004bb8:	2202      	movs	r2, #2
 8004bba:	6803      	ldr	r3, [r0, #0]
{
 8004bbc:	b510      	push	{r4, lr}
  if (__HAL_TIM_GET_FLAG(htim, TIM_FLAG_CC1) != RESET)
 8004bbe:	6919      	ldr	r1, [r3, #16]
{
 8004bc0:	0004      	movs	r4, r0
  if (__HAL_TIM_GET_FLAG(htim, TIM_FLAG_CC1) != RESET)
 8004bc2:	4211      	tst	r1, r2
 8004bc4:	d00d      	beq.n	8004be2 <HAL_TIM_IRQHandler+0x2a>
    if (__HAL_TIM_GET_IT_SOURCE(htim, TIM_IT_CC1) != RESET)
 8004bc6:	68d9      	ldr	r1, [r3, #12]
 8004bc8:	4211      	tst	r1, r2
 8004bca:	d00a      	beq.n	8004be2 <HAL_TIM_IRQHandler+0x2a>
        __HAL_TIM_CLEAR_IT(htim, TIM_IT_CC1);
 8004bcc:	3a05      	subs	r2, #5
 8004bce:	611a      	str	r2, [r3, #16]
        htim->Channel = HAL_TIM_ACTIVE_CHANNEL_1;
 8004bd0:	3204      	adds	r2, #4
 8004bd2:	7602      	strb	r2, [r0, #24]
        if ((htim->Instance->CCMR1 & TIM_CCMR1_CC1S) != 0x00U)
 8004bd4:	699b      	ldr	r3, [r3, #24]
 8004bd6:	079b      	lsls	r3, r3, #30
 8004bd8:	d05e      	beq.n	8004c98 <HAL_TIM_IRQHandler+0xe0>
          HAL_TIM_IC_CaptureCallback(htim);
 8004bda:	f7ff ffea 	bl	8004bb2 <HAL_TIM_IC_CaptureCallback>
        htim->Channel = HAL_TIM_ACTIVE_CHANNEL_CLEARED;
 8004bde:	2300      	movs	r3, #0
 8004be0:	7623      	strb	r3, [r4, #24]
  if (__HAL_TIM_GET_FLAG(htim, TIM_FLAG_CC2) != RESET)
 8004be2:	2204      	movs	r2, #4
 8004be4:	6823      	ldr	r3, [r4, #0]
 8004be6:	6919      	ldr	r1, [r3, #16]
 8004be8:	4211      	tst	r1, r2
 8004bea:	d010      	beq.n	8004c0e <HAL_TIM_IRQHandler+0x56>
    if (__HAL_TIM_GET_IT_SOURCE(htim, TIM_IT_CC2) != RESET)
 8004bec:	68d9      	ldr	r1, [r3, #12]
 8004bee:	4211      	tst	r1, r2
 8004bf0:	d00d      	beq.n	8004c0e <HAL_TIM_IRQHandler+0x56>
      __HAL_TIM_CLEAR_IT(htim, TIM_IT_CC2);
 8004bf2:	3a09      	subs	r2, #9
 8004bf4:	611a      	str	r2, [r3, #16]
      htim->Channel = HAL_TIM_ACTIVE_CHANNEL_2;
 8004bf6:	3207      	adds	r2, #7
 8004bf8:	7622      	strb	r2, [r4, #24]
      if ((htim->Instance->CCMR1 & TIM_CCMR1_CC2S) != 0x00U)
 8004bfa:	699a      	ldr	r2, [r3, #24]
 8004bfc:	23c0      	movs	r3, #192	; 0xc0
 8004bfe:	009b      	lsls	r3, r3, #2
        HAL_TIM_IC_CaptureCallback(htim);
 8004c00:	0020      	movs	r0, r4
      if ((htim->Instance->CCMR1 & TIM_CCMR1_CC2S) != 0x00U)
 8004c02:	421a      	tst	r2, r3
 8004c04:	d04e      	beq.n	8004ca4 <HAL_TIM_IRQHandler+0xec>
        HAL_TIM_IC_CaptureCallback(htim);
 8004c06:	f7ff ffd4 	bl	8004bb2 <HAL_TIM_IC_CaptureCallback>
      htim->Channel = HAL_TIM_ACTIVE_CHANNEL_CLEARED;
 8004c0a:	2300      	movs	r3, #0
 8004c0c:	7623      	strb	r3, [r4, #24]
  if (__HAL_TIM_GET_FLAG(htim, TIM_FLAG_CC3) != RESET)
 8004c0e:	2208      	movs	r2, #8
 8004c10:	6823      	ldr	r3, [r4, #0]
 8004c12:	6919      	ldr	r1, [r3, #16]
 8004c14:	4211      	tst	r1, r2
 8004c16:	d00e      	beq.n	8004c36 <HAL_TIM_IRQHandler+0x7e>
    if (__HAL_TIM_GET_IT_SOURCE(htim, TIM_IT_CC3) != RESET)
 8004c18:	68d9      	ldr	r1, [r3, #12]
 8004c1a:	4211      	tst	r1, r2
 8004c1c:	d00b      	beq.n	8004c36 <HAL_TIM_IRQHandler+0x7e>
      __HAL_TIM_CLEAR_IT(htim, TIM_IT_CC3);
 8004c1e:	3a11      	subs	r2, #17
 8004c20:	611a      	str	r2, [r3, #16]
      htim->Channel = HAL_TIM_ACTIVE_CHANNEL_3;
 8004c22:	320d      	adds	r2, #13
 8004c24:	7622      	strb	r2, [r4, #24]
      if ((htim->Instance->CCMR2 & TIM_CCMR2_CC3S) != 0x00U)
 8004c26:	69db      	ldr	r3, [r3, #28]
        HAL_TIM_IC_CaptureCallback(htim);
 8004c28:	0020      	movs	r0, r4
      if ((htim->Instance->CCMR2 & TIM_CCMR2_CC3S) != 0x00U)
 8004c2a:	079b      	lsls	r3, r3, #30
 8004c2c:	d040      	beq.n	8004cb0 <HAL_TIM_IRQHandler+0xf8>
        HAL_TIM_IC_CaptureCallback(htim);
 8004c2e:	f7ff ffc0 	bl	8004bb2 <HAL_TIM_IC_CaptureCallback>
      htim->Channel = HAL_TIM_ACTIVE_CHANNEL_CLEARED;
 8004c32:	2300      	movs	r3, #0
 8004c34:	7623      	strb	r3, [r4, #24]
  if (__HAL_TIM_GET_FLAG(htim, TIM_FLAG_CC4) != RESET)
 8004c36:	2210      	movs	r2, #16
 8004c38:	6823      	ldr	r3, [r4, #0]
 8004c3a:	6919      	ldr	r1, [r3, #16]
 8004c3c:	4211      	tst	r1, r2
 8004c3e:	d010      	beq.n	8004c62 <HAL_TIM_IRQHandler+0xaa>
    if (__HAL_TIM_GET_IT_SOURCE(htim, TIM_IT_CC4) != RESET)
 8004c40:	68d9      	ldr	r1, [r3, #12]
 8004c42:	4211      	tst	r1, r2
 8004c44:	d00d      	beq.n	8004c62 <HAL_TIM_IRQHandler+0xaa>
      __HAL_TIM_CLEAR_IT(htim, TIM_IT_CC4);
 8004c46:	3a21      	subs	r2, #33	; 0x21
 8004c48:	611a      	str	r2, [r3, #16]
      htim->Channel = HAL_TIM_ACTIVE_CHANNEL_4;
 8004c4a:	3219      	adds	r2, #25
 8004c4c:	7622      	strb	r2, [r4, #24]
      if ((htim->Instance->CCMR2 & TIM_CCMR2_CC4S) != 0x00U)
 8004c4e:	69da      	ldr	r2, [r3, #28]
 8004c50:	23c0      	movs	r3, #192	; 0xc0
 8004c52:	009b      	lsls	r3, r3, #2
        HAL_TIM_IC_CaptureCallback(htim);
 8004c54:	0020      	movs	r0, r4
      if ((htim->Instance->CCMR2 & TIM_CCMR2_CC4S) != 0x00U)
 8004c56:	421a      	tst	r2, r3
 8004c58:	d030      	beq.n	8004cbc <HAL_TIM_IRQHandler+0x104>
        HAL_TIM_IC_CaptureCallback(htim);
 8004c5a:	f7ff ffaa 	bl	8004bb2 <HAL_TIM_IC_CaptureCallback>
      htim->Channel = HAL_TIM_ACTIVE_CHANNEL_CLEARED;
 8004c5e:	2300      	movs	r3, #0
 8004c60:	7623      	strb	r3, [r4, #24]
  if (__HAL_TIM_GET_FLAG(htim, TIM_FLAG_UPDATE) != RESET)
 8004c62:	2201      	movs	r2, #1
 8004c64:	6823      	ldr	r3, [r4, #0]
 8004c66:	6919      	ldr	r1, [r3, #16]
 8004c68:	4211      	tst	r1, r2
 8004c6a:	d007      	beq.n	8004c7c <HAL_TIM_IRQHandler+0xc4>
    if (__HAL_TIM_GET_IT_SOURCE(htim, TIM_IT_UPDATE) != RESET)
 8004c6c:	68d9      	ldr	r1, [r3, #12]
 8004c6e:	4211      	tst	r1, r2
 8004c70:	d004      	beq.n	8004c7c <HAL_TIM_IRQHandler+0xc4>
      __HAL_TIM_CLEAR_IT(htim, TIM_IT_UPDATE);
 8004c72:	3a03      	subs	r2, #3
      HAL_TIM_PeriodElapsedCallback(htim);
 8004c74:	0020      	movs	r0, r4
      __HAL_TIM_CLEAR_IT(htim, TIM_IT_UPDATE);
 8004c76:	611a      	str	r2, [r3, #16]
      HAL_TIM_PeriodElapsedCallback(htim);
 8004c78:	f7fb fde2 	bl	8000840 <HAL_TIM_PeriodElapsedCallback>
  if (__HAL_TIM_GET_FLAG(htim, TIM_FLAG_TRIGGER) != RESET)
 8004c7c:	2240      	movs	r2, #64	; 0x40
 8004c7e:	6823      	ldr	r3, [r4, #0]
 8004c80:	6919      	ldr	r1, [r3, #16]
 8004c82:	4211      	tst	r1, r2
 8004c84:	d007      	beq.n	8004c96 <HAL_TIM_IRQHandler+0xde>
    if (__HAL_TIM_GET_IT_SOURCE(htim, TIM_IT_TRIGGER) != RESET)
 8004c86:	68d9      	ldr	r1, [r3, #12]
 8004c88:	4211      	tst	r1, r2
 8004c8a:	d004      	beq.n	8004c96 <HAL_TIM_IRQHandler+0xde>
      __HAL_TIM_CLEAR_IT(htim, TIM_IT_TRIGGER);
 8004c8c:	3a81      	subs	r2, #129	; 0x81
      HAL_TIM_TriggerCallback(htim);
 8004c8e:	0020      	movs	r0, r4
      __HAL_TIM_CLEAR_IT(htim, TIM_IT_TRIGGER);
 8004c90:	611a      	str	r2, [r3, #16]
      HAL_TIM_TriggerCallback(htim);
 8004c92:	f7ff ff90 	bl	8004bb6 <HAL_TIM_TriggerCallback>
}
 8004c96:	bd10      	pop	{r4, pc}
          HAL_TIM_OC_DelayElapsedCallback(htim);
 8004c98:	f7ff ff8a 	bl	8004bb0 <HAL_TIM_OC_DelayElapsedCallback>
          HAL_TIM_PWM_PulseFinishedCallback(htim);
 8004c9c:	0020      	movs	r0, r4
 8004c9e:	f7ff ff89 	bl	8004bb4 <HAL_TIM_PWM_PulseFinishedCallback>
 8004ca2:	e79c      	b.n	8004bde <HAL_TIM_IRQHandler+0x26>
        HAL_TIM_OC_DelayElapsedCallback(htim);
 8004ca4:	f7ff ff84 	bl	8004bb0 <HAL_TIM_OC_DelayElapsedCallback>
        HAL_TIM_PWM_PulseFinishedCallback(htim);
 8004ca8:	0020      	movs	r0, r4
 8004caa:	f7ff ff83 	bl	8004bb4 <HAL_TIM_PWM_PulseFinishedCallback>
 8004cae:	e7ac      	b.n	8004c0a <HAL_TIM_IRQHandler+0x52>
        HAL_TIM_OC_DelayElapsedCallback(htim);
 8004cb0:	f7ff ff7e 	bl	8004bb0 <HAL_TIM_OC_DelayElapsedCallback>
        HAL_TIM_PWM_PulseFinishedCallback(htim);
 8004cb4:	0020      	movs	r0, r4
 8004cb6:	f7ff ff7d 	bl	8004bb4 <HAL_TIM_PWM_PulseFinishedCallback>
 8004cba:	e7ba      	b.n	8004c32 <HAL_TIM_IRQHandler+0x7a>
        HAL_TIM_OC_DelayElapsedCallback(htim);
 8004cbc:	f7ff ff78 	bl	8004bb0 <HAL_TIM_OC_DelayElapsedCallback>
        HAL_TIM_PWM_PulseFinishedCallback(htim);
 8004cc0:	0020      	movs	r0, r4
 8004cc2:	f7ff ff77 	bl	8004bb4 <HAL_TIM_PWM_PulseFinishedCallback>
 8004cc6:	e7ca      	b.n	8004c5e <HAL_TIM_IRQHandler+0xa6>

08004cc8 <HAL_TIMEx_MasterConfigSynchronization>:
  *         mode.
  * @retval HAL status
  */
HAL_StatusTypeDef HAL_TIMEx_MasterConfigSynchronization(TIM_HandleTypeDef *htim,
                                                        TIM_MasterConfigTypeDef *sMasterConfig)
{
 8004cc8:	b570      	push	{r4, r5, r6, lr}
  assert_param(IS_TIM_MASTER_INSTANCE(htim->Instance));
  assert_param(IS_TIM_TRGO_SOURCE(sMasterConfig->MasterOutputTrigger));
  assert_param(IS_TIM_MSM_STATE(sMasterConfig->MasterSlaveMode));

  /* Check input state */
  __HAL_LOCK(htim);
 8004cca:	0004      	movs	r4, r0
 8004ccc:	2202      	movs	r2, #2
 8004cce:	3438      	adds	r4, #56	; 0x38
 8004cd0:	7825      	ldrb	r5, [r4, #0]
{
 8004cd2:	0003      	movs	r3, r0
  __HAL_LOCK(htim);
 8004cd4:	0010      	movs	r0, r2
 8004cd6:	2d01      	cmp	r5, #1
 8004cd8:	d01d      	beq.n	8004d16 <HAL_TIMEx_MasterConfigSynchronization+0x4e>

  /* Change the handler state */
  htim->State = HAL_TIM_STATE_BUSY;
 8004cda:	001d      	movs	r5, r3

  /* Get the TIMx SMCR register value */
  tmpsmcr = htim->Instance->SMCR;

  /* Reset the MMS Bits */
  tmpcr2 &= ~TIM_CR2_MMS;
 8004cdc:	2670      	movs	r6, #112	; 0x70
  htim->State = HAL_TIM_STATE_BUSY;
 8004cde:	3539      	adds	r5, #57	; 0x39
 8004ce0:	702a      	strb	r2, [r5, #0]
  tmpcr2 = htim->Instance->CR2;
 8004ce2:	681b      	ldr	r3, [r3, #0]
 8004ce4:	6858      	ldr	r0, [r3, #4]
  tmpsmcr = htim->Instance->SMCR;
 8004ce6:	689a      	ldr	r2, [r3, #8]
  tmpcr2 &= ~TIM_CR2_MMS;
 8004ce8:	43b0      	bics	r0, r6
  /* Select the TRGO source */
  tmpcr2 |=  sMasterConfig->MasterOutputTrigger;
 8004cea:	680e      	ldr	r6, [r1, #0]
 8004cec:	4330      	orrs	r0, r6

  /* Update TIMx CR2 */
  htim->Instance->CR2 = tmpcr2;
 8004cee:	6058      	str	r0, [r3, #4]

  if (IS_TIM_SLAVE_INSTANCE(htim->Instance))
 8004cf0:	2080      	movs	r0, #128	; 0x80
 8004cf2:	05c0      	lsls	r0, r0, #23
 8004cf4:	4283      	cmp	r3, r0
 8004cf6:	d005      	beq.n	8004d04 <HAL_TIMEx_MasterConfigSynchronization+0x3c>
 8004cf8:	4807      	ldr	r0, [pc, #28]	; (8004d18 <HAL_TIMEx_MasterConfigSynchronization+0x50>)
 8004cfa:	4283      	cmp	r3, r0
 8004cfc:	d002      	beq.n	8004d04 <HAL_TIMEx_MasterConfigSynchronization+0x3c>
 8004cfe:	4807      	ldr	r0, [pc, #28]	; (8004d1c <HAL_TIMEx_MasterConfigSynchronization+0x54>)
 8004d00:	4283      	cmp	r3, r0
 8004d02:	d104      	bne.n	8004d0e <HAL_TIMEx_MasterConfigSynchronization+0x46>
  {
    /* Reset the MSM Bit */
    tmpsmcr &= ~TIM_SMCR_MSM;
 8004d04:	2080      	movs	r0, #128	; 0x80
    /* Set master mode */
    tmpsmcr |= sMasterConfig->MasterSlaveMode;
 8004d06:	6849      	ldr	r1, [r1, #4]
    tmpsmcr &= ~TIM_SMCR_MSM;
 8004d08:	4382      	bics	r2, r0
    tmpsmcr |= sMasterConfig->MasterSlaveMode;
 8004d0a:	430a      	orrs	r2, r1

    /* Update TIMx SMCR */
    htim->Instance->SMCR = tmpsmcr;
 8004d0c:	609a      	str	r2, [r3, #8]
  }

  /* Change the htim state */
  htim->State = HAL_TIM_STATE_READY;
 8004d0e:	2301      	movs	r3, #1

  __HAL_UNLOCK(htim);
 8004d10:	2000      	movs	r0, #0
  htim->State = HAL_TIM_STATE_READY;
 8004d12:	702b      	strb	r3, [r5, #0]
  __HAL_UNLOCK(htim);
 8004d14:	7020      	strb	r0, [r4, #0]

  return HAL_OK;
}
 8004d16:	bd70      	pop	{r4, r5, r6, pc}
 8004d18:	40010800 	.word	0x40010800
 8004d1c:	40011400 	.word	0x40011400

08004d20 <calloc>:
 8004d20:	b510      	push	{r4, lr}
 8004d22:	4b03      	ldr	r3, [pc, #12]	; (8004d30 <calloc+0x10>)
 8004d24:	000a      	movs	r2, r1
 8004d26:	0001      	movs	r1, r0
 8004d28:	6818      	ldr	r0, [r3, #0]
 8004d2a:	f000 f85b 	bl	8004de4 <_calloc_r>
 8004d2e:	bd10      	pop	{r4, pc}
 8004d30:	2000004c 	.word	0x2000004c

08004d34 <__errno>:
 8004d34:	4b01      	ldr	r3, [pc, #4]	; (8004d3c <__errno+0x8>)
 8004d36:	6818      	ldr	r0, [r3, #0]
 8004d38:	4770      	bx	lr
 8004d3a:	46c0      	nop			; (mov r8, r8)
 8004d3c:	2000004c 	.word	0x2000004c

08004d40 <__libc_init_array>:
 8004d40:	b570      	push	{r4, r5, r6, lr}
 8004d42:	2600      	movs	r6, #0
 8004d44:	4d0c      	ldr	r5, [pc, #48]	; (8004d78 <__libc_init_array+0x38>)
 8004d46:	4c0d      	ldr	r4, [pc, #52]	; (8004d7c <__libc_init_array+0x3c>)
 8004d48:	1b64      	subs	r4, r4, r5
 8004d4a:	10a4      	asrs	r4, r4, #2
 8004d4c:	42a6      	cmp	r6, r4
 8004d4e:	d109      	bne.n	8004d64 <__libc_init_array+0x24>
 8004d50:	2600      	movs	r6, #0
 8004d52:	f000 fcbf 	bl	80056d4 <_init>
 8004d56:	4d0a      	ldr	r5, [pc, #40]	; (8004d80 <__libc_init_array+0x40>)
 8004d58:	4c0a      	ldr	r4, [pc, #40]	; (8004d84 <__libc_init_array+0x44>)
 8004d5a:	1b64      	subs	r4, r4, r5
 8004d5c:	10a4      	asrs	r4, r4, #2
 8004d5e:	42a6      	cmp	r6, r4
 8004d60:	d105      	bne.n	8004d6e <__libc_init_array+0x2e>
 8004d62:	bd70      	pop	{r4, r5, r6, pc}
 8004d64:	00b3      	lsls	r3, r6, #2
 8004d66:	58eb      	ldr	r3, [r5, r3]
 8004d68:	4798      	blx	r3
 8004d6a:	3601      	adds	r6, #1
 8004d6c:	e7ee      	b.n	8004d4c <__libc_init_array+0xc>
 8004d6e:	00b3      	lsls	r3, r6, #2
 8004d70:	58eb      	ldr	r3, [r5, r3]
 8004d72:	4798      	blx	r3
 8004d74:	3601      	adds	r6, #1
 8004d76:	e7f2      	b.n	8004d5e <__libc_init_array+0x1e>
 8004d78:	08006394 	.word	0x08006394
 8004d7c:	08006394 	.word	0x08006394
 8004d80:	08006394 	.word	0x08006394
 8004d84:	08006398 	.word	0x08006398

08004d88 <free>:
 8004d88:	b510      	push	{r4, lr}
 8004d8a:	4b03      	ldr	r3, [pc, #12]	; (8004d98 <free+0x10>)
 8004d8c:	0001      	movs	r1, r0
 8004d8e:	6818      	ldr	r0, [r3, #0]
 8004d90:	f000 f854 	bl	8004e3c <_free_r>
 8004d94:	bd10      	pop	{r4, pc}
 8004d96:	46c0      	nop			; (mov r8, r8)
 8004d98:	2000004c 	.word	0x2000004c

08004d9c <memcpy>:
 8004d9c:	2300      	movs	r3, #0
 8004d9e:	b510      	push	{r4, lr}
 8004da0:	429a      	cmp	r2, r3
 8004da2:	d100      	bne.n	8004da6 <memcpy+0xa>
 8004da4:	bd10      	pop	{r4, pc}
 8004da6:	5ccc      	ldrb	r4, [r1, r3]
 8004da8:	54c4      	strb	r4, [r0, r3]
 8004daa:	3301      	adds	r3, #1
 8004dac:	e7f8      	b.n	8004da0 <memcpy+0x4>

08004dae <memmove>:
 8004dae:	b510      	push	{r4, lr}
 8004db0:	4288      	cmp	r0, r1
 8004db2:	d902      	bls.n	8004dba <memmove+0xc>
 8004db4:	188b      	adds	r3, r1, r2
 8004db6:	4298      	cmp	r0, r3
 8004db8:	d303      	bcc.n	8004dc2 <memmove+0x14>
 8004dba:	2300      	movs	r3, #0
 8004dbc:	e007      	b.n	8004dce <memmove+0x20>
 8004dbe:	5c8b      	ldrb	r3, [r1, r2]
 8004dc0:	5483      	strb	r3, [r0, r2]
 8004dc2:	3a01      	subs	r2, #1
 8004dc4:	d2fb      	bcs.n	8004dbe <memmove+0x10>
 8004dc6:	bd10      	pop	{r4, pc}
 8004dc8:	5ccc      	ldrb	r4, [r1, r3]
 8004dca:	54c4      	strb	r4, [r0, r3]
 8004dcc:	3301      	adds	r3, #1
 8004dce:	429a      	cmp	r2, r3
 8004dd0:	d1fa      	bne.n	8004dc8 <memmove+0x1a>
 8004dd2:	e7f8      	b.n	8004dc6 <memmove+0x18>

08004dd4 <memset>:
 8004dd4:	0003      	movs	r3, r0
 8004dd6:	1882      	adds	r2, r0, r2
 8004dd8:	4293      	cmp	r3, r2
 8004dda:	d100      	bne.n	8004dde <memset+0xa>
 8004ddc:	4770      	bx	lr
 8004dde:	7019      	strb	r1, [r3, #0]
 8004de0:	3301      	adds	r3, #1
 8004de2:	e7f9      	b.n	8004dd8 <memset+0x4>

08004de4 <_calloc_r>:
 8004de4:	b570      	push	{r4, r5, r6, lr}
 8004de6:	0c13      	lsrs	r3, r2, #16
 8004de8:	0c0d      	lsrs	r5, r1, #16
 8004dea:	d11e      	bne.n	8004e2a <_calloc_r+0x46>
 8004dec:	2b00      	cmp	r3, #0
 8004dee:	d10c      	bne.n	8004e0a <_calloc_r+0x26>
 8004df0:	b289      	uxth	r1, r1
 8004df2:	b294      	uxth	r4, r2
 8004df4:	434c      	muls	r4, r1
 8004df6:	0021      	movs	r1, r4
 8004df8:	f000 f88c 	bl	8004f14 <_malloc_r>
 8004dfc:	1e05      	subs	r5, r0, #0
 8004dfe:	d01b      	beq.n	8004e38 <_calloc_r+0x54>
 8004e00:	0022      	movs	r2, r4
 8004e02:	2100      	movs	r1, #0
 8004e04:	f7ff ffe6 	bl	8004dd4 <memset>
 8004e08:	e016      	b.n	8004e38 <_calloc_r+0x54>
 8004e0a:	1c1d      	adds	r5, r3, #0
 8004e0c:	1c0b      	adds	r3, r1, #0
 8004e0e:	b292      	uxth	r2, r2
 8004e10:	b289      	uxth	r1, r1
 8004e12:	b29c      	uxth	r4, r3
 8004e14:	4351      	muls	r1, r2
 8004e16:	b2ab      	uxth	r3, r5
 8004e18:	4363      	muls	r3, r4
 8004e1a:	0c0c      	lsrs	r4, r1, #16
 8004e1c:	191c      	adds	r4, r3, r4
 8004e1e:	0c22      	lsrs	r2, r4, #16
 8004e20:	d107      	bne.n	8004e32 <_calloc_r+0x4e>
 8004e22:	0424      	lsls	r4, r4, #16
 8004e24:	b289      	uxth	r1, r1
 8004e26:	430c      	orrs	r4, r1
 8004e28:	e7e5      	b.n	8004df6 <_calloc_r+0x12>
 8004e2a:	2b00      	cmp	r3, #0
 8004e2c:	d101      	bne.n	8004e32 <_calloc_r+0x4e>
 8004e2e:	1c13      	adds	r3, r2, #0
 8004e30:	e7ed      	b.n	8004e0e <_calloc_r+0x2a>
 8004e32:	230c      	movs	r3, #12
 8004e34:	2500      	movs	r5, #0
 8004e36:	6003      	str	r3, [r0, #0]
 8004e38:	0028      	movs	r0, r5
 8004e3a:	bd70      	pop	{r4, r5, r6, pc}

08004e3c <_free_r>:
 8004e3c:	b570      	push	{r4, r5, r6, lr}
 8004e3e:	0005      	movs	r5, r0
 8004e40:	2900      	cmp	r1, #0
 8004e42:	d010      	beq.n	8004e66 <_free_r+0x2a>
 8004e44:	1f0c      	subs	r4, r1, #4
 8004e46:	6823      	ldr	r3, [r4, #0]
 8004e48:	2b00      	cmp	r3, #0
 8004e4a:	da00      	bge.n	8004e4e <_free_r+0x12>
 8004e4c:	18e4      	adds	r4, r4, r3
 8004e4e:	0028      	movs	r0, r5
 8004e50:	f000 f908 	bl	8005064 <__malloc_lock>
 8004e54:	4a1d      	ldr	r2, [pc, #116]	; (8004ecc <_free_r+0x90>)
 8004e56:	6813      	ldr	r3, [r2, #0]
 8004e58:	2b00      	cmp	r3, #0
 8004e5a:	d105      	bne.n	8004e68 <_free_r+0x2c>
 8004e5c:	6063      	str	r3, [r4, #4]
 8004e5e:	6014      	str	r4, [r2, #0]
 8004e60:	0028      	movs	r0, r5
 8004e62:	f000 f907 	bl	8005074 <__malloc_unlock>
 8004e66:	bd70      	pop	{r4, r5, r6, pc}
 8004e68:	42a3      	cmp	r3, r4
 8004e6a:	d908      	bls.n	8004e7e <_free_r+0x42>
 8004e6c:	6821      	ldr	r1, [r4, #0]
 8004e6e:	1860      	adds	r0, r4, r1
 8004e70:	4283      	cmp	r3, r0
 8004e72:	d1f3      	bne.n	8004e5c <_free_r+0x20>
 8004e74:	6818      	ldr	r0, [r3, #0]
 8004e76:	685b      	ldr	r3, [r3, #4]
 8004e78:	1841      	adds	r1, r0, r1
 8004e7a:	6021      	str	r1, [r4, #0]
 8004e7c:	e7ee      	b.n	8004e5c <_free_r+0x20>
 8004e7e:	001a      	movs	r2, r3
 8004e80:	685b      	ldr	r3, [r3, #4]
 8004e82:	2b00      	cmp	r3, #0
 8004e84:	d001      	beq.n	8004e8a <_free_r+0x4e>
 8004e86:	42a3      	cmp	r3, r4
 8004e88:	d9f9      	bls.n	8004e7e <_free_r+0x42>
 8004e8a:	6811      	ldr	r1, [r2, #0]
 8004e8c:	1850      	adds	r0, r2, r1
 8004e8e:	42a0      	cmp	r0, r4
 8004e90:	d10b      	bne.n	8004eaa <_free_r+0x6e>
 8004e92:	6820      	ldr	r0, [r4, #0]
 8004e94:	1809      	adds	r1, r1, r0
 8004e96:	1850      	adds	r0, r2, r1
 8004e98:	6011      	str	r1, [r2, #0]
 8004e9a:	4283      	cmp	r3, r0
 8004e9c:	d1e0      	bne.n	8004e60 <_free_r+0x24>
 8004e9e:	6818      	ldr	r0, [r3, #0]
 8004ea0:	685b      	ldr	r3, [r3, #4]
 8004ea2:	1841      	adds	r1, r0, r1
 8004ea4:	6011      	str	r1, [r2, #0]
 8004ea6:	6053      	str	r3, [r2, #4]
 8004ea8:	e7da      	b.n	8004e60 <_free_r+0x24>
 8004eaa:	42a0      	cmp	r0, r4
 8004eac:	d902      	bls.n	8004eb4 <_free_r+0x78>
 8004eae:	230c      	movs	r3, #12
 8004eb0:	602b      	str	r3, [r5, #0]
 8004eb2:	e7d5      	b.n	8004e60 <_free_r+0x24>
 8004eb4:	6821      	ldr	r1, [r4, #0]
 8004eb6:	1860      	adds	r0, r4, r1
 8004eb8:	4283      	cmp	r3, r0
 8004eba:	d103      	bne.n	8004ec4 <_free_r+0x88>
 8004ebc:	6818      	ldr	r0, [r3, #0]
 8004ebe:	685b      	ldr	r3, [r3, #4]
 8004ec0:	1841      	adds	r1, r0, r1
 8004ec2:	6021      	str	r1, [r4, #0]
 8004ec4:	6063      	str	r3, [r4, #4]
 8004ec6:	6054      	str	r4, [r2, #4]
 8004ec8:	e7ca      	b.n	8004e60 <_free_r+0x24>
 8004eca:	46c0      	nop			; (mov r8, r8)
 8004ecc:	20000cf8 	.word	0x20000cf8

08004ed0 <sbrk_aligned>:
 8004ed0:	b570      	push	{r4, r5, r6, lr}
 8004ed2:	4e0f      	ldr	r6, [pc, #60]	; (8004f10 <sbrk_aligned+0x40>)
 8004ed4:	000d      	movs	r5, r1
 8004ed6:	6831      	ldr	r1, [r6, #0]
 8004ed8:	0004      	movs	r4, r0
 8004eda:	2900      	cmp	r1, #0
 8004edc:	d102      	bne.n	8004ee4 <sbrk_aligned+0x14>
 8004ede:	f000 f88f 	bl	8005000 <_sbrk_r>
 8004ee2:	6030      	str	r0, [r6, #0]
 8004ee4:	0029      	movs	r1, r5
 8004ee6:	0020      	movs	r0, r4
 8004ee8:	f000 f88a 	bl	8005000 <_sbrk_r>
 8004eec:	1c43      	adds	r3, r0, #1
 8004eee:	d00a      	beq.n	8004f06 <sbrk_aligned+0x36>
 8004ef0:	2303      	movs	r3, #3
 8004ef2:	1cc5      	adds	r5, r0, #3
 8004ef4:	439d      	bics	r5, r3
 8004ef6:	42a8      	cmp	r0, r5
 8004ef8:	d007      	beq.n	8004f0a <sbrk_aligned+0x3a>
 8004efa:	1a29      	subs	r1, r5, r0
 8004efc:	0020      	movs	r0, r4
 8004efe:	f000 f87f 	bl	8005000 <_sbrk_r>
 8004f02:	1c43      	adds	r3, r0, #1
 8004f04:	d101      	bne.n	8004f0a <sbrk_aligned+0x3a>
 8004f06:	2501      	movs	r5, #1
 8004f08:	426d      	negs	r5, r5
 8004f0a:	0028      	movs	r0, r5
 8004f0c:	bd70      	pop	{r4, r5, r6, pc}
 8004f0e:	46c0      	nop			; (mov r8, r8)
 8004f10:	20000cfc 	.word	0x20000cfc

08004f14 <_malloc_r>:
 8004f14:	b5f7      	push	{r0, r1, r2, r4, r5, r6, r7, lr}
 8004f16:	2203      	movs	r2, #3
 8004f18:	1ccb      	adds	r3, r1, #3
 8004f1a:	4393      	bics	r3, r2
 8004f1c:	3308      	adds	r3, #8
 8004f1e:	0006      	movs	r6, r0
 8004f20:	001f      	movs	r7, r3
 8004f22:	2b0c      	cmp	r3, #12
 8004f24:	d232      	bcs.n	8004f8c <_malloc_r+0x78>
 8004f26:	270c      	movs	r7, #12
 8004f28:	42b9      	cmp	r1, r7
 8004f2a:	d831      	bhi.n	8004f90 <_malloc_r+0x7c>
 8004f2c:	0030      	movs	r0, r6
 8004f2e:	f000 f899 	bl	8005064 <__malloc_lock>
 8004f32:	4d32      	ldr	r5, [pc, #200]	; (8004ffc <_malloc_r+0xe8>)
 8004f34:	682b      	ldr	r3, [r5, #0]
 8004f36:	001c      	movs	r4, r3
 8004f38:	2c00      	cmp	r4, #0
 8004f3a:	d12e      	bne.n	8004f9a <_malloc_r+0x86>
 8004f3c:	0039      	movs	r1, r7
 8004f3e:	0030      	movs	r0, r6
 8004f40:	f7ff ffc6 	bl	8004ed0 <sbrk_aligned>
 8004f44:	0004      	movs	r4, r0
 8004f46:	1c43      	adds	r3, r0, #1
 8004f48:	d11e      	bne.n	8004f88 <_malloc_r+0x74>
 8004f4a:	682c      	ldr	r4, [r5, #0]
 8004f4c:	0025      	movs	r5, r4
 8004f4e:	2d00      	cmp	r5, #0
 8004f50:	d14a      	bne.n	8004fe8 <_malloc_r+0xd4>
 8004f52:	6823      	ldr	r3, [r4, #0]
 8004f54:	0029      	movs	r1, r5
 8004f56:	18e3      	adds	r3, r4, r3
 8004f58:	0030      	movs	r0, r6
 8004f5a:	9301      	str	r3, [sp, #4]
 8004f5c:	f000 f850 	bl	8005000 <_sbrk_r>
 8004f60:	9b01      	ldr	r3, [sp, #4]
 8004f62:	4283      	cmp	r3, r0
 8004f64:	d143      	bne.n	8004fee <_malloc_r+0xda>
 8004f66:	6823      	ldr	r3, [r4, #0]
 8004f68:	3703      	adds	r7, #3
 8004f6a:	1aff      	subs	r7, r7, r3
 8004f6c:	2303      	movs	r3, #3
 8004f6e:	439f      	bics	r7, r3
 8004f70:	3708      	adds	r7, #8
 8004f72:	2f0c      	cmp	r7, #12
 8004f74:	d200      	bcs.n	8004f78 <_malloc_r+0x64>
 8004f76:	270c      	movs	r7, #12
 8004f78:	0039      	movs	r1, r7
 8004f7a:	0030      	movs	r0, r6
 8004f7c:	f7ff ffa8 	bl	8004ed0 <sbrk_aligned>
 8004f80:	1c43      	adds	r3, r0, #1
 8004f82:	d034      	beq.n	8004fee <_malloc_r+0xda>
 8004f84:	6823      	ldr	r3, [r4, #0]
 8004f86:	19df      	adds	r7, r3, r7
 8004f88:	6027      	str	r7, [r4, #0]
 8004f8a:	e013      	b.n	8004fb4 <_malloc_r+0xa0>
 8004f8c:	2b00      	cmp	r3, #0
 8004f8e:	dacb      	bge.n	8004f28 <_malloc_r+0x14>
 8004f90:	230c      	movs	r3, #12
 8004f92:	2500      	movs	r5, #0
 8004f94:	6033      	str	r3, [r6, #0]
 8004f96:	0028      	movs	r0, r5
 8004f98:	bdfe      	pop	{r1, r2, r3, r4, r5, r6, r7, pc}
 8004f9a:	6822      	ldr	r2, [r4, #0]
 8004f9c:	1bd1      	subs	r1, r2, r7
 8004f9e:	d420      	bmi.n	8004fe2 <_malloc_r+0xce>
 8004fa0:	290b      	cmp	r1, #11
 8004fa2:	d917      	bls.n	8004fd4 <_malloc_r+0xc0>
 8004fa4:	19e2      	adds	r2, r4, r7
 8004fa6:	6027      	str	r7, [r4, #0]
 8004fa8:	42a3      	cmp	r3, r4
 8004faa:	d111      	bne.n	8004fd0 <_malloc_r+0xbc>
 8004fac:	602a      	str	r2, [r5, #0]
 8004fae:	6863      	ldr	r3, [r4, #4]
 8004fb0:	6011      	str	r1, [r2, #0]
 8004fb2:	6053      	str	r3, [r2, #4]
 8004fb4:	0030      	movs	r0, r6
 8004fb6:	0025      	movs	r5, r4
 8004fb8:	f000 f85c 	bl	8005074 <__malloc_unlock>
 8004fbc:	2207      	movs	r2, #7
 8004fbe:	350b      	adds	r5, #11
 8004fc0:	1d23      	adds	r3, r4, #4
 8004fc2:	4395      	bics	r5, r2
 8004fc4:	1aea      	subs	r2, r5, r3
 8004fc6:	429d      	cmp	r5, r3
 8004fc8:	d0e5      	beq.n	8004f96 <_malloc_r+0x82>
 8004fca:	1b5b      	subs	r3, r3, r5
 8004fcc:	50a3      	str	r3, [r4, r2]
 8004fce:	e7e2      	b.n	8004f96 <_malloc_r+0x82>
 8004fd0:	605a      	str	r2, [r3, #4]
 8004fd2:	e7ec      	b.n	8004fae <_malloc_r+0x9a>
 8004fd4:	6862      	ldr	r2, [r4, #4]
 8004fd6:	42a3      	cmp	r3, r4
 8004fd8:	d101      	bne.n	8004fde <_malloc_r+0xca>
 8004fda:	602a      	str	r2, [r5, #0]
 8004fdc:	e7ea      	b.n	8004fb4 <_malloc_r+0xa0>
 8004fde:	605a      	str	r2, [r3, #4]
 8004fe0:	e7e8      	b.n	8004fb4 <_malloc_r+0xa0>
 8004fe2:	0023      	movs	r3, r4
 8004fe4:	6864      	ldr	r4, [r4, #4]
 8004fe6:	e7a7      	b.n	8004f38 <_malloc_r+0x24>
 8004fe8:	002c      	movs	r4, r5
 8004fea:	686d      	ldr	r5, [r5, #4]
 8004fec:	e7af      	b.n	8004f4e <_malloc_r+0x3a>
 8004fee:	230c      	movs	r3, #12
 8004ff0:	0030      	movs	r0, r6
 8004ff2:	6033      	str	r3, [r6, #0]
 8004ff4:	f000 f83e 	bl	8005074 <__malloc_unlock>
 8004ff8:	e7cd      	b.n	8004f96 <_malloc_r+0x82>
 8004ffa:	46c0      	nop			; (mov r8, r8)
 8004ffc:	20000cf8 	.word	0x20000cf8

08005000 <_sbrk_r>:
 8005000:	2300      	movs	r3, #0
 8005002:	b570      	push	{r4, r5, r6, lr}
 8005004:	4d06      	ldr	r5, [pc, #24]	; (8005020 <_sbrk_r+0x20>)
 8005006:	0004      	movs	r4, r0
 8005008:	0008      	movs	r0, r1
 800500a:	602b      	str	r3, [r5, #0]
 800500c:	f7fd fd88 	bl	8002b20 <_sbrk>
 8005010:	1c43      	adds	r3, r0, #1
 8005012:	d103      	bne.n	800501c <_sbrk_r+0x1c>
 8005014:	682b      	ldr	r3, [r5, #0]
 8005016:	2b00      	cmp	r3, #0
 8005018:	d000      	beq.n	800501c <_sbrk_r+0x1c>
 800501a:	6023      	str	r3, [r4, #0]
 800501c:	bd70      	pop	{r4, r5, r6, pc}
 800501e:	46c0      	nop			; (mov r8, r8)
 8005020:	20000d00 	.word	0x20000d00

08005024 <siprintf>:
 8005024:	b40e      	push	{r1, r2, r3}
 8005026:	b500      	push	{lr}
 8005028:	490b      	ldr	r1, [pc, #44]	; (8005058 <siprintf+0x34>)
 800502a:	b09c      	sub	sp, #112	; 0x70
 800502c:	ab1d      	add	r3, sp, #116	; 0x74
 800502e:	9002      	str	r0, [sp, #8]
 8005030:	9006      	str	r0, [sp, #24]
 8005032:	9107      	str	r1, [sp, #28]
 8005034:	9104      	str	r1, [sp, #16]
 8005036:	4809      	ldr	r0, [pc, #36]	; (800505c <siprintf+0x38>)
 8005038:	4909      	ldr	r1, [pc, #36]	; (8005060 <siprintf+0x3c>)
 800503a:	cb04      	ldmia	r3!, {r2}
 800503c:	9105      	str	r1, [sp, #20]
 800503e:	6800      	ldr	r0, [r0, #0]
 8005040:	a902      	add	r1, sp, #8
 8005042:	9301      	str	r3, [sp, #4]
 8005044:	f000 f880 	bl	8005148 <_svfiprintf_r>
 8005048:	2300      	movs	r3, #0
 800504a:	9a02      	ldr	r2, [sp, #8]
 800504c:	7013      	strb	r3, [r2, #0]
 800504e:	b01c      	add	sp, #112	; 0x70
 8005050:	bc08      	pop	{r3}
 8005052:	b003      	add	sp, #12
 8005054:	4718      	bx	r3
 8005056:	46c0      	nop			; (mov r8, r8)
 8005058:	7fffffff 	.word	0x7fffffff
 800505c:	2000004c 	.word	0x2000004c
 8005060:	ffff0208 	.word	0xffff0208

08005064 <__malloc_lock>:
 8005064:	b510      	push	{r4, lr}
 8005066:	4802      	ldr	r0, [pc, #8]	; (8005070 <__malloc_lock+0xc>)
 8005068:	f000 faf0 	bl	800564c <__retarget_lock_acquire_recursive>
 800506c:	bd10      	pop	{r4, pc}
 800506e:	46c0      	nop			; (mov r8, r8)
 8005070:	20000d04 	.word	0x20000d04

08005074 <__malloc_unlock>:
 8005074:	b510      	push	{r4, lr}
 8005076:	4802      	ldr	r0, [pc, #8]	; (8005080 <__malloc_unlock+0xc>)
 8005078:	f000 fae9 	bl	800564e <__retarget_lock_release_recursive>
 800507c:	bd10      	pop	{r4, pc}
 800507e:	46c0      	nop			; (mov r8, r8)
 8005080:	20000d04 	.word	0x20000d04

08005084 <__ssputs_r>:
 8005084:	b5f0      	push	{r4, r5, r6, r7, lr}
 8005086:	688e      	ldr	r6, [r1, #8]
 8005088:	b085      	sub	sp, #20
 800508a:	0007      	movs	r7, r0
 800508c:	000c      	movs	r4, r1
 800508e:	9203      	str	r2, [sp, #12]
 8005090:	9301      	str	r3, [sp, #4]
 8005092:	429e      	cmp	r6, r3
 8005094:	d83c      	bhi.n	8005110 <__ssputs_r+0x8c>
 8005096:	2390      	movs	r3, #144	; 0x90
 8005098:	898a      	ldrh	r2, [r1, #12]
 800509a:	00db      	lsls	r3, r3, #3
 800509c:	421a      	tst	r2, r3
 800509e:	d034      	beq.n	800510a <__ssputs_r+0x86>
 80050a0:	6909      	ldr	r1, [r1, #16]
 80050a2:	6823      	ldr	r3, [r4, #0]
 80050a4:	6960      	ldr	r0, [r4, #20]
 80050a6:	1a5b      	subs	r3, r3, r1
 80050a8:	9302      	str	r3, [sp, #8]
 80050aa:	2303      	movs	r3, #3
 80050ac:	4343      	muls	r3, r0
 80050ae:	0fdd      	lsrs	r5, r3, #31
 80050b0:	18ed      	adds	r5, r5, r3
 80050b2:	9b01      	ldr	r3, [sp, #4]
 80050b4:	9802      	ldr	r0, [sp, #8]
 80050b6:	3301      	adds	r3, #1
 80050b8:	181b      	adds	r3, r3, r0
 80050ba:	106d      	asrs	r5, r5, #1
 80050bc:	42ab      	cmp	r3, r5
 80050be:	d900      	bls.n	80050c2 <__ssputs_r+0x3e>
 80050c0:	001d      	movs	r5, r3
 80050c2:	0553      	lsls	r3, r2, #21
 80050c4:	d532      	bpl.n	800512c <__ssputs_r+0xa8>
 80050c6:	0029      	movs	r1, r5
 80050c8:	0038      	movs	r0, r7
 80050ca:	f7ff ff23 	bl	8004f14 <_malloc_r>
 80050ce:	1e06      	subs	r6, r0, #0
 80050d0:	d109      	bne.n	80050e6 <__ssputs_r+0x62>
 80050d2:	230c      	movs	r3, #12
 80050d4:	603b      	str	r3, [r7, #0]
 80050d6:	2340      	movs	r3, #64	; 0x40
 80050d8:	2001      	movs	r0, #1
 80050da:	89a2      	ldrh	r2, [r4, #12]
 80050dc:	4240      	negs	r0, r0
 80050de:	4313      	orrs	r3, r2
 80050e0:	81a3      	strh	r3, [r4, #12]
 80050e2:	b005      	add	sp, #20
 80050e4:	bdf0      	pop	{r4, r5, r6, r7, pc}
 80050e6:	9a02      	ldr	r2, [sp, #8]
 80050e8:	6921      	ldr	r1, [r4, #16]
 80050ea:	f7ff fe57 	bl	8004d9c <memcpy>
 80050ee:	89a3      	ldrh	r3, [r4, #12]
 80050f0:	4a14      	ldr	r2, [pc, #80]	; (8005144 <__ssputs_r+0xc0>)
 80050f2:	401a      	ands	r2, r3
 80050f4:	2380      	movs	r3, #128	; 0x80
 80050f6:	4313      	orrs	r3, r2
 80050f8:	81a3      	strh	r3, [r4, #12]
 80050fa:	9b02      	ldr	r3, [sp, #8]
 80050fc:	6126      	str	r6, [r4, #16]
 80050fe:	18f6      	adds	r6, r6, r3
 8005100:	6026      	str	r6, [r4, #0]
 8005102:	6165      	str	r5, [r4, #20]
 8005104:	9e01      	ldr	r6, [sp, #4]
 8005106:	1aed      	subs	r5, r5, r3
 8005108:	60a5      	str	r5, [r4, #8]
 800510a:	9b01      	ldr	r3, [sp, #4]
 800510c:	429e      	cmp	r6, r3
 800510e:	d900      	bls.n	8005112 <__ssputs_r+0x8e>
 8005110:	9e01      	ldr	r6, [sp, #4]
 8005112:	0032      	movs	r2, r6
 8005114:	9903      	ldr	r1, [sp, #12]
 8005116:	6820      	ldr	r0, [r4, #0]
 8005118:	f7ff fe49 	bl	8004dae <memmove>
 800511c:	68a3      	ldr	r3, [r4, #8]
 800511e:	2000      	movs	r0, #0
 8005120:	1b9b      	subs	r3, r3, r6
 8005122:	60a3      	str	r3, [r4, #8]
 8005124:	6823      	ldr	r3, [r4, #0]
 8005126:	199e      	adds	r6, r3, r6
 8005128:	6026      	str	r6, [r4, #0]
 800512a:	e7da      	b.n	80050e2 <__ssputs_r+0x5e>
 800512c:	002a      	movs	r2, r5
 800512e:	0038      	movs	r0, r7
 8005130:	f000 fa99 	bl	8005666 <_realloc_r>
 8005134:	1e06      	subs	r6, r0, #0
 8005136:	d1e0      	bne.n	80050fa <__ssputs_r+0x76>
 8005138:	0038      	movs	r0, r7
 800513a:	6921      	ldr	r1, [r4, #16]
 800513c:	f7ff fe7e 	bl	8004e3c <_free_r>
 8005140:	e7c7      	b.n	80050d2 <__ssputs_r+0x4e>
 8005142:	46c0      	nop			; (mov r8, r8)
 8005144:	fffffb7f 	.word	0xfffffb7f

08005148 <_svfiprintf_r>:
 8005148:	b5f0      	push	{r4, r5, r6, r7, lr}
 800514a:	b0a1      	sub	sp, #132	; 0x84
 800514c:	9003      	str	r0, [sp, #12]
 800514e:	001d      	movs	r5, r3
 8005150:	898b      	ldrh	r3, [r1, #12]
 8005152:	000f      	movs	r7, r1
 8005154:	0016      	movs	r6, r2
 8005156:	061b      	lsls	r3, r3, #24
 8005158:	d511      	bpl.n	800517e <_svfiprintf_r+0x36>
 800515a:	690b      	ldr	r3, [r1, #16]
 800515c:	2b00      	cmp	r3, #0
 800515e:	d10e      	bne.n	800517e <_svfiprintf_r+0x36>
 8005160:	2140      	movs	r1, #64	; 0x40
 8005162:	f7ff fed7 	bl	8004f14 <_malloc_r>
 8005166:	6038      	str	r0, [r7, #0]
 8005168:	6138      	str	r0, [r7, #16]
 800516a:	2800      	cmp	r0, #0
 800516c:	d105      	bne.n	800517a <_svfiprintf_r+0x32>
 800516e:	230c      	movs	r3, #12
 8005170:	9a03      	ldr	r2, [sp, #12]
 8005172:	3801      	subs	r0, #1
 8005174:	6013      	str	r3, [r2, #0]
 8005176:	b021      	add	sp, #132	; 0x84
 8005178:	bdf0      	pop	{r4, r5, r6, r7, pc}
 800517a:	2340      	movs	r3, #64	; 0x40
 800517c:	617b      	str	r3, [r7, #20]
 800517e:	2300      	movs	r3, #0
 8005180:	ac08      	add	r4, sp, #32
 8005182:	6163      	str	r3, [r4, #20]
 8005184:	3320      	adds	r3, #32
 8005186:	7663      	strb	r3, [r4, #25]
 8005188:	3310      	adds	r3, #16
 800518a:	76a3      	strb	r3, [r4, #26]
 800518c:	9507      	str	r5, [sp, #28]
 800518e:	0035      	movs	r5, r6
 8005190:	782b      	ldrb	r3, [r5, #0]
 8005192:	2b00      	cmp	r3, #0
 8005194:	d001      	beq.n	800519a <_svfiprintf_r+0x52>
 8005196:	2b25      	cmp	r3, #37	; 0x25
 8005198:	d147      	bne.n	800522a <_svfiprintf_r+0xe2>
 800519a:	1bab      	subs	r3, r5, r6
 800519c:	9305      	str	r3, [sp, #20]
 800519e:	42b5      	cmp	r5, r6
 80051a0:	d00c      	beq.n	80051bc <_svfiprintf_r+0x74>
 80051a2:	0032      	movs	r2, r6
 80051a4:	0039      	movs	r1, r7
 80051a6:	9803      	ldr	r0, [sp, #12]
 80051a8:	f7ff ff6c 	bl	8005084 <__ssputs_r>
 80051ac:	1c43      	adds	r3, r0, #1
 80051ae:	d100      	bne.n	80051b2 <_svfiprintf_r+0x6a>
 80051b0:	e0ae      	b.n	8005310 <_svfiprintf_r+0x1c8>
 80051b2:	6962      	ldr	r2, [r4, #20]
 80051b4:	9b05      	ldr	r3, [sp, #20]
 80051b6:	4694      	mov	ip, r2
 80051b8:	4463      	add	r3, ip
 80051ba:	6163      	str	r3, [r4, #20]
 80051bc:	782b      	ldrb	r3, [r5, #0]
 80051be:	2b00      	cmp	r3, #0
 80051c0:	d100      	bne.n	80051c4 <_svfiprintf_r+0x7c>
 80051c2:	e0a5      	b.n	8005310 <_svfiprintf_r+0x1c8>
 80051c4:	2201      	movs	r2, #1
 80051c6:	2300      	movs	r3, #0
 80051c8:	4252      	negs	r2, r2
 80051ca:	6062      	str	r2, [r4, #4]
 80051cc:	a904      	add	r1, sp, #16
 80051ce:	3254      	adds	r2, #84	; 0x54
 80051d0:	1852      	adds	r2, r2, r1
 80051d2:	1c6e      	adds	r6, r5, #1
 80051d4:	6023      	str	r3, [r4, #0]
 80051d6:	60e3      	str	r3, [r4, #12]
 80051d8:	60a3      	str	r3, [r4, #8]
 80051da:	7013      	strb	r3, [r2, #0]
 80051dc:	65a3      	str	r3, [r4, #88]	; 0x58
 80051de:	2205      	movs	r2, #5
 80051e0:	7831      	ldrb	r1, [r6, #0]
 80051e2:	4854      	ldr	r0, [pc, #336]	; (8005334 <_svfiprintf_r+0x1ec>)
 80051e4:	f000 fa34 	bl	8005650 <memchr>
 80051e8:	1c75      	adds	r5, r6, #1
 80051ea:	2800      	cmp	r0, #0
 80051ec:	d11f      	bne.n	800522e <_svfiprintf_r+0xe6>
 80051ee:	6822      	ldr	r2, [r4, #0]
 80051f0:	06d3      	lsls	r3, r2, #27
 80051f2:	d504      	bpl.n	80051fe <_svfiprintf_r+0xb6>
 80051f4:	2353      	movs	r3, #83	; 0x53
 80051f6:	a904      	add	r1, sp, #16
 80051f8:	185b      	adds	r3, r3, r1
 80051fa:	2120      	movs	r1, #32
 80051fc:	7019      	strb	r1, [r3, #0]
 80051fe:	0713      	lsls	r3, r2, #28
 8005200:	d504      	bpl.n	800520c <_svfiprintf_r+0xc4>
 8005202:	2353      	movs	r3, #83	; 0x53
 8005204:	a904      	add	r1, sp, #16
 8005206:	185b      	adds	r3, r3, r1
 8005208:	212b      	movs	r1, #43	; 0x2b
 800520a:	7019      	strb	r1, [r3, #0]
 800520c:	7833      	ldrb	r3, [r6, #0]
 800520e:	2b2a      	cmp	r3, #42	; 0x2a
 8005210:	d016      	beq.n	8005240 <_svfiprintf_r+0xf8>
 8005212:	0035      	movs	r5, r6
 8005214:	2100      	movs	r1, #0
 8005216:	200a      	movs	r0, #10
 8005218:	68e3      	ldr	r3, [r4, #12]
 800521a:	782a      	ldrb	r2, [r5, #0]
 800521c:	1c6e      	adds	r6, r5, #1
 800521e:	3a30      	subs	r2, #48	; 0x30
 8005220:	2a09      	cmp	r2, #9
 8005222:	d94e      	bls.n	80052c2 <_svfiprintf_r+0x17a>
 8005224:	2900      	cmp	r1, #0
 8005226:	d111      	bne.n	800524c <_svfiprintf_r+0x104>
 8005228:	e017      	b.n	800525a <_svfiprintf_r+0x112>
 800522a:	3501      	adds	r5, #1
 800522c:	e7b0      	b.n	8005190 <_svfiprintf_r+0x48>
 800522e:	4b41      	ldr	r3, [pc, #260]	; (8005334 <_svfiprintf_r+0x1ec>)
 8005230:	6822      	ldr	r2, [r4, #0]
 8005232:	1ac0      	subs	r0, r0, r3
 8005234:	2301      	movs	r3, #1
 8005236:	4083      	lsls	r3, r0
 8005238:	4313      	orrs	r3, r2
 800523a:	002e      	movs	r6, r5
 800523c:	6023      	str	r3, [r4, #0]
 800523e:	e7ce      	b.n	80051de <_svfiprintf_r+0x96>
 8005240:	9b07      	ldr	r3, [sp, #28]
 8005242:	1d19      	adds	r1, r3, #4
 8005244:	681b      	ldr	r3, [r3, #0]
 8005246:	9107      	str	r1, [sp, #28]
 8005248:	2b00      	cmp	r3, #0
 800524a:	db01      	blt.n	8005250 <_svfiprintf_r+0x108>
 800524c:	930b      	str	r3, [sp, #44]	; 0x2c
 800524e:	e004      	b.n	800525a <_svfiprintf_r+0x112>
 8005250:	425b      	negs	r3, r3
 8005252:	60e3      	str	r3, [r4, #12]
 8005254:	2302      	movs	r3, #2
 8005256:	4313      	orrs	r3, r2
 8005258:	6023      	str	r3, [r4, #0]
 800525a:	782b      	ldrb	r3, [r5, #0]
 800525c:	2b2e      	cmp	r3, #46	; 0x2e
 800525e:	d10a      	bne.n	8005276 <_svfiprintf_r+0x12e>
 8005260:	786b      	ldrb	r3, [r5, #1]
 8005262:	2b2a      	cmp	r3, #42	; 0x2a
 8005264:	d135      	bne.n	80052d2 <_svfiprintf_r+0x18a>
 8005266:	9b07      	ldr	r3, [sp, #28]
 8005268:	3502      	adds	r5, #2
 800526a:	1d1a      	adds	r2, r3, #4
 800526c:	681b      	ldr	r3, [r3, #0]
 800526e:	9207      	str	r2, [sp, #28]
 8005270:	2b00      	cmp	r3, #0
 8005272:	db2b      	blt.n	80052cc <_svfiprintf_r+0x184>
 8005274:	9309      	str	r3, [sp, #36]	; 0x24
 8005276:	4e30      	ldr	r6, [pc, #192]	; (8005338 <_svfiprintf_r+0x1f0>)
 8005278:	2203      	movs	r2, #3
 800527a:	0030      	movs	r0, r6
 800527c:	7829      	ldrb	r1, [r5, #0]
 800527e:	f000 f9e7 	bl	8005650 <memchr>
 8005282:	2800      	cmp	r0, #0
 8005284:	d006      	beq.n	8005294 <_svfiprintf_r+0x14c>
 8005286:	2340      	movs	r3, #64	; 0x40
 8005288:	1b80      	subs	r0, r0, r6
 800528a:	4083      	lsls	r3, r0
 800528c:	6822      	ldr	r2, [r4, #0]
 800528e:	3501      	adds	r5, #1
 8005290:	4313      	orrs	r3, r2
 8005292:	6023      	str	r3, [r4, #0]
 8005294:	7829      	ldrb	r1, [r5, #0]
 8005296:	2206      	movs	r2, #6
 8005298:	4828      	ldr	r0, [pc, #160]	; (800533c <_svfiprintf_r+0x1f4>)
 800529a:	1c6e      	adds	r6, r5, #1
 800529c:	7621      	strb	r1, [r4, #24]
 800529e:	f000 f9d7 	bl	8005650 <memchr>
 80052a2:	2800      	cmp	r0, #0
 80052a4:	d03c      	beq.n	8005320 <_svfiprintf_r+0x1d8>
 80052a6:	4b26      	ldr	r3, [pc, #152]	; (8005340 <_svfiprintf_r+0x1f8>)
 80052a8:	2b00      	cmp	r3, #0
 80052aa:	d125      	bne.n	80052f8 <_svfiprintf_r+0x1b0>
 80052ac:	2207      	movs	r2, #7
 80052ae:	9b07      	ldr	r3, [sp, #28]
 80052b0:	3307      	adds	r3, #7
 80052b2:	4393      	bics	r3, r2
 80052b4:	3308      	adds	r3, #8
 80052b6:	9307      	str	r3, [sp, #28]
 80052b8:	6963      	ldr	r3, [r4, #20]
 80052ba:	9a04      	ldr	r2, [sp, #16]
 80052bc:	189b      	adds	r3, r3, r2
 80052be:	6163      	str	r3, [r4, #20]
 80052c0:	e765      	b.n	800518e <_svfiprintf_r+0x46>
 80052c2:	4343      	muls	r3, r0
 80052c4:	0035      	movs	r5, r6
 80052c6:	2101      	movs	r1, #1
 80052c8:	189b      	adds	r3, r3, r2
 80052ca:	e7a6      	b.n	800521a <_svfiprintf_r+0xd2>
 80052cc:	2301      	movs	r3, #1
 80052ce:	425b      	negs	r3, r3
 80052d0:	e7d0      	b.n	8005274 <_svfiprintf_r+0x12c>
 80052d2:	2300      	movs	r3, #0
 80052d4:	200a      	movs	r0, #10
 80052d6:	001a      	movs	r2, r3
 80052d8:	3501      	adds	r5, #1
 80052da:	6063      	str	r3, [r4, #4]
 80052dc:	7829      	ldrb	r1, [r5, #0]
 80052de:	1c6e      	adds	r6, r5, #1
 80052e0:	3930      	subs	r1, #48	; 0x30
 80052e2:	2909      	cmp	r1, #9
 80052e4:	d903      	bls.n	80052ee <_svfiprintf_r+0x1a6>
 80052e6:	2b00      	cmp	r3, #0
 80052e8:	d0c5      	beq.n	8005276 <_svfiprintf_r+0x12e>
 80052ea:	9209      	str	r2, [sp, #36]	; 0x24
 80052ec:	e7c3      	b.n	8005276 <_svfiprintf_r+0x12e>
 80052ee:	4342      	muls	r2, r0
 80052f0:	0035      	movs	r5, r6
 80052f2:	2301      	movs	r3, #1
 80052f4:	1852      	adds	r2, r2, r1
 80052f6:	e7f1      	b.n	80052dc <_svfiprintf_r+0x194>
 80052f8:	ab07      	add	r3, sp, #28
 80052fa:	9300      	str	r3, [sp, #0]
 80052fc:	003a      	movs	r2, r7
 80052fe:	0021      	movs	r1, r4
 8005300:	4b10      	ldr	r3, [pc, #64]	; (8005344 <_svfiprintf_r+0x1fc>)
 8005302:	9803      	ldr	r0, [sp, #12]
 8005304:	e000      	b.n	8005308 <_svfiprintf_r+0x1c0>
 8005306:	bf00      	nop
 8005308:	9004      	str	r0, [sp, #16]
 800530a:	9b04      	ldr	r3, [sp, #16]
 800530c:	3301      	adds	r3, #1
 800530e:	d1d3      	bne.n	80052b8 <_svfiprintf_r+0x170>
 8005310:	89bb      	ldrh	r3, [r7, #12]
 8005312:	980d      	ldr	r0, [sp, #52]	; 0x34
 8005314:	065b      	lsls	r3, r3, #25
 8005316:	d400      	bmi.n	800531a <_svfiprintf_r+0x1d2>
 8005318:	e72d      	b.n	8005176 <_svfiprintf_r+0x2e>
 800531a:	2001      	movs	r0, #1
 800531c:	4240      	negs	r0, r0
 800531e:	e72a      	b.n	8005176 <_svfiprintf_r+0x2e>
 8005320:	ab07      	add	r3, sp, #28
 8005322:	9300      	str	r3, [sp, #0]
 8005324:	003a      	movs	r2, r7
 8005326:	0021      	movs	r1, r4
 8005328:	4b06      	ldr	r3, [pc, #24]	; (8005344 <_svfiprintf_r+0x1fc>)
 800532a:	9803      	ldr	r0, [sp, #12]
 800532c:	f000 f87c 	bl	8005428 <_printf_i>
 8005330:	e7ea      	b.n	8005308 <_svfiprintf_r+0x1c0>
 8005332:	46c0      	nop			; (mov r8, r8)
 8005334:	08006358 	.word	0x08006358
 8005338:	0800635e 	.word	0x0800635e
 800533c:	08006362 	.word	0x08006362
 8005340:	00000000 	.word	0x00000000
 8005344:	08005085 	.word	0x08005085

08005348 <_printf_common>:
 8005348:	b5f7      	push	{r0, r1, r2, r4, r5, r6, r7, lr}
 800534a:	0015      	movs	r5, r2
 800534c:	9301      	str	r3, [sp, #4]
 800534e:	688a      	ldr	r2, [r1, #8]
 8005350:	690b      	ldr	r3, [r1, #16]
 8005352:	000c      	movs	r4, r1
 8005354:	9000      	str	r0, [sp, #0]
 8005356:	4293      	cmp	r3, r2
 8005358:	da00      	bge.n	800535c <_printf_common+0x14>
 800535a:	0013      	movs	r3, r2
 800535c:	0022      	movs	r2, r4
 800535e:	602b      	str	r3, [r5, #0]
 8005360:	3243      	adds	r2, #67	; 0x43
 8005362:	7812      	ldrb	r2, [r2, #0]
 8005364:	2a00      	cmp	r2, #0
 8005366:	d001      	beq.n	800536c <_printf_common+0x24>
 8005368:	3301      	adds	r3, #1
 800536a:	602b      	str	r3, [r5, #0]
 800536c:	6823      	ldr	r3, [r4, #0]
 800536e:	069b      	lsls	r3, r3, #26
 8005370:	d502      	bpl.n	8005378 <_printf_common+0x30>
 8005372:	682b      	ldr	r3, [r5, #0]
 8005374:	3302      	adds	r3, #2
 8005376:	602b      	str	r3, [r5, #0]
 8005378:	6822      	ldr	r2, [r4, #0]
 800537a:	2306      	movs	r3, #6
 800537c:	0017      	movs	r7, r2
 800537e:	401f      	ands	r7, r3
 8005380:	421a      	tst	r2, r3
 8005382:	d027      	beq.n	80053d4 <_printf_common+0x8c>
 8005384:	0023      	movs	r3, r4
 8005386:	3343      	adds	r3, #67	; 0x43
 8005388:	781b      	ldrb	r3, [r3, #0]
 800538a:	1e5a      	subs	r2, r3, #1
 800538c:	4193      	sbcs	r3, r2
 800538e:	6822      	ldr	r2, [r4, #0]
 8005390:	0692      	lsls	r2, r2, #26
 8005392:	d430      	bmi.n	80053f6 <_printf_common+0xae>
 8005394:	0022      	movs	r2, r4
 8005396:	9901      	ldr	r1, [sp, #4]
 8005398:	9800      	ldr	r0, [sp, #0]
 800539a:	9e08      	ldr	r6, [sp, #32]
 800539c:	3243      	adds	r2, #67	; 0x43
 800539e:	47b0      	blx	r6
 80053a0:	1c43      	adds	r3, r0, #1
 80053a2:	d025      	beq.n	80053f0 <_printf_common+0xa8>
 80053a4:	2306      	movs	r3, #6
 80053a6:	6820      	ldr	r0, [r4, #0]
 80053a8:	682a      	ldr	r2, [r5, #0]
 80053aa:	68e1      	ldr	r1, [r4, #12]
 80053ac:	2500      	movs	r5, #0
 80053ae:	4003      	ands	r3, r0
 80053b0:	2b04      	cmp	r3, #4
 80053b2:	d103      	bne.n	80053bc <_printf_common+0x74>
 80053b4:	1a8d      	subs	r5, r1, r2
 80053b6:	43eb      	mvns	r3, r5
 80053b8:	17db      	asrs	r3, r3, #31
 80053ba:	401d      	ands	r5, r3
 80053bc:	68a3      	ldr	r3, [r4, #8]
 80053be:	6922      	ldr	r2, [r4, #16]
 80053c0:	4293      	cmp	r3, r2
 80053c2:	dd01      	ble.n	80053c8 <_printf_common+0x80>
 80053c4:	1a9b      	subs	r3, r3, r2
 80053c6:	18ed      	adds	r5, r5, r3
 80053c8:	2700      	movs	r7, #0
 80053ca:	42bd      	cmp	r5, r7
 80053cc:	d120      	bne.n	8005410 <_printf_common+0xc8>
 80053ce:	2000      	movs	r0, #0
 80053d0:	e010      	b.n	80053f4 <_printf_common+0xac>
 80053d2:	3701      	adds	r7, #1
 80053d4:	68e3      	ldr	r3, [r4, #12]
 80053d6:	682a      	ldr	r2, [r5, #0]
 80053d8:	1a9b      	subs	r3, r3, r2
 80053da:	42bb      	cmp	r3, r7
 80053dc:	ddd2      	ble.n	8005384 <_printf_common+0x3c>
 80053de:	0022      	movs	r2, r4
 80053e0:	2301      	movs	r3, #1
 80053e2:	9901      	ldr	r1, [sp, #4]
 80053e4:	9800      	ldr	r0, [sp, #0]
 80053e6:	9e08      	ldr	r6, [sp, #32]
 80053e8:	3219      	adds	r2, #25
 80053ea:	47b0      	blx	r6
 80053ec:	1c43      	adds	r3, r0, #1
 80053ee:	d1f0      	bne.n	80053d2 <_printf_common+0x8a>
 80053f0:	2001      	movs	r0, #1
 80053f2:	4240      	negs	r0, r0
 80053f4:	bdfe      	pop	{r1, r2, r3, r4, r5, r6, r7, pc}
 80053f6:	2030      	movs	r0, #48	; 0x30
 80053f8:	18e1      	adds	r1, r4, r3
 80053fa:	3143      	adds	r1, #67	; 0x43
 80053fc:	7008      	strb	r0, [r1, #0]
 80053fe:	0021      	movs	r1, r4
 8005400:	1c5a      	adds	r2, r3, #1
 8005402:	3145      	adds	r1, #69	; 0x45
 8005404:	7809      	ldrb	r1, [r1, #0]
 8005406:	18a2      	adds	r2, r4, r2
 8005408:	3243      	adds	r2, #67	; 0x43
 800540a:	3302      	adds	r3, #2
 800540c:	7011      	strb	r1, [r2, #0]
 800540e:	e7c1      	b.n	8005394 <_printf_common+0x4c>
 8005410:	0022      	movs	r2, r4
 8005412:	2301      	movs	r3, #1
 8005414:	9901      	ldr	r1, [sp, #4]
 8005416:	9800      	ldr	r0, [sp, #0]
 8005418:	9e08      	ldr	r6, [sp, #32]
 800541a:	321a      	adds	r2, #26
 800541c:	47b0      	blx	r6
 800541e:	1c43      	adds	r3, r0, #1
 8005420:	d0e6      	beq.n	80053f0 <_printf_common+0xa8>
 8005422:	3701      	adds	r7, #1
 8005424:	e7d1      	b.n	80053ca <_printf_common+0x82>
	...

08005428 <_printf_i>:
 8005428:	b5f0      	push	{r4, r5, r6, r7, lr}
 800542a:	b08b      	sub	sp, #44	; 0x2c
 800542c:	9206      	str	r2, [sp, #24]
 800542e:	000a      	movs	r2, r1
 8005430:	3243      	adds	r2, #67	; 0x43
 8005432:	9307      	str	r3, [sp, #28]
 8005434:	9005      	str	r0, [sp, #20]
 8005436:	9204      	str	r2, [sp, #16]
 8005438:	7e0a      	ldrb	r2, [r1, #24]
 800543a:	000c      	movs	r4, r1
 800543c:	9b10      	ldr	r3, [sp, #64]	; 0x40
 800543e:	2a78      	cmp	r2, #120	; 0x78
 8005440:	d807      	bhi.n	8005452 <_printf_i+0x2a>
 8005442:	2a62      	cmp	r2, #98	; 0x62
 8005444:	d809      	bhi.n	800545a <_printf_i+0x32>
 8005446:	2a00      	cmp	r2, #0
 8005448:	d100      	bne.n	800544c <_printf_i+0x24>
 800544a:	e0c1      	b.n	80055d0 <_printf_i+0x1a8>
 800544c:	2a58      	cmp	r2, #88	; 0x58
 800544e:	d100      	bne.n	8005452 <_printf_i+0x2a>
 8005450:	e08c      	b.n	800556c <_printf_i+0x144>
 8005452:	0026      	movs	r6, r4
 8005454:	3642      	adds	r6, #66	; 0x42
 8005456:	7032      	strb	r2, [r6, #0]
 8005458:	e022      	b.n	80054a0 <_printf_i+0x78>
 800545a:	0010      	movs	r0, r2
 800545c:	3863      	subs	r0, #99	; 0x63
 800545e:	2815      	cmp	r0, #21
 8005460:	d8f7      	bhi.n	8005452 <_printf_i+0x2a>
 8005462:	f7fa fe65 	bl	8000130 <__gnu_thumb1_case_shi>
 8005466:	0016      	.short	0x0016
 8005468:	fff6001f 	.word	0xfff6001f
 800546c:	fff6fff6 	.word	0xfff6fff6
 8005470:	001ffff6 	.word	0x001ffff6
 8005474:	fff6fff6 	.word	0xfff6fff6
 8005478:	fff6fff6 	.word	0xfff6fff6
 800547c:	003600a8 	.word	0x003600a8
 8005480:	fff6009a 	.word	0xfff6009a
 8005484:	00b9fff6 	.word	0x00b9fff6
 8005488:	0036fff6 	.word	0x0036fff6
 800548c:	fff6fff6 	.word	0xfff6fff6
 8005490:	009e      	.short	0x009e
 8005492:	0026      	movs	r6, r4
 8005494:	681a      	ldr	r2, [r3, #0]
 8005496:	3642      	adds	r6, #66	; 0x42
 8005498:	1d11      	adds	r1, r2, #4
 800549a:	6019      	str	r1, [r3, #0]
 800549c:	6813      	ldr	r3, [r2, #0]
 800549e:	7033      	strb	r3, [r6, #0]
 80054a0:	2301      	movs	r3, #1
 80054a2:	e0a7      	b.n	80055f4 <_printf_i+0x1cc>
 80054a4:	6808      	ldr	r0, [r1, #0]
 80054a6:	6819      	ldr	r1, [r3, #0]
 80054a8:	1d0a      	adds	r2, r1, #4
 80054aa:	0605      	lsls	r5, r0, #24
 80054ac:	d50b      	bpl.n	80054c6 <_printf_i+0x9e>
 80054ae:	680d      	ldr	r5, [r1, #0]
 80054b0:	601a      	str	r2, [r3, #0]
 80054b2:	2d00      	cmp	r5, #0
 80054b4:	da03      	bge.n	80054be <_printf_i+0x96>
 80054b6:	232d      	movs	r3, #45	; 0x2d
 80054b8:	9a04      	ldr	r2, [sp, #16]
 80054ba:	426d      	negs	r5, r5
 80054bc:	7013      	strb	r3, [r2, #0]
 80054be:	4b61      	ldr	r3, [pc, #388]	; (8005644 <_printf_i+0x21c>)
 80054c0:	270a      	movs	r7, #10
 80054c2:	9303      	str	r3, [sp, #12]
 80054c4:	e01b      	b.n	80054fe <_printf_i+0xd6>
 80054c6:	680d      	ldr	r5, [r1, #0]
 80054c8:	601a      	str	r2, [r3, #0]
 80054ca:	0641      	lsls	r1, r0, #25
 80054cc:	d5f1      	bpl.n	80054b2 <_printf_i+0x8a>
 80054ce:	b22d      	sxth	r5, r5
 80054d0:	e7ef      	b.n	80054b2 <_printf_i+0x8a>
 80054d2:	680d      	ldr	r5, [r1, #0]
 80054d4:	6819      	ldr	r1, [r3, #0]
 80054d6:	1d08      	adds	r0, r1, #4
 80054d8:	6018      	str	r0, [r3, #0]
 80054da:	062e      	lsls	r6, r5, #24
 80054dc:	d501      	bpl.n	80054e2 <_printf_i+0xba>
 80054de:	680d      	ldr	r5, [r1, #0]
 80054e0:	e003      	b.n	80054ea <_printf_i+0xc2>
 80054e2:	066d      	lsls	r5, r5, #25
 80054e4:	d5fb      	bpl.n	80054de <_printf_i+0xb6>
 80054e6:	680d      	ldr	r5, [r1, #0]
 80054e8:	b2ad      	uxth	r5, r5
 80054ea:	4b56      	ldr	r3, [pc, #344]	; (8005644 <_printf_i+0x21c>)
 80054ec:	2708      	movs	r7, #8
 80054ee:	9303      	str	r3, [sp, #12]
 80054f0:	2a6f      	cmp	r2, #111	; 0x6f
 80054f2:	d000      	beq.n	80054f6 <_printf_i+0xce>
 80054f4:	3702      	adds	r7, #2
 80054f6:	0023      	movs	r3, r4
 80054f8:	2200      	movs	r2, #0
 80054fa:	3343      	adds	r3, #67	; 0x43
 80054fc:	701a      	strb	r2, [r3, #0]
 80054fe:	6863      	ldr	r3, [r4, #4]
 8005500:	60a3      	str	r3, [r4, #8]
 8005502:	2b00      	cmp	r3, #0
 8005504:	db03      	blt.n	800550e <_printf_i+0xe6>
 8005506:	2204      	movs	r2, #4
 8005508:	6821      	ldr	r1, [r4, #0]
 800550a:	4391      	bics	r1, r2
 800550c:	6021      	str	r1, [r4, #0]
 800550e:	2d00      	cmp	r5, #0
 8005510:	d102      	bne.n	8005518 <_printf_i+0xf0>
 8005512:	9e04      	ldr	r6, [sp, #16]
 8005514:	2b00      	cmp	r3, #0
 8005516:	d00c      	beq.n	8005532 <_printf_i+0x10a>
 8005518:	9e04      	ldr	r6, [sp, #16]
 800551a:	0028      	movs	r0, r5
 800551c:	0039      	movs	r1, r7
 800551e:	f7fa fe97 	bl	8000250 <__aeabi_uidivmod>
 8005522:	9b03      	ldr	r3, [sp, #12]
 8005524:	3e01      	subs	r6, #1
 8005526:	5c5b      	ldrb	r3, [r3, r1]
 8005528:	7033      	strb	r3, [r6, #0]
 800552a:	002b      	movs	r3, r5
 800552c:	0005      	movs	r5, r0
 800552e:	429f      	cmp	r7, r3
 8005530:	d9f3      	bls.n	800551a <_printf_i+0xf2>
 8005532:	2f08      	cmp	r7, #8
 8005534:	d109      	bne.n	800554a <_printf_i+0x122>
 8005536:	6823      	ldr	r3, [r4, #0]
 8005538:	07db      	lsls	r3, r3, #31
 800553a:	d506      	bpl.n	800554a <_printf_i+0x122>
 800553c:	6863      	ldr	r3, [r4, #4]
 800553e:	6922      	ldr	r2, [r4, #16]
 8005540:	4293      	cmp	r3, r2
 8005542:	dc02      	bgt.n	800554a <_printf_i+0x122>
 8005544:	2330      	movs	r3, #48	; 0x30
 8005546:	3e01      	subs	r6, #1
 8005548:	7033      	strb	r3, [r6, #0]
 800554a:	9b04      	ldr	r3, [sp, #16]
 800554c:	1b9b      	subs	r3, r3, r6
 800554e:	6123      	str	r3, [r4, #16]
 8005550:	9b07      	ldr	r3, [sp, #28]
 8005552:	0021      	movs	r1, r4
 8005554:	9300      	str	r3, [sp, #0]
 8005556:	9805      	ldr	r0, [sp, #20]
 8005558:	9b06      	ldr	r3, [sp, #24]
 800555a:	aa09      	add	r2, sp, #36	; 0x24
 800555c:	f7ff fef4 	bl	8005348 <_printf_common>
 8005560:	1c43      	adds	r3, r0, #1
 8005562:	d14c      	bne.n	80055fe <_printf_i+0x1d6>
 8005564:	2001      	movs	r0, #1
 8005566:	4240      	negs	r0, r0
 8005568:	b00b      	add	sp, #44	; 0x2c
 800556a:	bdf0      	pop	{r4, r5, r6, r7, pc}
 800556c:	3145      	adds	r1, #69	; 0x45
 800556e:	700a      	strb	r2, [r1, #0]
 8005570:	4a34      	ldr	r2, [pc, #208]	; (8005644 <_printf_i+0x21c>)
 8005572:	9203      	str	r2, [sp, #12]
 8005574:	681a      	ldr	r2, [r3, #0]
 8005576:	6821      	ldr	r1, [r4, #0]
 8005578:	ca20      	ldmia	r2!, {r5}
 800557a:	601a      	str	r2, [r3, #0]
 800557c:	0608      	lsls	r0, r1, #24
 800557e:	d516      	bpl.n	80055ae <_printf_i+0x186>
 8005580:	07cb      	lsls	r3, r1, #31
 8005582:	d502      	bpl.n	800558a <_printf_i+0x162>
 8005584:	2320      	movs	r3, #32
 8005586:	4319      	orrs	r1, r3
 8005588:	6021      	str	r1, [r4, #0]
 800558a:	2710      	movs	r7, #16
 800558c:	2d00      	cmp	r5, #0
 800558e:	d1b2      	bne.n	80054f6 <_printf_i+0xce>
 8005590:	2320      	movs	r3, #32
 8005592:	6822      	ldr	r2, [r4, #0]
 8005594:	439a      	bics	r2, r3
 8005596:	6022      	str	r2, [r4, #0]
 8005598:	e7ad      	b.n	80054f6 <_printf_i+0xce>
 800559a:	2220      	movs	r2, #32
 800559c:	6809      	ldr	r1, [r1, #0]
 800559e:	430a      	orrs	r2, r1
 80055a0:	6022      	str	r2, [r4, #0]
 80055a2:	0022      	movs	r2, r4
 80055a4:	2178      	movs	r1, #120	; 0x78
 80055a6:	3245      	adds	r2, #69	; 0x45
 80055a8:	7011      	strb	r1, [r2, #0]
 80055aa:	4a27      	ldr	r2, [pc, #156]	; (8005648 <_printf_i+0x220>)
 80055ac:	e7e1      	b.n	8005572 <_printf_i+0x14a>
 80055ae:	0648      	lsls	r0, r1, #25
 80055b0:	d5e6      	bpl.n	8005580 <_printf_i+0x158>
 80055b2:	b2ad      	uxth	r5, r5
 80055b4:	e7e4      	b.n	8005580 <_printf_i+0x158>
 80055b6:	681a      	ldr	r2, [r3, #0]
 80055b8:	680d      	ldr	r5, [r1, #0]
 80055ba:	1d10      	adds	r0, r2, #4
 80055bc:	6949      	ldr	r1, [r1, #20]
 80055be:	6018      	str	r0, [r3, #0]
 80055c0:	6813      	ldr	r3, [r2, #0]
 80055c2:	062e      	lsls	r6, r5, #24
 80055c4:	d501      	bpl.n	80055ca <_printf_i+0x1a2>
 80055c6:	6019      	str	r1, [r3, #0]
 80055c8:	e002      	b.n	80055d0 <_printf_i+0x1a8>
 80055ca:	066d      	lsls	r5, r5, #25
 80055cc:	d5fb      	bpl.n	80055c6 <_printf_i+0x19e>
 80055ce:	8019      	strh	r1, [r3, #0]
 80055d0:	2300      	movs	r3, #0
 80055d2:	9e04      	ldr	r6, [sp, #16]
 80055d4:	6123      	str	r3, [r4, #16]
 80055d6:	e7bb      	b.n	8005550 <_printf_i+0x128>
 80055d8:	681a      	ldr	r2, [r3, #0]
 80055da:	1d11      	adds	r1, r2, #4
 80055dc:	6019      	str	r1, [r3, #0]
 80055de:	6816      	ldr	r6, [r2, #0]
 80055e0:	2100      	movs	r1, #0
 80055e2:	0030      	movs	r0, r6
 80055e4:	6862      	ldr	r2, [r4, #4]
 80055e6:	f000 f833 	bl	8005650 <memchr>
 80055ea:	2800      	cmp	r0, #0
 80055ec:	d001      	beq.n	80055f2 <_printf_i+0x1ca>
 80055ee:	1b80      	subs	r0, r0, r6
 80055f0:	6060      	str	r0, [r4, #4]
 80055f2:	6863      	ldr	r3, [r4, #4]
 80055f4:	6123      	str	r3, [r4, #16]
 80055f6:	2300      	movs	r3, #0
 80055f8:	9a04      	ldr	r2, [sp, #16]
 80055fa:	7013      	strb	r3, [r2, #0]
 80055fc:	e7a8      	b.n	8005550 <_printf_i+0x128>
 80055fe:	6923      	ldr	r3, [r4, #16]
 8005600:	0032      	movs	r2, r6
 8005602:	9906      	ldr	r1, [sp, #24]
 8005604:	9805      	ldr	r0, [sp, #20]
 8005606:	9d07      	ldr	r5, [sp, #28]
 8005608:	47a8      	blx	r5
 800560a:	1c43      	adds	r3, r0, #1
 800560c:	d0aa      	beq.n	8005564 <_printf_i+0x13c>
 800560e:	6823      	ldr	r3, [r4, #0]
 8005610:	079b      	lsls	r3, r3, #30
 8005612:	d415      	bmi.n	8005640 <_printf_i+0x218>
 8005614:	9b09      	ldr	r3, [sp, #36]	; 0x24
 8005616:	68e0      	ldr	r0, [r4, #12]
 8005618:	4298      	cmp	r0, r3
 800561a:	daa5      	bge.n	8005568 <_printf_i+0x140>
 800561c:	0018      	movs	r0, r3
 800561e:	e7a3      	b.n	8005568 <_printf_i+0x140>
 8005620:	0022      	movs	r2, r4
 8005622:	2301      	movs	r3, #1
 8005624:	9906      	ldr	r1, [sp, #24]
 8005626:	9805      	ldr	r0, [sp, #20]
 8005628:	9e07      	ldr	r6, [sp, #28]
 800562a:	3219      	adds	r2, #25
 800562c:	47b0      	blx	r6
 800562e:	1c43      	adds	r3, r0, #1
 8005630:	d098      	beq.n	8005564 <_printf_i+0x13c>
 8005632:	3501      	adds	r5, #1
 8005634:	68e3      	ldr	r3, [r4, #12]
 8005636:	9a09      	ldr	r2, [sp, #36]	; 0x24
 8005638:	1a9b      	subs	r3, r3, r2
 800563a:	42ab      	cmp	r3, r5
 800563c:	dcf0      	bgt.n	8005620 <_printf_i+0x1f8>
 800563e:	e7e9      	b.n	8005614 <_printf_i+0x1ec>
 8005640:	2500      	movs	r5, #0
 8005642:	e7f7      	b.n	8005634 <_printf_i+0x20c>
 8005644:	08006369 	.word	0x08006369
 8005648:	0800637a 	.word	0x0800637a

0800564c <__retarget_lock_acquire_recursive>:
 800564c:	4770      	bx	lr

0800564e <__retarget_lock_release_recursive>:
 800564e:	4770      	bx	lr

08005650 <memchr>:
 8005650:	b2c9      	uxtb	r1, r1
 8005652:	1882      	adds	r2, r0, r2
 8005654:	4290      	cmp	r0, r2
 8005656:	d101      	bne.n	800565c <memchr+0xc>
 8005658:	2000      	movs	r0, #0
 800565a:	4770      	bx	lr
 800565c:	7803      	ldrb	r3, [r0, #0]
 800565e:	428b      	cmp	r3, r1
 8005660:	d0fb      	beq.n	800565a <memchr+0xa>
 8005662:	3001      	adds	r0, #1
 8005664:	e7f6      	b.n	8005654 <memchr+0x4>

08005666 <_realloc_r>:
 8005666:	b5f7      	push	{r0, r1, r2, r4, r5, r6, r7, lr}
 8005668:	0007      	movs	r7, r0
 800566a:	000e      	movs	r6, r1
 800566c:	0014      	movs	r4, r2
 800566e:	2900      	cmp	r1, #0
 8005670:	d105      	bne.n	800567e <_realloc_r+0x18>
 8005672:	0011      	movs	r1, r2
 8005674:	f7ff fc4e 	bl	8004f14 <_malloc_r>
 8005678:	0005      	movs	r5, r0
 800567a:	0028      	movs	r0, r5
 800567c:	bdfe      	pop	{r1, r2, r3, r4, r5, r6, r7, pc}
 800567e:	2a00      	cmp	r2, #0
 8005680:	d103      	bne.n	800568a <_realloc_r+0x24>
 8005682:	f7ff fbdb 	bl	8004e3c <_free_r>
 8005686:	0025      	movs	r5, r4
 8005688:	e7f7      	b.n	800567a <_realloc_r+0x14>
 800568a:	f000 f81b 	bl	80056c4 <_malloc_usable_size_r>
 800568e:	9001      	str	r0, [sp, #4]
 8005690:	4284      	cmp	r4, r0
 8005692:	d803      	bhi.n	800569c <_realloc_r+0x36>
 8005694:	0035      	movs	r5, r6
 8005696:	0843      	lsrs	r3, r0, #1
 8005698:	42a3      	cmp	r3, r4
 800569a:	d3ee      	bcc.n	800567a <_realloc_r+0x14>
 800569c:	0021      	movs	r1, r4
 800569e:	0038      	movs	r0, r7
 80056a0:	f7ff fc38 	bl	8004f14 <_malloc_r>
 80056a4:	1e05      	subs	r5, r0, #0
 80056a6:	d0e8      	beq.n	800567a <_realloc_r+0x14>
 80056a8:	9b01      	ldr	r3, [sp, #4]
 80056aa:	0022      	movs	r2, r4
 80056ac:	429c      	cmp	r4, r3
 80056ae:	d900      	bls.n	80056b2 <_realloc_r+0x4c>
 80056b0:	001a      	movs	r2, r3
 80056b2:	0031      	movs	r1, r6
 80056b4:	0028      	movs	r0, r5
 80056b6:	f7ff fb71 	bl	8004d9c <memcpy>
 80056ba:	0031      	movs	r1, r6
 80056bc:	0038      	movs	r0, r7
 80056be:	f7ff fbbd 	bl	8004e3c <_free_r>
 80056c2:	e7da      	b.n	800567a <_realloc_r+0x14>

080056c4 <_malloc_usable_size_r>:
 80056c4:	1f0b      	subs	r3, r1, #4
 80056c6:	681b      	ldr	r3, [r3, #0]
 80056c8:	1f18      	subs	r0, r3, #4
 80056ca:	2b00      	cmp	r3, #0
 80056cc:	da01      	bge.n	80056d2 <_malloc_usable_size_r+0xe>
 80056ce:	580b      	ldr	r3, [r1, r0]
 80056d0:	18c0      	adds	r0, r0, r3
 80056d2:	4770      	bx	lr

080056d4 <_init>:
 80056d4:	b5f8      	push	{r3, r4, r5, r6, r7, lr}
 80056d6:	46c0      	nop			; (mov r8, r8)
 80056d8:	bcf8      	pop	{r3, r4, r5, r6, r7}
 80056da:	bc08      	pop	{r3}
 80056dc:	469e      	mov	lr, r3
 80056de:	4770      	bx	lr

080056e0 <_fini>:
 80056e0:	b5f8      	push	{r3, r4, r5, r6, r7, lr}
 80056e2:	46c0      	nop			; (mov r8, r8)
 80056e4:	bcf8      	pop	{r3, r4, r5, r6, r7}
 80056e6:	bc08      	pop	{r3}
 80056e8:	469e      	mov	lr, r3
 80056ea:	4770      	bx	lr
